 canvas

 Timestamp is 603ab475 (Sat Feb 27 21:07:01 2021)

 Preferred load address is 0000000180000000

 Start         Length     Name                   Class
 0001:00000000 00000640H .text                   CODE
 0001:00000640 00001bf0H .text$di                CODE
 0001:00002230 00051350H .text$mn                CODE
 0001:00053580 00000200H .text$mn$00             CODE
 0001:00053780 000027e0H .text$x                 CODE
 0001:00055f60 00000248H .text$yd                CODE
 0002:00000000 00000970H .idata$5                DATA
 0002:00000970 00000028H .00cfg                  DATA
 0002:00000998 00000008H .CRT$XCA                DATA
 0002:000009a0 00000018H .CRT$XCC                DATA
 0002:000009b8 00000010H .CRT$XCL                DATA
 0002:000009c8 00000070H .CRT$XCU                DATA
 0002:00000a38 00000008H .CRT$XCZ                DATA
 0002:00000a40 00000008H .CRT$XIA                DATA
 0002:00000a48 00000030H .CRT$XIC                DATA
 0002:00000a78 00000008H .CRT$XIZ                DATA
 0002:00000a80 00000008H .CRT$XPA                DATA
 0002:00000a88 00000010H .CRT$XPX                DATA
 0002:00000a98 00000008H .CRT$XPXA               DATA
 0002:00000aa0 00000008H .CRT$XPZ                DATA
 0002:00000aa8 00000008H .CRT$XTA                DATA
 0002:00000ab0 00000010H .CRT$XTZ                DATA
 0002:00000ab8 00000000H .gehcont$y              DATA
 0002:00000ab8 00000000H .gfids$y                DATA
 0002:00000ac0 000135c0H .rdata                  DATA
 0002:00014080 00000000H .rdata$CastGuardVftablesA DATA
 0002:00014080 00000000H .rdata$CastGuardVftablesC DATA
 0002:00014080 0000075cH .rdata$r                DATA
 0002:000147dc 0000042cH .rdata$zzzdbg           DATA
 0002:00014c08 00000008H .rtc$IAA                DATA
 0002:00014c10 00000008H .rtc$IZZ                DATA
 0002:00014c18 00000008H .rtc$TAA                DATA
 0002:00014c20 00000008H .rtc$TZZ                DATA
 0002:00014c28 00005730H .xdata                  DATA
 0002:0001a358 0000037cH .xdata$x                DATA
 0002:0001a6d4 00000020H .didat$2                DATA
 0002:0001a6f4 00000024H .didat$3                DATA
 0002:0001a718 00000350H .didat$4                DATA
 0002:0001aa68 00001cb0H .didat$6                DATA
 0002:0001c718 00000358H .didat$7                DATA
 0002:0001ca70 00000250H .edata                  DATA
 0002:0001ccc0 000000f0H .idata$2                DATA
 0002:0001cdb0 00000018H .idata$3                DATA
 0002:0001cdc8 00000970H .idata$4                DATA
 0002:0001d738 000019b4H .idata$6                DATA
 0002:0001f0ec 000003c8H .idata$7                DATA
 0003:00000000 00000c80H .data                   DATA
 0003:00000c80 000003b0H .data$r                 DATA
 0003:00001030 00000350H .didat$5                DATA
 0003:00001380 000018fcH .bss                    DATA
 0004:00000000 00003900H .pdata                  DATA
 0005:00000000 00000094H _RDATA                  DATA
 0006:00000000 00000060H .rsrc$01                DATA
 0006:00000060 00000180H .rsrc$02                DATA

  Address         Publics by Value              Rva+Base               Lib:Object

 0000:00000000       ___safe_se_handler_table   0000000000000000     <absolute>
 0000:00000000       __guard_longjmp_table      0000000000000000     <absolute>
 0000:00000000       __x64_code_ranges_to_entry_points 0000000000000000     <absolute>
 0000:00000000       __arm64x_redirection_metadata 0000000000000000     <absolute>
 0000:00000000       __guard_iat_table          0000000000000000     <absolute>
 0000:00000000       __guard_fids_count         0000000000000000     <absolute>
 0000:00000000       __arm64x_extra_rfe_table   0000000000000000     <absolute>
 0000:00000000       __guard_iat_count          0000000000000000     <absolute>
 0000:00000000       __guard_longjmp_count      0000000000000000     <absolute>
 0000:00000000       __dynamic_value_reloc_table 0000000000000000     <absolute>
 0000:00000000       __x64_code_ranges_to_entry_points_count 0000000000000000     <absolute>
 0000:00000000       __hybrid_code_map          0000000000000000     <absolute>
 0000:00000000       __hybrid_auxiliary_iat     0000000000000000     <absolute>
 0000:00000000       __volatile_metadata        0000000000000000     <absolute>
 0000:00000000       __arm64x_extra_rfe_table_size 0000000000000000     <absolute>
 0000:00000000       ___safe_se_handler_count   0000000000000000     <absolute>
 0000:00000000       __AbsoluteZero             0000000000000000     <absolute>
 0000:00000000       __guard_eh_cont_count      0000000000000000     <absolute>
 0000:00000000       __guard_fids_table         0000000000000000     <absolute>
 0000:00000000       __arm64x_redirection_metadata_count 0000000000000000     <absolute>
 0000:00000000       __enclave_config           0000000000000000     <absolute>
 0000:00000000       __guard_eh_cont_table      0000000000000000     <absolute>
 0000:00000000       __arm64x_native_entrypoint 0000000000000000     <absolute>
 0000:00000000       __hybrid_code_map_count    0000000000000000     <absolute>
 0000:00000100       __guard_flags              0000000000000100     <absolute>
 0000:00000000       __ImageBase                0000000180000000     <linker-defined>
 0001:00000000       cairo_surface_destroy      0000000180001000     libcairo-2:dugks01146.o
 0001:00000008       cairo_status_to_string     0000000180001008     libcairo-2:dugks01137.o
 0001:00000010       cairo_surface_status       0000000180001010     libcairo-2:dugks01179.o
 0001:00000018       cairo_image_surface_create 0000000180001018     libcairo-2:dugks00939.o
 0001:00000020       cairo_image_surface_get_stride 0000000180001020     libcairo-2:dugks00946.o
 0001:00000028       cairo_surface_finish       0000000180001028     libcairo-2:dugks01147.o
 0001:00000030       cairo_image_surface_get_data 0000000180001030     libcairo-2:dugks00943.o
 0001:00000038       cairo_pdf_surface_set_size 0000000180001038     libcairo-2:dugks01021.o
 0001:00000040       cairo_pdf_surface_create_for_stream 0000000180001040     libcairo-2:dugks01017.o
 0001:00000048       cairo_svg_surface_create_for_stream 0000000180001048     libcairo-2:dugks01186.o
 0001:00000050       cairo_image_surface_get_format 0000000180001050     libcairo-2:dugks00944.o
 0001:00000058       cairo_destroy              0000000180001058     libcairo-2:dugks00854.o
 0001:00000060       cairo_image_surface_get_height 0000000180001060     libcairo-2:dugks00945.o
 0001:00000068       cairo_surface_flush        0000000180001068     libcairo-2:dugks01148.o
 0001:00000070       cairo_pdf_surface_set_metadata 0000000180001070     libcairo-2:dugks01019.o
 0001:00000078       cairo_set_line_width       0000000180001078     libcairo-2:dugks01121.o
 0001:00000080       cairo_image_surface_get_width 0000000180001080     libcairo-2:dugks00947.o
 0001:00000088       cairo_create               0000000180001088     libcairo-2:dugks00851.o
 0001:00000090       cairo_pattern_add_color_stop_rgba 0000000180001090     libcairo-2:dugks00987.o
 0001:00000098       cairo_pattern_create_radial 0000000180001098     libcairo-2:dugks00991.o
 0001:000000a0       cairo_pattern_create_linear 00000001800010a0     libcairo-2:dugks00989.o
 0001:000000a8       cairo_pattern_destroy      00000001800010a8     libcairo-2:dugks00995.o
 0001:000000b0       cairo_pattern_set_user_data 00000001800010b0     libcairo-2:dugks01012.o
 0001:000000b8       cairo_pattern_get_user_data 00000001800010b8     libcairo-2:dugks01007.o
 0001:000000c0       cairo_pattern_create_for_surface 00000001800010c0     libcairo-2:dugks00988.o
 0001:000000c8       cairo_path_destroy         00000001800010c8     libcairo-2:dugks00984.o
 0001:000000d0       cairo_in_fill              00000001800010d0     libcairo-2:dugks00949.o
 0001:000000d8       cairo_set_operator         00000001800010d8     libcairo-2:dugks01124.o
 0001:000000e0       cairo_pattern_get_linear_points 00000001800010e0     libcairo-2:dugks01000.o
 0001:000000e8       cairo_surface_mark_dirty_rectangle 00000001800010e8     libcairo-2:dugks01162.o
 0001:000000f0       cairo_save                 00000001800010f0     libcairo-2:dugks01084.o
 0001:000000f8       cairo_get_matrix           00000001800010f8     libcairo-2:dugks00924.o
 0001:00000100       cairo_arc_negative         0000000180001100     libcairo-2:dugks00842.o
 0001:00000108       cairo_stroke_preserve      0000000180001108     libcairo-2:dugks01140.o
 0001:00000110       cairo_rectangle            0000000180001110     libcairo-2:dugks01052.o
 0001:00000118       cairo_set_line_join        0000000180001118     libcairo-2:dugks01120.o
 0001:00000120       cairo_pattern_get_filter   0000000180001120     libcairo-2:dugks00999.o
 0001:00000128       cairo_set_source_surface   0000000180001128     libcairo-2:dugks01129.o
 0001:00000130       cairo_status               0000000180001130     libcairo-2:dugks01136.o
 0001:00000138       cairo_fill                 0000000180001138     libcairo-2:dugks00875.o
 0001:00000140       cairo_set_line_cap         0000000180001140     libcairo-2:dugks01119.o
 0001:00000148       cairo_get_source           0000000180001148     libcairo-2:dugks00929.o
 0001:00000150       cairo_mask_surface         0000000180001150     libcairo-2:dugks00954.o
 0001:00000158       cairo_pattern_set_filter   0000000180001158     libcairo-2:dugks01010.o
 0001:00000160       cairo_fill_extents         0000000180001160     libcairo-2:dugks00876.o
 0001:00000168       cairo_show_page            0000000180001168     libcairo-2:dugks01133.o
 0001:00000170       cairo_restore              0000000180001170     libcairo-2:dugks01082.o
 0001:00000178       cairo_line_to              0000000180001178     libcairo-2:dugks00951.o
 0001:00000180       cairo_set_fill_rule        0000000180001180     libcairo-2:dugks01114.o
 0001:00000188       cairo_paint                0000000180001188     libcairo-2:dugks00982.o
 0001:00000190       cairo_push_group           0000000180001190     libcairo-2:dugks01037.o
 0001:00000198       cairo_stroke               0000000180001198     libcairo-2:dugks01138.o
 0001:000001a0       cairo_move_to              00000001800011a0     libcairo-2:dugks00979.o
 0001:000001a8       cairo_get_line_cap         00000001800011a8     libcairo-2:dugks00921.o
 0001:000001b0       cairo_pattern_set_extend   00000001800011b0     libcairo-2:dugks01009.o
 0001:000001b8       cairo_get_operator         00000001800011b8     libcairo-2:dugks00926.o
 0001:000001c0       cairo_get_antialias        00000001800011c0     libcairo-2:dugks00912.o
 0001:000001c8       cairo_set_source_rgba      00000001800011c8     libcairo-2:dugks01128.o
 0001:000001d0       cairo_copy_path_flat       00000001800011d0     libcairo-2:dugks00850.o
 0001:000001d8       cairo_set_source           00000001800011d8     libcairo-2:dugks01126.o
 0001:000001e0       cairo_scale                00000001800011e0     libcairo-2:dugks01085.o
 0001:000001e8       cairo_user_to_device_distance 00000001800011e8     libcairo-2:dugks01217.o
 0001:000001f0       cairo_pattern_get_color_stop_count 00000001800011f0     libcairo-2:dugks00996.o
 0001:000001f8       cairo_set_matrix           00000001800011f8     libcairo-2:dugks01122.o
 0001:00000200       cairo_surface_mark_dirty   0000000180001200     libcairo-2:dugks01161.o
 0001:00000208       cairo_fill_preserve        0000000180001208     libcairo-2:dugks00877.o
 0001:00000210       cairo_pattern_get_surface  0000000180001210     libcairo-2:dugks01005.o
 0001:00000218       cairo_rotate               0000000180001218     libcairo-2:dugks01083.o
 0001:00000220       cairo_stroke_extents       0000000180001220     libcairo-2:dugks01139.o
 0001:00000228       cairo_matrix_init          0000000180001228     libcairo-2:dugks00955.o
 0001:00000230       cairo_pop_group_to_source  0000000180001230     libcairo-2:dugks01025.o
 0001:00000238       cairo_get_dash             0000000180001238     libcairo-2:dugks00914.o
 0001:00000240       cairo_get_miter_limit      0000000180001240     libcairo-2:dugks00925.o
 0001:00000248       cairo_pattern_get_color_stop_rgba 0000000180001248     libcairo-2:dugks00997.o
 0001:00000250       cairo_append_path          0000000180001250     libcairo-2:dugks00840.o
 0001:00000258       cairo_new_path             0000000180001258     libcairo-2:dugks00980.o
 0001:00000260       cairo_identity_matrix      0000000180001260     libcairo-2:dugks00938.o
 0001:00000268       cairo_get_line_join        0000000180001268     libcairo-2:dugks00922.o
 0001:00000270       cairo_in_stroke            0000000180001270     libcairo-2:dugks00950.o
 0001:00000278       cairo_paint_with_alpha     0000000180001278     libcairo-2:dugks00983.o
 0001:00000280       cairo_set_antialias        0000000180001280     libcairo-2:dugks01112.o
 0001:00000288       cairo_get_dash_count       0000000180001288     libcairo-2:dugks00915.o
 0001:00000290       cairo_set_dash             0000000180001290     libcairo-2:dugks01113.o
 0001:00000298       cairo_transform            0000000180001298     libcairo-2:dugks01205.o
 0001:000002a0       cairo_close_path           00000001800012a0     libcairo-2:dugks00846.o
 0001:000002a8       cairo_arc                  00000001800012a8     libcairo-2:dugks00841.o
 0001:000002b0       cairo_get_line_width       00000001800012b0     libcairo-2:dugks00923.o
 0001:000002b8       cairo_pattern_get_type     00000001800012b8     libcairo-2:dugks01006.o
 0001:000002c0       cairo_clip_preserve        00000001800012c0     libcairo-2:dugks00845.o
 0001:000002c8       cairo_set_miter_limit      00000001800012c8     libcairo-2:dugks01123.o
 0001:000002d0       cairo_get_current_point    00000001800012d0     libcairo-2:dugks00913.o
 0001:000002d8       cairo_translate            00000001800012d8     libcairo-2:dugks01206.o
 0001:000002e0       cairo_pattern_get_radial_circles 00000001800012e0     libcairo-2:dugks01002.o
 0001:000002e8       cairo_curve_to             00000001800012e8     libcairo-2:dugks00852.o
 0001:000002f0       cairo_format_stride_for_width 00000001800012f0     libcairo-2:dugks00903.o
 0001:000002f8       cairo_image_surface_create_from_png 00000001800012f8     libcairo-2:dugks00941.o
 0001:00000300       cairo_image_surface_create_from_png_stream 0000000180001300     libcairo-2:dugks00942.o
 0001:00000308       cairo_image_surface_create_for_data 0000000180001308     libcairo-2:dugks00940.o
 0001:00000310       cairo_surface_set_mime_data 0000000180001310     libcairo-2:dugks01176.o
 0001:00000318       cairo_version_string       0000000180001318     libcairo-2:dugks01219.o
 0001:00000320       png_destroy_write_struct   0000000180001320     libpng16-16:dodcs00019.o
 0001:00000328       png_set_bKGD               0000000180001328     libpng16-16:dodcs00155.o
 0001:00000330       png_set_write_user_transform_fn 0000000180001330     libpng16-16:dodcs00247.o
 0001:00000338       png_set_tRNS               0000000180001338     libpng16-16:dodcs00233.o
 0001:00000340       png_set_pHYs               0000000180001340     libpng16-16:dodcs00204.o
 0001:00000348       png_set_longjmp_fn         0000000180001348     libpng16-16:dodcs00198.o
 0001:00000350       png_malloc                 0000000180001350     libpng16-16:dodcs00129.o
 0001:00000358       png_get_io_ptr             0000000180001358     libpng16-16:dodcs00058.o
 0001:00000360       png_write_info             0000000180001360     libpng16-16:dodcs00260.o
 0001:00000368       png_set_packswap           0000000180001368     libpng16-16:dodcs00206.o
 0001:00000370       png_write_image            0000000180001370     libpng16-16:dodcs00259.o
 0001:00000378       png_get_error_ptr          0000000180001378     libpng16-16:dodcs00044.o
 0001:00000380       png_set_packing            0000000180001380     libpng16-16:dodcs00205.o
 0001:00000388       png_set_PLTE               0000000180001388     libpng16-16:dodcs00150.o
 0001:00000390       png_set_filter             0000000180001390     libpng16-16:dodcs00181.o
 0001:00000398       png_data_freer             0000000180001398     libpng16-16:dodcs00016.o
 0001:000003a0       png_set_compression_level  00000001800013a0     libpng16-16:dodcs00168.o
 0001:000003a8       png_set_IHDR               00000001800013a8     libpng16-16:dodcs00149.o
 0001:000003b0       png_set_write_fn           00000001800013b0     libpng16-16:dodcs00245.o
 0001:000003b8       png_create_info_struct     00000001800013b8     libpng16-16:dodcs00011.o
 0001:000003c0       png_set_filler             00000001800013c0     libpng16-16:dodcs00180.o
 0001:000003c8       png_write_end              00000001800013c8     libpng16-16:dodcs00255.o
 0001:000003d0       png_error                  00000001800013d0     libpng16-16:dodcs00020.o
 0001:000003d8       png_create_write_struct_2  00000001800013d8     libpng16-16:dodcs00015.o
 0001:000003e0       jpeg_simple_progression    00000001800013e0     libjpeg-8:dghgs00091.o
 0001:000003e8       jpeg_set_quality           00000001800013e8     libjpeg-8:dghgs00090.o
 0001:000003f0       jpeg_CreateCompress        00000001800013f0     libjpeg-8:dghgs00029.o
 0001:000003f8       jpeg_std_error             00000001800013f8     libjpeg-8:dghgs00096.o
 0001:00000400       jpeg_destroy_compress      0000000180001400     libjpeg-8:dghgs00046.o
 0001:00000408       jpeg_set_defaults          0000000180001408     libjpeg-8:dghgs00087.o
 0001:00000410       jpeg_finish_compress       0000000180001410     libjpeg-8:dghgs00052.o
 0001:00000418       jpeg_write_scanlines       0000000180001418     libjpeg-8:dghgs00106.o
 0001:00000420       jpeg_start_compress        0000000180001420     libjpeg-8:dghgs00093.o
 0001:00000428       jpeg_CreateDecompress      0000000180001428     libjpeg-8:dghgs00030.o
 0001:00000430       jpeg_destroy_decompress    0000000180001430     libjpeg-8:dghgs00047.o
 0001:00000438       jpeg_read_header           0000000180001438     libjpeg-8:dghgs00080.o
 0001:00000440       jpeg_start_decompress      0000000180001440     libjpeg-8:dghgs00094.o
 0001:00000448       jpeg_stdio_src             0000000180001448     libjpeg-8:dghgs00098.o
 0001:00000450       jpeg_finish_decompress     0000000180001450     libjpeg-8:dghgs00053.o
 0001:00000458       jpeg_abort_decompress      0000000180001458     libjpeg-8:dghgs00033.o
 0001:00000460       jpeg_mem_src               0000000180001460     libjpeg-8:dghgs00074.o
 0001:00000468       jpeg_read_scanlines        0000000180001468     libjpeg-8:dghgs00083.o
 0001:00000470       pango_font_description_better_match 0000000180001470     libpango-1.0-0:dymis00121.o
 0001:00000478       pango_font_description_set_style 0000000180001478     libpango-1.0-0:dymis00148.o
 0001:00000480       pango_font_description_set_weight 0000000180001480     libpango-1.0-0:dymis00152.o
 0001:00000488       pango_font_description_equal 0000000180001488     libpango-1.0-0:dymis00124.o
 0001:00000490       pango_font_description_new 0000000180001490     libpango-1.0-0:dymis00141.o
 0001:00000498       pango_font_description_free 0000000180001498     libpango-1.0-0:dymis00125.o
 0001:000004a0       pango_font_description_get_family 00000001800014a0     libpango-1.0-0:dymis00127.o
 0001:000004a8       pango_font_description_set_family 00000001800014a8     libpango-1.0-0:dymis00143.o
 0001:000004b0       pango_font_description_copy 00000001800014b0     libpango-1.0-0:dymis00122.o
 0001:000004b8       pango_layout_get_font_description 00000001800014b8     libpango-1.0-0:dymis00275.o
 0001:000004c0       pango_context_get_metrics  00000001800014c0     libpango-1.0-0:dymis00082.o
 0001:000004c8       pango_layout_set_font_description 00000001800014c8     libpango-1.0-0:dymis00340.o
 0001:000004d0       pango_layout_get_context   00000001800014d0     libpango-1.0-0:dymis00270.o
 0001:000004d8       pango_layout_get_extents   00000001800014d8     libpango-1.0-0:dymis00274.o
 0001:000004e0       pango_layout_line_get_extents 00000001800014e0     libpango-1.0-0:dymis00325.o
 0001:000004e8       pango_font_description_from_string 00000001800014e8     libpango-1.0-0:dymis00126.o
 0001:000004f0       pango_layout_get_pixel_extents 00000001800014f0     libpango-1.0-0:dymis00288.o
 0001:000004f8       pango_font_description_set_absolute_size 00000001800014f8     libpango-1.0-0:dymis00142.o
 0001:00000500       pango_context_get_language 0000000180001500     libpango-1.0-0:dymis00080.o
 0001:00000508       pango_font_metrics_unref   0000000180001508     libpango-1.0-0:dymis00201.o
 0001:00000510       pango_layout_get_baseline  0000000180001510     libpango-1.0-0:dymis00268.o
 0001:00000518       pango_layout_set_text      0000000180001518     libpango-1.0-0:dymis00350.o
 0001:00000520       pango_layout_get_line      0000000180001520     libpango-1.0-0:dymis00280.o
 0001:00000528       pango_font_metrics_get_ascent 0000000180001528     libpango-1.0-0:dymis00191.o
 0001:00000530       pango_font_description_set_stretch 0000000180001530     libpango-1.0-0:dymis00147.o
 0001:00000538       pango_font_description_set_family_static 0000000180001538     libpango-1.0-0:dymis00144.o
 0001:00000540       pango_cairo_show_layout    0000000180001540     libpangocairo-1.0-0:dakhs00029.o
 0001:00000548       pango_cairo_update_layout  0000000180001548     libpangocairo-1.0-0:dakhs00032.o
 0001:00000550       pango_cairo_layout_path    0000000180001550     libpangocairo-1.0-0:dakhs00024.o
 0001:00000558       pango_cairo_create_layout  0000000180001558     libpangocairo-1.0-0:dakhs00007.o
 0001:00000560       pango_cairo_font_map_set_default 0000000180001560     libpangocairo-1.0-0:dakhs00020.o
 0001:00000570       g_object_unref             0000000180001570     libgobject-2.0-0:dyogs00162.o
 0001:00000580       g_free                     0000000180001580     libglib-2.0-0:dotds00424.o
 0001:00000588       g_strdup                   0000000180001588     libglib-2.0-0:dotds01258.o
 0001:00000590       g_list_foreach             0000000180001590     libglib-2.0-0:dotds00643.o
 0001:00000598       g_list_first               0000000180001598     libglib-2.0-0:dotds00642.o
 0001:000005a0       g_iconv_open               00000001800015a0     libglib-2.0-0:dotds00525.o
 0001:000005a8       g_iconv                    00000001800015a8     libglib-2.0-0:dotds00523.o
 0001:000005b0       g_list_insert_sorted       00000001800015b0     libglib-2.0-0:dotds00651.o
 0001:000005b8       g_list_free                00000001800015b8     libglib-2.0-0:dotds00644.o
 0001:000005c0       DGifOpen                   00000001800015c0     libgif-7:deybs00014.o
 0001:000005c8       DGifSlurp                  00000001800015c8     libgif-7:deybs00018.o
 0001:000005d0       DGifCloseFile              00000001800015d0     libgif-7:deybs00000.o
 0001:000005e0       FT_Get_Sfnt_Table          00000001800015e0     libfreetype-6:dmuhs00087.o
 0001:000005e8       FT_New_Face                00000001800015e8     libfreetype-6:dmuhs00126.o
 0001:000005f0       FT_Done_FreeType           00000001800015f0     libfreetype-6:dmuhs00035.o
 0001:000005f8       FT_Done_Face               00000001800015f8     libfreetype-6:dmuhs00034.o
 0001:00000600       FT_Get_Sfnt_Name_Count     0000000180001600     libfreetype-6:dmuhs00086.o
 0001:00000608       FT_Init_FreeType           0000000180001608     libfreetype-6:dmuhs00107.o
 0001:00000610       FT_Get_Sfnt_Name           0000000180001610     libfreetype-6:dmuhs00085.o
 0001:00000620       rsvg_handle_render_cairo   0000000180001620     librsvg-2-2:dugcs00034.o
 0001:00000628       rsvg_handle_new_from_data  0000000180001628     librsvg-2-2:dugcs00028.o
 0001:00000630       rsvg_handle_get_dimensions 0000000180001630     librsvg-2-2:dugcs00014.o
 0001:00002230       ?what@exception@stdext@@UEBAPEBDXZ 0000000180003230 f i Backend.obj
 0001:00002250       ?_Raise@exception@stdext@@QEBAXXZ 0000000180003250 f i Backend.obj
 0001:00002290       ?_Unlock@?$basic_streambuf@DU?$char_traits@D@std@@@std@@UEAAXXZ 0000000180003290 f i Canvas.obj
 0001:00002290       _guard_check_icall_nop     0000000180003290 f i LIBCMT:guard_support.obj
 0001:00002290       ?init_closure_destination@@YAXPEAUjpeg_compress_struct@@@Z 0000000180003290 f i Canvas.obj
 0001:00002290       ?_Doraise@exception@stdext@@MEBAXXZ 0000000180003290 f i Backend.obj
 0001:00002290       ?_Lock@?$basic_streambuf@DU?$char_traits@D@std@@@std@@UEAAXXZ 0000000180003290 f i Canvas.obj
 0001:00002290       ?stream_pdf_free@@YAXPEADPEAX@Z 0000000180003290 f i Canvas.obj
 0001:00002290       ?imbue@?$basic_streambuf@DU?$char_traits@D@std@@@std@@MEAAXAEBVlocale@2@@Z 0000000180003290 f i Canvas.obj
 0001:000022a0       ??_Gbad_array_new_length@stdext@@UEAAPEAXI@Z 00000001800032a0 f i Backend.obj
 0001:000022a0       ??_Eexception@stdext@@UEAAPEAXI@Z 00000001800032a0 f i * CIL library *:* CIL module *
 0001:000022a0       ??_Gexception@stdext@@UEAAPEAXI@Z 00000001800032a0 f i Backend.obj
 0001:000022a0       ??_Ebad_array_new_length@stdext@@UEAAPEAXI@Z 00000001800032a0 f i * CIL library *:* CIL module *
 0001:000022a0       ??_Gruntime_error@std@@UEAAPEAXI@Z 00000001800032a0 f i Canvas.obj
 0001:000022a0       ??_Eruntime_error@std@@UEAAPEAXI@Z 00000001800032a0 f i * CIL library *:* CIL module *
 0001:000022d0       ?_Doraise@system_error@std@@MEBAXXZ 00000001800032d0 f i Canvas.obj
 0001:000022d0       ?_Doraise@bad_alloc@stdext@@MEBAXXZ 00000001800032d0 f i Backend.obj
 0001:000022d0       ?_Doraise@failure@ios_base@std@@MEBAXXZ 00000001800032d0 f i Canvas.obj
 0001:000022d0       ?_Doraise@runtime_error@std@@MEBAXXZ 00000001800032d0 f i Canvas.obj
 0001:000022f0       ??0bad_array_new_length@stdext@@QEAA@XZ 00000001800032f0 f i Backend.obj
 0001:00002310       ??1failure@ios_base@std@@UEAA@XZ 0000000180003310 f i Canvas.obj
 0001:00002310       ??1runtime_error@std@@UEAA@XZ 0000000180003310 f i Canvas.obj
 0001:00002310       ??1bad_array_new_length@stdext@@UEAA@XZ 0000000180003310 f i Backend.obj
 0001:00002320       ?_Throw_bad_array_new_length@std@@YAXXZ 0000000180003320 f i Backend.obj
 0001:00002340       ?_Xlen_string@std@@YAXXZ   0000000180003340 f i Backend.obj
 0001:00002360       ??1ObjectWrap@Nan@@UEAA@XZ 0000000180003360 f i Backend.obj
 0001:000023a0       ?Wrap@ObjectWrap@Nan@@IEAAXV?$Local@VObject@v8@@@v8@@@Z 00000001800033a0 f i Backend.obj
 0001:00002470       ?Ref@ObjectWrap@Nan@@MEAAXXZ 0000000180003470 f i Backend.obj
 0001:000024b0       ?Unref@ObjectWrap@Nan@@MEAAXXZ 00000001800034b0 f i Backend.obj
 0001:00002560       ?WeakCallback@ObjectWrap@Nan@@CAXAEBV?$WeakCallbackInfo@VObjectWrap@Nan@@@v8@@@Z 0000000180003560 f i Backend.obj
 0001:000025c0       ??_GObjectWrap@Nan@@UEAAPEAXI@Z 00000001800035c0 f i Backend.obj
 0001:000025c0       ??_EObjectWrap@Nan@@UEAAPEAXI@Z 00000001800035c0 f i * CIL library *:* CIL module *
 0001:00002620       ?overflow@?$basic_streambuf@DU?$char_traits@D@std@@@std@@MEAAHH@Z 0000000180003620 f i Canvas.obj
 0001:00002620       ?underflow@?$basic_streambuf@DU?$char_traits@D@std@@@std@@MEAAHXZ 0000000180003620 f i Canvas.obj
 0001:00002620       ?getFormat@Backend@@UEAA?AW4_cairo_format@@XZ 0000000180003620 f i Backend.obj
 0001:00002620       ?pbackfail@?$basic_streambuf@DU?$char_traits@D@std@@@std@@MEAAHH@Z 0000000180003620 f i Canvas.obj
 0001:00002630       ??0Backend@@IEAA@V?$basic_string@DU?$char_traits@D@std@@V?$allocator@D@2@@std@@HH@Z 0000000180003630 f   Backend.obj
 0001:00002710       ??_EBackend@@UEAAPEAXI@Z   0000000180003710 f i * CIL library *:* CIL module *
 0001:00002710       ??_GBackend@@UEAAPEAXI@Z   0000000180003710 f i Backend.obj
 0001:00002750       ??1Backend@@UEAA@XZ        0000000180003750 f   Backend.obj
 0001:00002810       ?init@Backend@@KAXAEBV?$FunctionCallbackInfo@VValue@v8@@@Nan@@@Z 0000000180003810 f   Backend.obj
 0001:00002980       ?recreateSurface@Backend@@UEAAPEAU_cairo_surface@@XZ 0000000180003980 f   Backend.obj
 0001:000029a0       ?getSurface@Backend@@QEAAPEAU_cairo_surface@@XZ 00000001800039a0 f   Backend.obj
 0001:000029d0       ?destroySurface@Backend@@UEAAXXZ 00000001800039d0 f   Backend.obj
 0001:00002a00       ?getName@Backend@@QEAA?AV?$basic_string@DU?$char_traits@D@std@@V?$allocator@D@2@@std@@XZ 0000000180003a00 f   Backend.obj
 0001:00002a20       ?getWidth@Backend@@QEAAHXZ 0000000180003a20 f   Backend.obj
 0001:00002a30       ?setWidth@Backend@@UEAAXH@Z 0000000180003a30 f   Backend.obj
 0001:00002a40       ?getHeight@Backend@@QEAAHXZ 0000000180003a40 f   Backend.obj
 0001:00002a50       ?setHeight@Backend@@UEAAXH@Z 0000000180003a50 f   Backend.obj
 0001:00002a60       ??1?$pair@$$CBV?$basic_string@DU?$char_traits@D@std@@V?$allocator@D@2@@std@@H@std@@QEAA@XZ 0000000180003a60 f i CanvasRenderingContext2d.obj
 0001:00002a60       ??1?$pair@$$CBV?$basic_string@DU?$char_traits@D@std@@V?$allocator@D@2@@std@@I@std@@QEAA@XZ 0000000180003a60 f i color.obj
 0001:00002a60       ??1?$pair@$$CBV?$basic_string@DU?$char_traits@D@std@@V?$allocator@D@2@@std@@W4_cairo_operator@@@std@@QEAA@XZ 0000000180003a60 f i CanvasRenderingContext2d.obj
 0001:00002a60       ??1?$basic_string@DU?$char_traits@D@std@@V?$allocator@D@2@@std@@QEAA@XZ 0000000180003a60 f i Backend.obj
 0001:00002ac0       ??0?$basic_string@DU?$char_traits@D@std@@V?$allocator@D@2@@std@@QEAA@AEBV01@@Z 0000000180003ac0 f i Backend.obj
 0001:00002ba0       ??$?HDU?$char_traits@D@std@@V?$allocator@D@1@@std@@YA?AV?$basic_string@DU?$char_traits@D@std@@V?$allocator@D@2@@0@QEBDAEBV10@@Z 0000000180003ba0 f i Backend.obj
 0001:00002c10       ??$?HDU?$char_traits@D@std@@V?$allocator@D@1@@std@@YA?AV?$basic_string@DU?$char_traits@D@std@@V?$allocator@D@2@@0@$$QEAV10@QEBD@Z 0000000180003c10 f i Backend.obj
 0001:00002c70       ??0?$basic_string@DU?$char_traits@D@std@@V?$allocator@D@2@@std@@QEAA@U_String_constructor_concat_tag@1@AEBV01@QEBD_K23@Z 0000000180003c70 f i Backend.obj
 0001:00002d90       ?append@?$basic_string@DU?$char_traits@D@std@@V?$allocator@D@2@@std@@QEAAAEAV12@QEBD_K@Z 0000000180003d90 f i Backend.obj
 0001:00002e10       ??$_Reallocate_grow_by@V<lambda_65e615be2a453ca0576c979606f46740>@@PEBD_K@?$basic_string@DU?$char_traits@D@std@@V?$allocator@D@2@@std@@AEAAAEAV01@_KV<lambda_65e615be2a453ca0576c979606f46740>@@PEBD_K@Z 0000000180003e10 f i Backend.obj
 0001:00003080       ?New@?$Factory@VFunctionTemplate@v8@@@imp@Nan@@SA?AV?$Local@VFunctionTemplate@v8@@@v8@@P6AXAEBV?$FunctionCallbackInfo@VValue@v8@@@3@@ZV?$Local@VValue@v8@@@5@V?$Local@VSignature@v8@@@5@@Z 0000000180004080 f i ImageBackend.obj
 0001:00003240       ?AdjustExternalMemory@Nan@@YAHH@Z 0000000180004240 f i ImageBackend.obj
 0001:000032c0       ??1EscapableHandleScope@Nan@@QEAA@XZ 00000001800042c0 f i Canvas.obj
 0001:000032c0       ??1HandleScope@Nan@@QEAA@XZ 00000001800042c0 f i ImageBackend.obj
 0001:000032d0       ??0ImageBackend@@QEAA@HH@Z 00000001800042d0 f   ImageBackend.obj
 0001:00003350       ??_EImageBackend@@UEAAPEAXI@Z 0000000180004350 f i * CIL library *:* CIL module *
 0001:00003350       ??_GImageBackend@@UEAAPEAXI@Z 0000000180004350 f i ImageBackend.obj
 0001:00003390       ?createSurface@ImageBackend@@EEAAPEAU_cairo_surface@@XZ 0000000180004390 f   ImageBackend.obj
 0001:00003430       ?destroySurface@ImageBackend@@EEAAXXZ 0000000180004430 f   ImageBackend.obj
 0001:00003490       ?getFormat@ImageBackend@@UEAA?AW4_cairo_format@@XZ 0000000180004490 f   ImageBackend.obj
 0001:000034a0       ?Initialize@ImageBackend@@SAXV?$Local@VObject@v8@@@v8@@@Z 00000001800044a0 f   ImageBackend.obj
 0001:000036b0       ?New@PdfBackend@@SAXAEBV?$FunctionCallbackInfo@VValue@v8@@@Nan@@@Z 00000001800046b0 f   PdfBackend.obj
 0001:000036b0       ?New@ImageBackend@@SAXAEBV?$FunctionCallbackInfo@VValue@v8@@@Nan@@@Z 00000001800046b0 f   ImageBackend.obj
 0001:000036b0       ?New@SvgBackend@@SAXAEBV?$FunctionCallbackInfo@VValue@v8@@@Nan@@@Z 00000001800046b0 f   SvgBackend.obj
 0001:000036c0       ??0?$basic_string@DU?$char_traits@D@std@@V?$allocator@D@2@@std@@QEAA@QEBD@Z 00000001800046c0 f i ImageBackend.obj
 0001:00003700       ?assign@?$basic_string@DU?$char_traits@D@std@@V?$allocator@D@2@@std@@QEAAAEAV12@QEBD_K@Z 0000000180004700 f i ImageBackend.obj
 0001:00003860       ?backend@Canvas@@QEAAPEAVBackend@@XZ 0000000180004860 f i PdfBackend.obj
 0001:00003870       ?surface@Canvas@@QEAAPEAU_cairo_surface@@XZ 0000000180004870 f i PdfBackend.obj
 0001:000038a0       ?data@Canvas@@QEAAPEAEXZ   00000001800048a0 f i PdfBackend.obj
 0001:000038d0       ?stride@Canvas@@QEAAHXZ    00000001800048d0 f i PdfBackend.obj
 0001:00003900       ?nBytes@Canvas@@QEAAHXZ    0000000180004900 f i PdfBackend.obj
 0001:00003940       ?getWidth@Canvas@@QEAAHXZ  0000000180004940 f i PdfBackend.obj
 0001:00003950       ?getHeight@Canvas@@QEAAHXZ 0000000180004950 f i PdfBackend.obj
 0001:00003960       ?writeVec@Closure@@SA?AW4_cairo_status@@PEAXPEBEI@Z 0000000180004960 f i PdfBackend.obj
 0001:00003990       ??1Closure@@QEAA@XZ        0000000180004990 f i PdfBackend.obj
 0001:00003a10       ??0PdfBackend@@QEAA@HH@Z   0000000180004a10 f   PdfBackend.obj
 0001:00003ae0       ??_EPdfBackend@@UEAAPEAXI@Z 0000000180004ae0 f i * CIL library *:* CIL module *
 0001:00003ae0       ??_GPdfBackend@@UEAAPEAXI@Z 0000000180004ae0 f i PdfBackend.obj
 0001:00003b70       ?createSurface@PdfBackend@@EEAAPEAU_cairo_surface@@XZ 0000000180004b70 f   PdfBackend.obj
 0001:00003be0       ?recreateSurface@PdfBackend@@EEAAPEAU_cairo_surface@@XZ 0000000180004be0 f   PdfBackend.obj
 0001:00003c10       ?Initialize@PdfBackend@@SAXV?$Local@VObject@v8@@@v8@@@Z 0000000180004c10 f   PdfBackend.obj
 0001:00003e20       ??$_Insert_range@PEBE@?$vector@EV?$allocator@E@std@@@std@@AEAAXV?$_Vector_const_iterator@V?$_Vector_val@U?$_Simple_types@E@std@@@std@@@1@PEBE1Uforward_iterator_tag@1@@Z 0000000180004e20 f i PdfBackend.obj
 0001:00004020       ?_Xlength@?$vector@VFontFace@@V?$allocator@VFontFace@@@std@@@std@@CAXXZ 0000000180005020 f i Canvas.obj
 0001:00004020       ?_Xlength@?$vector@EV?$allocator@E@std@@@std@@CAXXZ 0000000180005020 f i PdfBackend.obj
 0001:00004020       ?_Xlength@?$vector@NV?$allocator@N@std@@@std@@CAXXZ 0000000180005020 f i CanvasRenderingContext2d.obj
 0001:00004040       ?_Change_array@?$vector@EV?$allocator@E@std@@@std@@AEAAXQEAE_K1@Z 0000000180005040 f i PdfBackend.obj
 0001:000040d0       ??0SvgBackend@@QEAA@HH@Z   00000001800050d0 f   SvgBackend.obj
 0001:000041a0       ??_ESvgBackend@@UEAAPEAXI@Z 00000001800051a0 f i * CIL library *:* CIL module *
 0001:000041a0       ??_GSvgBackend@@UEAAPEAXI@Z 00000001800051a0 f i SvgBackend.obj
 0001:00004240       ?createSurface@SvgBackend@@EEAAPEAU_cairo_surface@@XZ 0000000180005240 f   SvgBackend.obj
 0001:000042d0       ?recreateSurface@SvgBackend@@EEAAPEAU_cairo_surface@@XZ 00000001800052d0 f   SvgBackend.obj
 0001:00004330       ?Initialize@SvgBackend@@SAXV?$Local@VObject@v8@@@v8@@@Z 0000000180005330 f   SvgBackend.obj
 0001:00004540       ??1Parser@BMPParser@@QEAA@XZ 0000000180005540 f   BMPParser.obj
 0001:00004610       ?parse@Parser@BMPParser@@QEAAXPEAEH0@Z 0000000180005610 f   BMPParser.obj
 0001:00007060       ?getErrMsg@Parser@BMPParser@@QEBA?AV?$basic_string@DU?$char_traits@D@std@@V?$allocator@D@2@@std@@XZ 0000000180008060 f   BMPParser.obj
 0001:00007300       ?getStr@Parser@BMPParser@@AEAA?AV?$basic_string@DU?$char_traits@D@std@@V?$allocator@D@2@@std@@H_N@Z 0000000180008300 f   BMPParser.obj
 0001:000075e0       ?skip@Parser@BMPParser@@AEAAXH@Z 00000001800085e0 f i BMPParser.obj
 0001:00007700       ?calcMaskShift@Parser@BMPParser@@AEAAXAEAI0AEAN@Z 0000000180008700 f   BMPParser.obj
 0001:00007880       ?setOp@Parser@BMPParser@@AEAAXV?$basic_string@DU?$char_traits@D@std@@V?$allocator@D@2@@std@@@Z 0000000180008880 f   BMPParser.obj
 0001:00007930       ?setErrUnsupported@Parser@BMPParser@@AEAAXV?$basic_string@DU?$char_traits@D@std@@V?$allocator@D@2@@std@@@Z 0000000180008930 f   BMPParser.obj
 0001:00007af0       ?setErrUnknown@Parser@BMPParser@@AEAAXV?$basic_string@DU?$char_traits@D@std@@V?$allocator@D@2@@std@@@Z 0000000180008af0 f   BMPParser.obj
 0001:00007cb0       ?setErr@Parser@BMPParser@@AEAAXV?$basic_string@DU?$char_traits@D@std@@V?$allocator@D@2@@std@@@Z 0000000180008cb0 f   BMPParser.obj
 0001:00007d70       ?assign@?$basic_string@DU?$char_traits@D@std@@V?$allocator@D@2@@std@@QEAAAEAV12@_KD@Z 0000000180008d70 f i BMPParser.obj
 0001:00007ee0       ??$?9DU?$char_traits@D@std@@V?$allocator@D@1@@std@@YA_NAEBV?$basic_string@DU?$char_traits@D@std@@V?$allocator@D@2@@0@QEBD@Z 0000000180008ee0 f i BMPParser.obj
 0001:00007f30       ??$get@H$00@Parser@BMPParser@@AEAAHXZ 0000000180008f30 f i BMPParser.obj
 0001:00007f30       ??$get@I$00@Parser@BMPParser@@AEAAIXZ 0000000180008f30 f i BMPParser.obj
 0001:00008060       ??$get@G$00@Parser@BMPParser@@AEAAGXZ 0000000180009060 f i BMPParser.obj
 0001:00008190       ??$get@E$0A@@Parser@BMPParser@@AEAAEXZ 0000000180009190 f i BMPParser.obj
 0001:000081a0       ??$get@E$00@Parser@BMPParser@@AEAAEPEAE@Z 00000001800091a0 f i BMPParser.obj
 0001:000082c0       ??$get@G$0A@@Parser@BMPParser@@AEAAGXZ 00000001800092c0 f i BMPParser.obj
 0001:000082d0       ??$get@I$0A@@Parser@BMPParser@@AEAAIXZ 00000001800092d0 f i BMPParser.obj
 0001:000082e0       ??$_Reallocate_grow_by@V<lambda_319d5e083f45f90dcdce5dce53cbb275>@@D@?$basic_string@DU?$char_traits@D@std@@V?$allocator@D@2@@std@@AEAAAEAV01@_KV<lambda_319d5e083f45f90dcdce5dce53cbb275>@@D@Z 00000001800092e0 f i BMPParser.obj
 0001:00008450       ??$_Reallocate_grow_by@V<lambda_f3a66ab6a0570788f31503db83886f49>@@_KPEBD_K@?$basic_string@DU?$char_traits@D@std@@V?$allocator@D@2@@std@@AEAAAEAV01@_KV<lambda_f3a66ab6a0570788f31503db83886f49>@@_KPEBD2@Z 0000000180009450 f i BMPParser.obj
 0001:000087b0       ??1AsyncResource@Nan@@QEAA@XZ 00000001800097b0 f i Canvas.obj
 0001:000087e0       ?ThrowError@Nan@@YAXPEBD@Z 00000001800097e0 f i Canvas.obj
 0001:00008870       ?ThrowTypeError@Nan@@YAXPEBD@Z 0000000180009870 f i Canvas.obj
 0001:00008900       ??0Utf8String@Nan@@QEAA@V?$Local@VValue@v8@@@v8@@@Z 0000000180009900 f i Canvas.obj
 0001:00008a30       ??1Utf8String@Nan@@QEAA@XZ 0000000180009a30 f i Canvas.obj
 0001:00008a50       ?SetPrototypeMethod@Nan@@YAXV?$Local@VFunctionTemplate@v8@@@v8@@PEBDP6AXAEBV?$FunctionCallbackInfo@VValue@v8@@@1@@ZV?$Local@VValue@v8@@@3@@Z 0000000180009a50 f i Canvas.obj
 0001:00008b40       ??0JpegClosure@@QEAA@PEAVCanvas@@@Z 0000000180009b40 f i Canvas.obj
 0001:00008bc0       ??1JpegClosure@@QEAA@XZ    0000000180009bc0 f i Canvas.obj
 0001:00008d90       ?setjmp_wrapper@@YA_NPEAUpng_struct_def@@@Z 0000000180009d90 f   Canvas.obj
 0001:000092b0       ?default_error_condition@error_category@std@@UEBA?AVerror_condition@2@H@Z 000000018000a2b0 f i Canvas.obj
 0001:000092c0       ?equivalent@error_category@std@@UEBA_NHAEBVerror_condition@2@@Z 000000018000a2c0 f i Canvas.obj
 0001:00009300       ?equivalent@error_category@std@@UEBA_NAEBVerror_code@2@H@Z 000000018000a300 f i Canvas.obj
 0001:00009320       ?make_error_code@std@@YA?AVerror_code@1@W4io_errc@1@@Z 000000018000a320 f i Canvas.obj
 0001:00009340       ??_Gfailure@ios_base@std@@UEAAPEAXI@Z 000000018000a340 f i Canvas.obj
 0001:00009340       ??_Esystem_error@std@@UEAAPEAXI@Z 000000018000a340 f i * CIL library *:* CIL module *
 0001:00009340       ??_E_System_error@std@@UEAAPEAXI@Z 000000018000a340 f i * CIL library *:* CIL module *
 0001:00009340       ??_G_System_error@std@@UEAAPEAXI@Z 000000018000a340 f i Canvas.obj
 0001:00009340       ??_Efailure@ios_base@std@@UEAAPEAXI@Z 000000018000a340 f i * CIL library *:* CIL module *
 0001:00009340       ??_Gsystem_error@std@@UEAAPEAXI@Z 000000018000a340 f i Canvas.obj
 0001:00009370       ??0system_error@std@@QEAA@Verror_code@1@PEBD@Z 000000018000a370 f i Canvas.obj
 0001:00009590       ?name@_Iostream_error_category2@std@@UEBAPEBDXZ 000000018000a590 f i Canvas.obj
 0001:000095a0       ?message@_Iostream_error_category2@std@@UEBA?AV?$basic_string@DU?$char_traits@D@std@@V?$allocator@D@2@@2@H@Z 000000018000a5a0 f i Canvas.obj
 0001:00009620       ??_G_Iostream_error_category2@std@@UEAAPEAXI@Z 000000018000a620 f i Canvas.obj
 0001:00009620       ??_E_Iostream_error_category2@std@@UEAAPEAXI@Z 000000018000a620 f i * CIL library *:* CIL module *
 0001:00009650       ??_E_Facet_base@std@@UEAAPEAXI@Z 000000018000a650 f i * CIL library *:* CIL module *
 0001:00009650       ??_G_Facet_base@std@@UEAAPEAXI@Z 000000018000a650 f i Canvas.obj
 0001:00009680       ?_Incref@facet@locale@std@@UEAAXXZ 000000018000a680 f i Canvas.obj
 0001:00009690       ?_Decref@facet@locale@std@@UEAAPEAV_Facet_base@3@XZ 000000018000a690 f i Canvas.obj
 0001:000096a0       ??1locale@std@@QEAA@XZ     000000018000a6a0 f i Canvas.obj
 0001:000096d0       ?_Getcat@?$ctype@D@std@@SA_KPEAPEBVfacet@locale@2@PEBV42@@Z 000000018000a6d0 f i Canvas.obj
 0001:00009860       ?do_tolower@?$ctype@D@std@@MEBADD@Z 000000018000a860 f i Canvas.obj
 0001:00009870       ?do_tolower@?$ctype@D@std@@MEBAPEBDPEADPEBD@Z 000000018000a870 f i Canvas.obj
 0001:000098c0       ?do_toupper@?$ctype@D@std@@MEBADD@Z 000000018000a8c0 f i Canvas.obj
 0001:000098d0       ?do_toupper@?$ctype@D@std@@MEBAPEBDPEADPEBD@Z 000000018000a8d0 f i Canvas.obj
 0001:00009920       ?do_widen@?$ctype@D@std@@MEBADD@Z 000000018000a920 f i Canvas.obj
 0001:00009920       ?do_narrow@?$ctype@D@std@@MEBADDD@Z 000000018000a920 f i Canvas.obj
 0001:00009930       ?do_widen@?$ctype@D@std@@MEBAPEBDPEBD0PEAD@Z 000000018000a930 f i Canvas.obj
 0001:00009950       ?do_narrow@?$ctype@D@std@@MEBAPEBDPEBD0DPEAD@Z 000000018000a950 f i Canvas.obj
 0001:00009970       ??_E?$ctype@D@std@@MEAAPEAXI@Z 000000018000a970 f i * CIL library *:* CIL module *
 0001:00009970       ??_G?$ctype@D@std@@MEAAPEAXI@Z 000000018000a970 f i Canvas.obj
 0001:000099e0       ??0failure@ios_base@std@@QEAA@PEBDAEBVerror_code@2@@Z 000000018000a9e0 f i Canvas.obj
 0001:00009a20       ??_Gios_base@std@@UEAAPEAXI@Z 000000018000aa20 f i Canvas.obj
 0001:00009a20       ??_Eios_base@std@@UEAAPEAXI@Z 000000018000aa20 f i * CIL library *:* CIL module *
 0001:00009a60       ?SetProtoAccessor@@YAXV?$Local@VObjectTemplate@v8@@@v8@@V?$Local@VString@v8@@@2@P6AX1AEBV?$PropertyCallbackInfo@VValue@v8@@@Nan@@@ZP6AX1V?$Local@VValue@v8@@@2@AEBV?$PropertyCallbackInfo@X@5@@ZV?$Local@VFunctionTemplate@v8@@@2@@Z 000000018000aa60 f i Canvas.obj
 0001:00009c20       ?empty_closure_output_buffer@@YAEPEAUjpeg_compress_struct@@@Z 000000018000ac20 f   Canvas.obj
 0001:00009eb0       ?term_closure_destination@@YAXPEAUjpeg_compress_struct@@@Z 000000018000aeb0 f   Canvas.obj
 0001:0000a200       ?encode_jpeg@@YAXUjpeg_compress_struct@@PEAU_cairo_surface@@H_NHH@Z 000000018000b200 f   Canvas.obj
 0001:0000a3f0       ?write_to_jpeg_buffer@@YAXPEAU_cairo_surface@@PEAUJpegClosure@@@Z 000000018000b3f0 f   Canvas.obj
 0001:0000a530       ?Initialize@Canvas@@SAXV?$Local@VObject@v8@@@v8@@@Z 000000018000b530 f   Canvas.obj
 0001:0000aea0       ?New@Canvas@@SAXAEBV?$FunctionCallbackInfo@VValue@v8@@@Nan@@@Z 000000018000bea0 f   Canvas.obj
 0001:0000b550       ?GetType@Canvas@@SAXV?$Local@VString@v8@@@v8@@AEBV?$PropertyCallbackInfo@VValue@v8@@@Nan@@@Z 000000018000c550 f   Canvas.obj
 0001:0000b5e0       ?GetStride@Canvas@@SAXV?$Local@VString@v8@@@v8@@AEBV?$PropertyCallbackInfo@VValue@v8@@@Nan@@@Z 000000018000c5e0 f   Canvas.obj
 0001:0000b670       ?GetWidth@Canvas@@SAXV?$Local@VString@v8@@@v8@@AEBV?$PropertyCallbackInfo@VValue@v8@@@Nan@@@Z 000000018000c670 f   Canvas.obj
 0001:0000b6f0       ?SetWidth@Canvas@@SAXV?$Local@VString@v8@@@v8@@V?$Local@VValue@v8@@@3@AEBV?$PropertyCallbackInfo@X@Nan@@@Z 000000018000c6f0 f   Canvas.obj
 0001:0000b7d0       ?GetHeight@Canvas@@SAXV?$Local@VString@v8@@@v8@@AEBV?$PropertyCallbackInfo@VValue@v8@@@Nan@@@Z 000000018000c7d0 f   Canvas.obj
 0001:0000b850       ?SetHeight@Canvas@@SAXV?$Local@VString@v8@@@v8@@V?$Local@VValue@v8@@@3@AEBV?$PropertyCallbackInfo@X@Nan@@@Z 000000018000c850 f   Canvas.obj
 0001:0000b930       ?ToPngBufferAsync@Canvas@@SAXPEAUuv_work_s@@@Z 000000018000c930 f   Canvas.obj
 0001:0000b9c0       ?ToJpegBufferAsync@Canvas@@SAXPEAUuv_work_s@@@Z 000000018000c9c0 f   Canvas.obj
 0001:0000ba00       ?ToBufferAsyncAfter@Canvas@@SAXPEAUuv_work_s@@@Z 000000018000ca00 f   Canvas.obj
 0001:0000cb30       ?ToBuffer@Canvas@@SAXAEBV?$FunctionCallbackInfo@VValue@v8@@@Nan@@@Z 000000018000db30 f   Canvas.obj
 0001:0000d860       ??1PngClosure@@QEAA@XZ     000000018000e860 f i Canvas.obj
 0001:0000d870       ??1TryCatch@Nan@@QEAA@XZ   000000018000e870 f i Canvas.obj
 0001:0000db10       ?StreamPNGSync@Canvas@@SAXAEBV?$FunctionCallbackInfo@VValue@v8@@@Nan@@@Z 000000018000eb10 f   Canvas.obj
 0001:0000e180       ?StreamPDFSync@Canvas@@SAXAEBV?$FunctionCallbackInfo@VValue@v8@@@Nan@@@Z 000000018000f180 f   Canvas.obj
 0001:0000e590       ?StreamJPEGSync@Canvas@@SAXAEBV?$FunctionCallbackInfo@VValue@v8@@@Nan@@@Z 000000018000f590 f   Canvas.obj
 0001:0000e910       ?RegisterFont@Canvas@@SAXAEBV?$FunctionCallbackInfo@VValue@v8@@@Nan@@@Z 000000018000f910 f   Canvas.obj
 0001:0000ef00       ??_ECanvas@@EEAAPEAXI@Z    000000018000ff00 f i * CIL library *:* CIL module *
 0001:0000ef00       ??_GCanvas@@EEAAPEAXI@Z    000000018000ff00 f i Canvas.obj
 0001:0000ef80       ?GetStyleFromCSSString@Canvas@@SA?AW4PangoStyle@@PEBD@Z 000000018000ff80 f   Canvas.obj
 0001:0000f010       ?GetWeightFromCSSString@Canvas@@SA?AW4PangoWeight@@PEBD@Z 0000000180010010 f   Canvas.obj
 0001:0000f220       ?ResolveFontDescription@Canvas@@SAPEAU_PangoFontDescription@@PEBU2@@Z 0000000180010220 f   Canvas.obj
 0001:0000fa90       ??_D?$basic_istringstream@DU?$char_traits@D@std@@V?$allocator@D@2@@std@@QEAAXXZ 0000000180010a90 f i Canvas.obj
 0001:0000fb30       ??1?$unordered_set@V?$basic_string@DU?$char_traits@D@std@@V?$allocator@D@2@@std@@U?$hash@V?$basic_string@DU?$char_traits@D@std@@V?$allocator@D@2@@std@@@2@U?$equal_to@V?$basic_string@DU?$char_traits@D@std@@V?$allocator@D@2@@std@@@2@V?$allocator@V?$basic_string@DU?$char_traits@D@std@@V?$allocator@D@2@@std@@@2@@std@@QEAA@XZ 0000000180010b30 f i Canvas.obj
 0001:0000fb40       ??1?$_Hash@V?$_Uset_traits@V?$basic_string@DU?$char_traits@D@std@@V?$allocator@D@2@@std@@V?$_Uhash_compare@V?$basic_string@DU?$char_traits@D@std@@V?$allocator@D@2@@std@@U?$hash@V?$basic_string@DU?$char_traits@D@std@@V?$allocator@D@2@@std@@@2@U?$equal_to@V?$basic_string@DU?$char_traits@D@std@@V?$allocator@D@2@@std@@@2@@2@V?$allocator@V?$basic_string@DU?$char_traits@D@std@@V?$allocator@D@2@@std@@@2@$0A@@std@@@std@@QEAA@XZ 0000000180010b40 f i Canvas.obj
 0001:0000fbb0       ?resurface@Canvas@@QEAAXV?$Local@VObject@v8@@@v8@@@Z 0000000180010bb0 f   Canvas.obj
 0001:0000fda0       ??1?$_Hash_vec@V?$allocator@V?$_List_unchecked_const_iterator@V?$_List_val@U?$_List_simple_types@V?$basic_string@DU?$char_traits@D@std@@V?$allocator@D@2@@std@@@std@@@std@@U_Iterator_base0@2@@std@@@std@@@std@@QEAA@XZ 0000000180010da0 f i Canvas.obj
 0001:0000fe00       ??1?$list@V?$basic_string@DU?$char_traits@D@std@@V?$allocator@D@2@@std@@V?$allocator@V?$basic_string@DU?$char_traits@D@std@@V?$allocator@D@2@@std@@@2@@std@@QEAA@XZ 0000000180010e00 f i Canvas.obj
 0001:0000fe30       ?seekpos@?$basic_stringbuf@DU?$char_traits@D@std@@V?$allocator@D@2@@std@@MEAA?AV?$fpos@U_Mbstatet@@@2@V32@H@Z 0000000180010e30 f i Canvas.obj
 0001:0000ff20       ?seekoff@?$basic_stringbuf@DU?$char_traits@D@std@@V?$allocator@D@2@@std@@MEAA?AV?$fpos@U_Mbstatet@@@2@_JHH@Z 0000000180010f20 f i Canvas.obj
 0001:00010080       ?underflow@?$basic_stringbuf@DU?$char_traits@D@std@@V?$allocator@D@2@@std@@MEAAHXZ 0000000180011080 f i Canvas.obj
 0001:000100f0       ?pbackfail@?$basic_stringbuf@DU?$char_traits@D@std@@V?$allocator@D@2@@std@@MEAAHH@Z 00000001800110f0 f i Canvas.obj
 0001:00010150       ?overflow@?$basic_stringbuf@DU?$char_traits@D@std@@V?$allocator@D@2@@std@@MEAAHH@Z 0000000180011150 f i Canvas.obj
 0001:00010360       ??1?$basic_stringbuf@DU?$char_traits@D@std@@V?$allocator@D@2@@std@@UEAA@XZ 0000000180011360 f i Canvas.obj
 0001:00010460       ?sync@?$basic_streambuf@DU?$char_traits@D@std@@@std@@MEAAHXZ 0000000180011460 f i Canvas.obj
 0001:00010460       ?showmanyc@?$basic_streambuf@DU?$char_traits@D@std@@@std@@MEAA_JXZ 0000000180011460 f i Canvas.obj
 0001:00010470       ?setbuf@?$basic_streambuf@DU?$char_traits@D@std@@@std@@MEAAPEAV12@PEAD_J@Z 0000000180011470 f i Canvas.obj
 0001:00010480       ?seekpos@?$basic_streambuf@DU?$char_traits@D@std@@@std@@MEAA?AV?$fpos@U_Mbstatet@@@2@V32@H@Z 0000000180011480 f i Canvas.obj
 0001:00010480       ?seekoff@?$basic_streambuf@DU?$char_traits@D@std@@@std@@MEAA?AV?$fpos@U_Mbstatet@@@2@_JHH@Z 0000000180011480 f i Canvas.obj
 0001:000104a0       ?xsputn@?$basic_streambuf@DU?$char_traits@D@std@@@std@@MEAA_JPEBD_J@Z 00000001800114a0 f i Canvas.obj
 0001:00010560       ?xsgetn@?$basic_streambuf@DU?$char_traits@D@std@@@std@@MEAA_JPEAD_J@Z 0000000180011560 f i Canvas.obj
 0001:00010610       ?uflow@?$basic_streambuf@DU?$char_traits@D@std@@@std@@MEAAHXZ 0000000180011610 f i Canvas.obj
 0001:00010650       ??1?$basic_streambuf@DU?$char_traits@D@std@@@std@@UEAA@XZ 0000000180011650 f i Canvas.obj
 0001:000106b0       ??0?$basic_istringstream@DU?$char_traits@D@std@@V?$allocator@D@2@@std@@QEAA@AEBV?$basic_string@DU?$char_traits@D@std@@V?$allocator@D@2@@1@H@Z 00000001800116b0 f i Canvas.obj
 0001:00010860       ??1?$basic_istream@DU?$char_traits@D@std@@@std@@UEAA@XZ 0000000180011860 f i Canvas.obj
 0001:00010890       ??1?$basic_ios@DU?$char_traits@D@std@@@std@@UEAA@XZ 0000000180011890 f i Canvas.obj
 0001:000108b0       ??1?$_Yarn@D@std@@QEAA@XZ  00000001800118b0 f i Canvas.obj
 0001:000108b0       ??1?$_Yarn@_W@std@@QEAA@XZ 00000001800118b0 f i Canvas.obj
 0001:000108e0       ??_G?$basic_stringbuf@DU?$char_traits@D@std@@V?$allocator@D@2@@std@@UEAAPEAXI@Z 00000001800118e0 f i Canvas.obj
 0001:000108e0       ??_E?$basic_stringbuf@DU?$char_traits@D@std@@V?$allocator@D@2@@std@@UEAAPEAXI@Z 00000001800118e0 f i * CIL library *:* CIL module *
 0001:00010920       ??_G?$basic_streambuf@DU?$char_traits@D@std@@@std@@UEAAPEAXI@Z 0000000180011920 f i Canvas.obj
 0001:00010920       ??_E?$basic_streambuf@DU?$char_traits@D@std@@@std@@UEAAPEAXI@Z 0000000180011920 f i * CIL library *:* CIL module *
 0001:000109a0       ??_E?$basic_istringstream@DU?$char_traits@D@std@@V?$allocator@D@2@@std@@UEAAPEAXI@Z 00000001800119a0 f i * CIL library *:* CIL module *
 0001:000109a0       ??_G?$basic_istringstream@DU?$char_traits@D@std@@V?$allocator@D@2@@std@@UEAAPEAXI@Z 00000001800119a0 f i Canvas.obj
 0001:000109e0       ??_G?$basic_istream@DU?$char_traits@D@std@@@std@@UEAAPEAXI@Z 00000001800119e0 f i Canvas.obj
 0001:000109e0       ??_E?$basic_istream@DU?$char_traits@D@std@@@std@@UEAAPEAXI@Z 00000001800119e0 f i * CIL library *:* CIL module *
 0001:00010a50       ??_G?$basic_ios@DU?$char_traits@D@std@@@std@@UEAAPEAXI@Z 0000000180011a50 f i Canvas.obj
 0001:00010a50       ??_E?$basic_ios@DU?$char_traits@D@std@@@std@@UEAAPEAXI@Z 0000000180011a50 f i * CIL library *:* CIL module *
 0001:00010a90       ?_Pnavail@?$basic_streambuf@DU?$char_traits@D@std@@@std@@IEBA_JXZ 0000000180011a90 f i Canvas.obj
 0001:00010ab0       ?_Gnavail@?$basic_streambuf@DU?$char_traits@D@std@@@std@@IEBA_JXZ 0000000180011ab0 f i Canvas.obj
 0001:00010ad0       ??0?$basic_istream@DU?$char_traits@D@std@@@std@@QEAA@PEAV?$basic_streambuf@DU?$char_traits@D@std@@@1@_N@Z 0000000180011ad0 f i Canvas.obj
 0001:00010c30       ?_Assign_grow@?$_Hash_vec@V?$allocator@V?$_List_unchecked_const_iterator@V?$_List_val@U?$_List_simple_types@V?$basic_string@DU?$char_traits@D@std@@V?$allocator@D@2@@std@@@std@@@std@@U_Iterator_base0@2@@std@@@std@@@std@@QEAAX_KV?$_List_unchecked_const_iterator@V?$_List_val@U?$_List_simple_types@V?$basic_string@DU?$char_traits@D@std@@V?$allocator@D@2@@std@@@std@@@std@@U_Iterator_base0@2@@2@@Z 0000000180011c30 f i Canvas.obj
 0001:00010d70       ??$New@VString@v8@@V?$basic_string@DU?$char_traits@D@std@@V?$allocator@D@2@@std@@@Nan@@YA?AV?$MaybeLocal@VString@v8@@@v8@@V?$basic_string@DU?$char_traits@D@std@@V?$allocator@D@2@@std@@@Z 0000000180011d70 f i Canvas.obj
 0001:00010e60       ??$use_facet@V?$ctype@D@std@@@std@@YAAEBV?$ctype@D@0@AEBVlocale@0@@Z 0000000180011e60 f i Canvas.obj
 0001:00010f70       ??$Unwrap@VContext2d@@@ObjectWrap@Nan@@SAPEAVContext2d@@V?$Local@VObject@v8@@@v8@@@Z 0000000180011f70 f i Canvas.obj
 0001:00010f70       ??$Unwrap@VCanvas@@@ObjectWrap@Nan@@SAPEAVCanvas@@V?$Local@VObject@v8@@@v8@@@Z 0000000180011f70 f i Canvas.obj
 0001:00010f70       ??$Unwrap@VPattern@@@ObjectWrap@Nan@@SAPEAVPattern@@V?$Local@VObject@v8@@@v8@@@Z 0000000180011f70 f i CanvasRenderingContext2d.obj
 0001:00010f70       ??$Unwrap@VImageData@@@ObjectWrap@Nan@@SAPEAVImageData@@V?$Local@VObject@v8@@@v8@@@Z 0000000180011f70 f i CanvasRenderingContext2d.obj
 0001:00010f70       ??$Unwrap@VImage@@@ObjectWrap@Nan@@SAPEAVImage@@V?$Local@VObject@v8@@@v8@@@Z 0000000180011f70 f i CanvasPattern.obj
 0001:00010f70       ??$Unwrap@VGradient@@@ObjectWrap@Nan@@SAPEAVGradient@@V?$Local@VObject@v8@@@v8@@@Z 0000000180011f70 f i CanvasGradient.obj
 0001:00011000       ??$emplace@V?$basic_string@DU?$char_traits@D@std@@V?$allocator@D@2@@std@@@?$_Hash@V?$_Uset_traits@V?$basic_string@DU?$char_traits@D@std@@V?$allocator@D@2@@std@@V?$_Uhash_compare@V?$basic_string@DU?$char_traits@D@std@@V?$allocator@D@2@@std@@U?$hash@V?$basic_string@DU?$char_traits@D@std@@V?$allocator@D@2@@std@@@2@U?$equal_to@V?$basic_string@DU?$char_traits@D@std@@V?$allocator@D@2@@std@@@2@@2@V?$allocator@V?$basic_string@DU?$char_traits@D@std@@V?$allocator@D@2@@std@@@2@$0A@@std@@@std@@QEAA?AU?$pair@V?$_List_const_iterator@V?$_List_val@U?$_List_simple_types@V?$basic_string@DU?$char_traits@D@std@@V?$allocator@D@2@@std@@@std@@@std@@@std@@_N@1@$$QEAV?$basic_string@DU?$char_traits@D@std@@V?$allocator@D@2@@1@@Z 0000000180012000 f i Canvas.obj
 0001:00011360       ??$_Emplace_reallocate@AEBVFontFace@@@?$vector@VFontFace@@V?$allocator@VFontFace@@@std@@@std@@QEAAPEAVFontFace@@QEAV2@AEBV2@@Z 0000000180012360 f i Canvas.obj
 0001:00011550       ??$_Free_non_head@V?$allocator@U?$_List_node@V?$basic_string@DU?$char_traits@D@std@@V?$allocator@D@2@@std@@PEAX@std@@@std@@@?$_List_node@V?$basic_string@DU?$char_traits@D@std@@V?$allocator@D@2@@std@@PEAX@std@@SAXAEAV?$allocator@U?$_List_node@V?$basic_string@DU?$char_traits@D@std@@V?$allocator@D@2@@std@@PEAX@std@@@1@PEAU01@@Z 0000000180012550 f i Canvas.obj
 0001:000115f0       ??1?$_List_node_emplace_op2@V?$allocator@U?$_List_node@V?$basic_string@DU?$char_traits@D@std@@V?$allocator@D@2@@std@@PEAX@std@@@std@@@std@@QEAA@XZ 00000001800125f0 f i Canvas.obj
 0001:00011680       ??1?$unique_ptr@V_Facet_base@std@@U?$default_delete@V_Facet_base@std@@@2@@std@@QEAA@XZ 0000000180012680 f i Canvas.obj
 0001:000116a0       ??1?$_Alloc_construct_ptr@V?$allocator@U?$_List_node@V?$basic_string@DU?$char_traits@D@std@@V?$allocator@D@2@@std@@PEAX@std@@@std@@@std@@QEAA@XZ 00000001800126a0 f i Canvas.obj
 0001:000116c0       ?_Forced_rehash@?$_Hash@V?$_Uset_traits@V?$basic_string@DU?$char_traits@D@std@@V?$allocator@D@2@@std@@V?$_Uhash_compare@V?$basic_string@DU?$char_traits@D@std@@V?$allocator@D@2@@std@@U?$hash@V?$basic_string@DU?$char_traits@D@std@@V?$allocator@D@2@@std@@@2@U?$equal_to@V?$basic_string@DU?$char_traits@D@std@@V?$allocator@D@2@@std@@@2@@2@V?$allocator@V?$basic_string@DU?$char_traits@D@std@@V?$allocator@D@2@@std@@@2@$0A@@std@@@std@@IEAAX_K@Z 00000001800126c0 f i Canvas.obj
 0001:00011940       ??$getline@DU?$char_traits@D@std@@V?$allocator@D@2@@std@@YAAEAV?$basic_istream@DU?$char_traits@D@std@@@0@$$QEAV10@AEAV?$basic_string@DU?$char_traits@D@std@@V?$allocator@D@2@@0@D@Z 0000000180012940 f i Canvas.obj
 0001:00011c70       ??1sentry@?$basic_istream@DU?$char_traits@D@std@@@std@@QEAA@XZ 0000000180012c70 f i Canvas.obj
 0001:00011ca0       ??1_Sentry_base@?$basic_ostream@DU?$char_traits@D@std@@@std@@QEAA@XZ 0000000180012ca0 f i Canvas.obj
 0001:00011ca0       ??1_Sentry_base@?$basic_istream@DU?$char_traits@D@std@@@std@@QEAA@XZ 0000000180012ca0 f i Canvas.obj
 0001:00011cd0       ?flush@?$basic_ostream@DU?$char_traits@D@std@@@std@@QEAAAEAV12@XZ 0000000180012cd0 f i Canvas.obj
 0001:00011e60       ??1sentry@?$basic_ostream@DU?$char_traits@D@std@@@std@@QEAA@XZ 0000000180012e60 f i Canvas.obj
 0001:00011f1c       ??_E?$basic_istream@DU?$char_traits@D@std@@@std@@$4PPPPPPPM@A@EAAPEAXI@Z 0000000180012f1c f i Canvas.obj
 0001:00011f28       ??_E?$basic_istringstream@DU?$char_traits@D@std@@V?$allocator@D@2@@std@@$4PPPPPPPM@A@EAAPEAXI@Z 0000000180012f28 f i Canvas.obj
 0001:00011f40       ?New@Gradient@@SAXAEBV?$FunctionCallbackInfo@VValue@v8@@@Nan@@@Z 0000000180012f40 f   CanvasGradient.obj
 0001:00012590       ?AddColorStop@Gradient@@SAXAEBV?$FunctionCallbackInfo@VValue@v8@@@Nan@@@Z 0000000180013590 f   CanvasGradient.obj
 0001:00012800       ??_EGradient@@EEAAPEAXI@Z  0000000180013800 f i * CIL library *:* CIL module *
 0001:00012800       ??_GGradient@@EEAAPEAXI@Z  0000000180013800 f i CanvasGradient.obj
 0001:00012880       ?Initialize@Pattern@@SAXV?$Local@VObject@v8@@@v8@@@Z 0000000180013880 f   CanvasPattern.obj
 0001:00012a90       ?New@Pattern@@SAXAEBV?$FunctionCallbackInfo@VValue@v8@@@Nan@@@Z 0000000180013a90 f   CanvasPattern.obj
 0001:00012e00       ??_GPattern@@EEAAPEAXI@Z   0000000180013e00 f i CanvasPattern.obj
 0001:00012e00       ??_EPattern@@EEAAPEAXI@Z   0000000180013e00 f i * CIL library *:* CIL module *
 0001:00012e80       ?_Throw_tree_length_error@std@@YAXXZ 0000000180013e80 f i CanvasRenderingContext2d.obj
 0001:00013000       ?Initialize@Context2d@@SAXV?$Local@VObject@v8@@@v8@@@Z 0000000180014000 f   CanvasRenderingContext2d.obj
 0001:00013f20       ??_EContext2d@@EEAAPEAXI@Z 0000000180014f20 f i * CIL library *:* CIL module *
 0001:00013f20       ??_GContext2d@@EEAAPEAXI@Z 0000000180014f20 f i CanvasRenderingContext2d.obj
 0001:00013ff0       ?resetState@Context2d@@QEAAX_N@Z 0000000180014ff0 f   CanvasRenderingContext2d.obj
 0001:00014170       ?_resetPersistentHandles@Context2d@@AEAAXXZ 0000000180015170 f   CanvasRenderingContext2d.obj
 0001:00014210       ?create_transparent_gradient@@YAPEAU_cairo_pattern@@PEAU1@M@Z 0000000180015210 f   CanvasRenderingContext2d.obj
 0001:000143a0       ?create_transparent_pattern@@YAPEAU_cairo_pattern@@PEAU1@M@Z 00000001800153a0 f   CanvasRenderingContext2d.obj
 0001:00014470       ?setFillRule@Context2d@@QEAAXV?$Local@VValue@v8@@@v8@@@Z 0000000180015470 f i CanvasRenderingContext2d.obj
 0001:00014540       ?fill@Context2d@@QEAAX_N@Z 0000000180015540 f   CanvasRenderingContext2d.obj
 0001:000147a0       ?stroke@Context2d@@QEAAX_N@Z 00000001800157a0 f   CanvasRenderingContext2d.obj
 0001:00014a00       ?shadow@Context2d@@QEAAXP6AXPEAU_cairo@@@Z@Z 0000000180015a00 f   CanvasRenderingContext2d.obj
 0001:00014f10       ?blur@Context2d@@QEAAXPEAU_cairo_surface@@H@Z 0000000180015f10 f   CanvasRenderingContext2d.obj
 0001:00015480       ?New@Context2d@@SAXAEBV?$FunctionCallbackInfo@VValue@v8@@@Nan@@@Z 0000000180016480 f   CanvasRenderingContext2d.obj
 0001:00015b10       ?SaveExternalModules@Context2d@@SAXAEBV?$FunctionCallbackInfo@VValue@v8@@@Nan@@@Z 0000000180016b10 f   CanvasRenderingContext2d.obj
 0001:00015c20       ?GetFormat@Context2d@@SAXV?$Local@VString@v8@@@v8@@AEBV?$PropertyCallbackInfo@VValue@v8@@@Nan@@@Z 0000000180016c20 f   CanvasRenderingContext2d.obj
 0001:00015e70       ?AddPage@Context2d@@SAXAEBV?$FunctionCallbackInfo@VValue@v8@@@Nan@@@Z 0000000180016e70 f   CanvasRenderingContext2d.obj
 0001:000160d0       ?PutImageData@Context2d@@SAXAEBV?$FunctionCallbackInfo@VValue@v8@@@Nan@@@Z 00000001800170d0 f   CanvasRenderingContext2d.obj
 0001:00016bc0       ?GetImageData@Context2d@@SAXAEBV?$FunctionCallbackInfo@VValue@v8@@@Nan@@@Z 0000000180017bc0 f   CanvasRenderingContext2d.obj
 0001:00017760       ?CreateImageData@Context2d@@SAXAEBV?$FunctionCallbackInfo@VValue@v8@@@Nan@@@Z 0000000180018760 f   CanvasRenderingContext2d.obj
 0001:00017de0       ?DrawImage@Context2d@@SAXAEBV?$FunctionCallbackInfo@VValue@v8@@@Nan@@@Z 0000000180018de0 f   CanvasRenderingContext2d.obj
 0001:00018740       ?GetGlobalAlpha@Context2d@@SAXV?$Local@VString@v8@@@v8@@AEBV?$PropertyCallbackInfo@VValue@v8@@@Nan@@@Z 0000000180019740 f   CanvasRenderingContext2d.obj
 0001:000187c0       ?SetGlobalAlpha@Context2d@@SAXV?$Local@VString@v8@@@v8@@V?$Local@VValue@v8@@@3@AEBV?$PropertyCallbackInfo@X@Nan@@@Z 00000001800197c0 f   CanvasRenderingContext2d.obj
 0001:00018890       ?GetGlobalCompositeOperation@Context2d@@SAXV?$Local@VString@v8@@@v8@@AEBV?$PropertyCallbackInfo@VValue@v8@@@Nan@@@Z 0000000180019890 f   CanvasRenderingContext2d.obj
 0001:00018ae0       ?SetPatternQuality@Context2d@@SAXV?$Local@VString@v8@@@v8@@V?$Local@VValue@v8@@@3@AEBV?$PropertyCallbackInfo@X@Nan@@@Z 0000000180019ae0 f   CanvasRenderingContext2d.obj
 0001:00018cb0       ?GetPatternQuality@Context2d@@SAXV?$Local@VString@v8@@@v8@@AEBV?$PropertyCallbackInfo@VValue@v8@@@Nan@@@Z 0000000180019cb0 f   CanvasRenderingContext2d.obj
 0001:00018d80       ?SetImageSmoothingEnabled@Context2d@@SAXV?$Local@VString@v8@@@v8@@V?$Local@VValue@v8@@@3@AEBV?$PropertyCallbackInfo@X@Nan@@@Z 0000000180019d80 f   CanvasRenderingContext2d.obj
 0001:00018e20       ?GetImageSmoothingEnabled@Context2d@@SAXV?$Local@VString@v8@@@v8@@AEBV?$PropertyCallbackInfo@VValue@v8@@@Nan@@@Z 0000000180019e20 f   CanvasRenderingContext2d.obj
 0001:00018ea0       ?SetGlobalCompositeOperation@Context2d@@SAXV?$Local@VString@v8@@@v8@@V?$Local@VValue@v8@@@3@AEBV?$PropertyCallbackInfo@X@Nan@@@Z 0000000180019ea0 f   CanvasRenderingContext2d.obj
 0001:000198e0       ??1?$_Tree@V?$_Tmap_traits@V?$basic_string@DU?$char_traits@D@std@@V?$allocator@D@2@@std@@IU?$less@V?$basic_string@DU?$char_traits@D@std@@V?$allocator@D@2@@std@@@2@V?$allocator@U?$pair@$$CBV?$basic_string@DU?$char_traits@D@std@@V?$allocator@D@2@@std@@I@std@@@2@$0A@@std@@@std@@QEAA@XZ 000000018001a8e0 f i color.obj
 0001:000198e0       ??1?$map@V?$basic_string@DU?$char_traits@D@std@@V?$allocator@D@2@@std@@W4_cairo_operator@@U?$less@V?$basic_string@DU?$char_traits@D@std@@V?$allocator@D@2@@std@@@2@V?$allocator@U?$pair@$$CBV?$basic_string@DU?$char_traits@D@std@@V?$allocator@D@2@@std@@W4_cairo_operator@@@std@@@2@@std@@QEAA@XZ 000000018001a8e0 f i CanvasRenderingContext2d.obj
 0001:000198e0       ??1?$_Tree@V?$_Tmap_traits@V?$basic_string@DU?$char_traits@D@std@@V?$allocator@D@2@@std@@HU?$less@V?$basic_string@DU?$char_traits@D@std@@V?$allocator@D@2@@std@@@2@V?$allocator@U?$pair@$$CBV?$basic_string@DU?$char_traits@D@std@@V?$allocator@D@2@@std@@H@std@@@2@$0A@@std@@@std@@QEAA@XZ 000000018001a8e0 f i CanvasRenderingContext2d.obj
 0001:000198e0       ??1?$_Tree@V?$_Tmap_traits@V?$basic_string@DU?$char_traits@D@std@@V?$allocator@D@2@@std@@W4_cairo_operator@@U?$less@V?$basic_string@DU?$char_traits@D@std@@V?$allocator@D@2@@std@@@2@V?$allocator@U?$pair@$$CBV?$basic_string@DU?$char_traits@D@std@@V?$allocator@D@2@@std@@W4_cairo_operator@@@std@@@2@$0A@@std@@@std@@QEAA@XZ 000000018001a8e0 f i CanvasRenderingContext2d.obj
 0001:000198e0       ??1?$map@V?$basic_string@DU?$char_traits@D@std@@V?$allocator@D@2@@std@@HU?$less@V?$basic_string@DU?$char_traits@D@std@@V?$allocator@D@2@@std@@@2@V?$allocator@U?$pair@$$CBV?$basic_string@DU?$char_traits@D@std@@V?$allocator@D@2@@std@@H@std@@@2@@std@@QEAA@XZ 000000018001a8e0 f i CanvasRenderingContext2d.obj
 0001:00019910       ?GetShadowOffsetX@Context2d@@SAXV?$Local@VString@v8@@@v8@@AEBV?$PropertyCallbackInfo@VValue@v8@@@Nan@@@Z 000000018001a910 f   CanvasRenderingContext2d.obj
 0001:00019990       ?SetShadowOffsetX@Context2d@@SAXV?$Local@VString@v8@@@v8@@V?$Local@VValue@v8@@@3@AEBV?$PropertyCallbackInfo@X@Nan@@@Z 000000018001a990 f   CanvasRenderingContext2d.obj
 0001:00019a50       ?GetShadowOffsetY@Context2d@@SAXV?$Local@VString@v8@@@v8@@AEBV?$PropertyCallbackInfo@VValue@v8@@@Nan@@@Z 000000018001aa50 f   CanvasRenderingContext2d.obj
 0001:00019ad0       ?SetShadowOffsetY@Context2d@@SAXV?$Local@VString@v8@@@v8@@V?$Local@VValue@v8@@@3@AEBV?$PropertyCallbackInfo@X@Nan@@@Z 000000018001aad0 f   CanvasRenderingContext2d.obj
 0001:00019b90       ?GetShadowBlur@Context2d@@SAXV?$Local@VString@v8@@@v8@@AEBV?$PropertyCallbackInfo@VValue@v8@@@Nan@@@Z 000000018001ab90 f   CanvasRenderingContext2d.obj
 0001:00019c10       ?SetShadowBlur@Context2d@@SAXV?$Local@VString@v8@@@v8@@V?$Local@VValue@v8@@@3@AEBV?$PropertyCallbackInfo@X@Nan@@@Z 000000018001ac10 f   CanvasRenderingContext2d.obj
 0001:00019cd0       ?GetAntiAlias@Context2d@@SAXV?$Local@VString@v8@@@v8@@AEBV?$PropertyCallbackInfo@VValue@v8@@@Nan@@@Z 000000018001acd0 f   CanvasRenderingContext2d.obj
 0001:00019da0       ?SetAntiAlias@Context2d@@SAXV?$Local@VString@v8@@@v8@@V?$Local@VValue@v8@@@3@AEBV?$PropertyCallbackInfo@X@Nan@@@Z 000000018001ada0 f   CanvasRenderingContext2d.obj
 0001:00019f40       ?GetTextDrawingMode@Context2d@@SAXV?$Local@VString@v8@@@v8@@AEBV?$PropertyCallbackInfo@VValue@v8@@@Nan@@@Z 000000018001af40 f   CanvasRenderingContext2d.obj
 0001:0001a000       ?SetTextDrawingMode@Context2d@@SAXV?$Local@VString@v8@@@v8@@V?$Local@VValue@v8@@@3@AEBV?$PropertyCallbackInfo@X@Nan@@@Z 000000018001b000 f   CanvasRenderingContext2d.obj
 0001:0001a160       ?GetQuality@Context2d@@SAXV?$Local@VString@v8@@@v8@@AEBV?$PropertyCallbackInfo@VValue@v8@@@Nan@@@Z 000000018001b160 f   CanvasRenderingContext2d.obj
 0001:0001a240       ?SetQuality@Context2d@@SAXV?$Local@VString@v8@@@v8@@V?$Local@VValue@v8@@@3@AEBV?$PropertyCallbackInfo@X@Nan@@@Z 000000018001b240 f   CanvasRenderingContext2d.obj
 0001:0001a3d0       ?GetCurrentTransform@Context2d@@SAXV?$Local@VString@v8@@@v8@@AEBV?$PropertyCallbackInfo@VValue@v8@@@Nan@@@Z 000000018001b3d0 f   CanvasRenderingContext2d.obj
 0001:0001a620       ?SetCurrentTransform@Context2d@@SAXV?$Local@VString@v8@@@v8@@V?$Local@VValue@v8@@@3@AEBV?$PropertyCallbackInfo@X@Nan@@@Z 000000018001b620 f   CanvasRenderingContext2d.obj
 0001:0001add0       ?GetFillStyle@Context2d@@SAXV?$Local@VString@v8@@@v8@@AEBV?$PropertyCallbackInfo@VValue@v8@@@Nan@@@Z 000000018001bdd0 f   CanvasRenderingContext2d.obj
 0001:0001aec0       ?SetFillStyle@Context2d@@SAXV?$Local@VString@v8@@@v8@@V?$Local@VValue@v8@@@3@AEBV?$PropertyCallbackInfo@X@Nan@@@Z 000000018001bec0 f   CanvasRenderingContext2d.obj
 0001:0001b210       ?GetStrokeStyle@Context2d@@SAXV?$Local@VString@v8@@@v8@@AEBV?$PropertyCallbackInfo@VValue@v8@@@Nan@@@Z 000000018001c210 f   CanvasRenderingContext2d.obj
 0001:0001b310       ?SetStrokeStyle@Context2d@@SAXV?$Local@VString@v8@@@v8@@V?$Local@VValue@v8@@@3@AEBV?$PropertyCallbackInfo@X@Nan@@@Z 000000018001c310 f   CanvasRenderingContext2d.obj
 0001:0001b660       ?GetMiterLimit@Context2d@@SAXV?$Local@VString@v8@@@v8@@AEBV?$PropertyCallbackInfo@VValue@v8@@@Nan@@@Z 000000018001c660 f   CanvasRenderingContext2d.obj
 0001:0001b6e0       ?SetMiterLimit@Context2d@@SAXV?$Local@VString@v8@@@v8@@V?$Local@VValue@v8@@@3@AEBV?$PropertyCallbackInfo@X@Nan@@@Z 000000018001c6e0 f   CanvasRenderingContext2d.obj
 0001:0001b7a0       ?GetLineWidth@Context2d@@SAXV?$Local@VString@v8@@@v8@@AEBV?$PropertyCallbackInfo@VValue@v8@@@Nan@@@Z 000000018001c7a0 f   CanvasRenderingContext2d.obj
 0001:0001b820       ?SetLineWidth@Context2d@@SAXV?$Local@VString@v8@@@v8@@V?$Local@VValue@v8@@@3@AEBV?$PropertyCallbackInfo@X@Nan@@@Z 000000018001c820 f   CanvasRenderingContext2d.obj
 0001:0001b8f0       ?GetLineJoin@Context2d@@SAXV?$Local@VString@v8@@@v8@@AEBV?$PropertyCallbackInfo@VValue@v8@@@Nan@@@Z 000000018001c8f0 f   CanvasRenderingContext2d.obj
 0001:0001b9b0       ?SetLineJoin@Context2d@@SAXV?$Local@VString@v8@@@v8@@V?$Local@VValue@v8@@@3@AEBV?$PropertyCallbackInfo@X@Nan@@@Z 000000018001c9b0 f   CanvasRenderingContext2d.obj
 0001:0001baf0       ?GetLineCap@Context2d@@SAXV?$Local@VString@v8@@@v8@@AEBV?$PropertyCallbackInfo@VValue@v8@@@Nan@@@Z 000000018001caf0 f   CanvasRenderingContext2d.obj
 0001:0001bbb0       ?SetLineCap@Context2d@@SAXV?$Local@VString@v8@@@v8@@V?$Local@VValue@v8@@@3@AEBV?$PropertyCallbackInfo@X@Nan@@@Z 000000018001cbb0 f   CanvasRenderingContext2d.obj
 0001:0001bcf0       ?IsPointInPath@Context2d@@SAXAEBV?$FunctionCallbackInfo@VValue@v8@@@Nan@@@Z 000000018001ccf0 f   CanvasRenderingContext2d.obj
 0001:0001bf40       ?SetShadowColor@Context2d@@SAXV?$Local@VString@v8@@@v8@@V?$Local@VValue@v8@@@3@AEBV?$PropertyCallbackInfo@X@Nan@@@Z 000000018001cf40 f   CanvasRenderingContext2d.obj
 0001:0001c0b0       ?GetShadowColor@Context2d@@SAXV?$Local@VString@v8@@@v8@@AEBV?$PropertyCallbackInfo@VValue@v8@@@Nan@@@Z 000000018001d0b0 f   CanvasRenderingContext2d.obj
 0001:0001c180       ?CreatePattern@Context2d@@SAXAEBV?$FunctionCallbackInfo@VValue@v8@@@Nan@@@Z 000000018001d180 f   CanvasRenderingContext2d.obj
 0001:0001c3b0       ?CreateLinearGradient@Context2d@@SAXAEBV?$FunctionCallbackInfo@VValue@v8@@@Nan@@@Z 000000018001d3b0 f   CanvasRenderingContext2d.obj
 0001:0001c5c0       ?CreateRadialGradient@Context2d@@SAXAEBV?$FunctionCallbackInfo@VValue@v8@@@Nan@@@Z 000000018001d5c0 f   CanvasRenderingContext2d.obj
 0001:0001c820       ?BezierCurveTo@Context2d@@SAXAEBV?$FunctionCallbackInfo@VValue@v8@@@Nan@@@Z 000000018001d820 f   CanvasRenderingContext2d.obj
 0001:0001c8b0       ?QuadraticCurveTo@Context2d@@SAXAEBV?$FunctionCallbackInfo@VValue@v8@@@Nan@@@Z 000000018001d8b0 f   CanvasRenderingContext2d.obj
 0001:0001ca10       ?Save@Context2d@@SAXAEBV?$FunctionCallbackInfo@VValue@v8@@@Nan@@@Z 000000018001da10 f   CanvasRenderingContext2d.obj
 0001:0001cb30       ?Restore@Context2d@@SAXAEBV?$FunctionCallbackInfo@VValue@v8@@@Nan@@@Z 000000018001db30 f   CanvasRenderingContext2d.obj
 0001:0001cbd0       ?BeginPath@Context2d@@SAXAEBV?$FunctionCallbackInfo@VValue@v8@@@Nan@@@Z 000000018001dbd0 f   CanvasRenderingContext2d.obj
 0001:0001cc00       ?ClosePath@Context2d@@SAXAEBV?$FunctionCallbackInfo@VValue@v8@@@Nan@@@Z 000000018001dc00 f   CanvasRenderingContext2d.obj
 0001:0001cc30       ?Rotate@Context2d@@SAXAEBV?$FunctionCallbackInfo@VValue@v8@@@Nan@@@Z 000000018001dc30 f   CanvasRenderingContext2d.obj
 0001:0001cc80       ?Transform@Context2d@@SAXAEBV?$FunctionCallbackInfo@VValue@v8@@@Nan@@@Z 000000018001dc80 f   CanvasRenderingContext2d.obj
 0001:0001cd30       ?ResetTransform@Context2d@@SAXAEBV?$FunctionCallbackInfo@VValue@v8@@@Nan@@@Z 000000018001dd30 f   CanvasRenderingContext2d.obj
 0001:0001cd60       ?SetTransform@Context2d@@SAXAEBV?$FunctionCallbackInfo@VValue@v8@@@Nan@@@Z 000000018001dd60 f   CanvasRenderingContext2d.obj
 0001:0001cda0       ?Translate@Context2d@@SAXAEBV?$FunctionCallbackInfo@VValue@v8@@@Nan@@@Z 000000018001dda0 f   CanvasRenderingContext2d.obj
 0001:0001ce00       ?Scale@Context2d@@SAXAEBV?$FunctionCallbackInfo@VValue@v8@@@Nan@@@Z 000000018001de00 f   CanvasRenderingContext2d.obj
 0001:0001ce60       ?Clip@Context2d@@SAXAEBV?$FunctionCallbackInfo@VValue@v8@@@Nan@@@Z 000000018001de60 f   CanvasRenderingContext2d.obj
 0001:0001cec0       ?Fill@Context2d@@SAXAEBV?$FunctionCallbackInfo@VValue@v8@@@Nan@@@Z 000000018001dec0 f   CanvasRenderingContext2d.obj
 0001:0001cf20       ?Stroke@Context2d@@SAXAEBV?$FunctionCallbackInfo@VValue@v8@@@Nan@@@Z 000000018001df20 f   CanvasRenderingContext2d.obj
 0001:0001cf50       ?paintText@@YAXAEBV?$FunctionCallbackInfo@VValue@v8@@@Nan@@_N@Z 000000018001df50 f   CanvasRenderingContext2d.obj
 0001:0001d240       ?FillText@Context2d@@SAXAEBV?$FunctionCallbackInfo@VValue@v8@@@Nan@@@Z 000000018001e240 f   CanvasRenderingContext2d.obj
 0001:0001d250       ?StrokeText@Context2d@@SAXAEBV?$FunctionCallbackInfo@VValue@v8@@@Nan@@@Z 000000018001e250 f   CanvasRenderingContext2d.obj
 0001:0001d260       ?getBaselineAdjustment@@YANPEAU_PangoLayout@@F@Z 000000018001e260 f i CanvasRenderingContext2d.obj
 0001:0001d310       ?setTextPath@Context2d@@QEAAXNN@Z 000000018001e310 f   CanvasRenderingContext2d.obj
 0001:0001d420       ?LineTo@Context2d@@SAXAEBV?$FunctionCallbackInfo@VValue@v8@@@Nan@@@Z 000000018001e420 f   CanvasRenderingContext2d.obj
 0001:0001d480       ?MoveTo@Context2d@@SAXAEBV?$FunctionCallbackInfo@VValue@v8@@@Nan@@@Z 000000018001e480 f   CanvasRenderingContext2d.obj
 0001:0001d4e0       ?GetFont@Context2d@@SAXV?$Local@VString@v8@@@v8@@AEBV?$PropertyCallbackInfo@VValue@v8@@@Nan@@@Z 000000018001e4e0 f   CanvasRenderingContext2d.obj
 0001:0001d590       ?SetFont@Context2d@@SAXV?$Local@VString@v8@@@v8@@V?$Local@VValue@v8@@@3@AEBV?$PropertyCallbackInfo@X@Nan@@@Z 000000018001e590 f   CanvasRenderingContext2d.obj
 0001:0001dcf0       ?GetTextBaseline@Context2d@@SAXV?$Local@VString@v8@@@v8@@AEBV?$PropertyCallbackInfo@VValue@v8@@@Nan@@@Z 000000018001ecf0 f   CanvasRenderingContext2d.obj
 0001:0001dda0       ?SetTextBaseline@Context2d@@SAXV?$Local@VString@v8@@@v8@@V?$Local@VValue@v8@@@3@AEBV?$PropertyCallbackInfo@X@Nan@@@Z 000000018001eda0 f   CanvasRenderingContext2d.obj
 0001:0001e1e0       ?GetTextAlign@Context2d@@SAXV?$Local@VString@v8@@@v8@@AEBV?$PropertyCallbackInfo@VValue@v8@@@Nan@@@Z 000000018001f1e0 f   CanvasRenderingContext2d.obj
 0001:0001e290       ?SetTextAlign@Context2d@@SAXV?$Local@VString@v8@@@v8@@V?$Local@VValue@v8@@@3@AEBV?$PropertyCallbackInfo@X@Nan@@@Z 000000018001f290 f   CanvasRenderingContext2d.obj
 0001:0001e6b0       ?MeasureText@Context2d@@SAXAEBV?$FunctionCallbackInfo@VValue@v8@@@Nan@@@Z 000000018001f6b0 f   CanvasRenderingContext2d.obj
 0001:0001ef60       ?SetLineDash@Context2d@@SAXAEBV?$FunctionCallbackInfo@VValue@v8@@@Nan@@@Z 000000018001ff60 f   CanvasRenderingContext2d.obj
 0001:0001f280       ?GetLineDash@Context2d@@SAXAEBV?$FunctionCallbackInfo@VValue@v8@@@Nan@@@Z 0000000180020280 f   CanvasRenderingContext2d.obj
 0001:0001f520       ?SetLineDashOffset@Context2d@@SAXV?$Local@VString@v8@@@v8@@V?$Local@VValue@v8@@@3@AEBV?$PropertyCallbackInfo@X@Nan@@@Z 0000000180020520 f   CanvasRenderingContext2d.obj
 0001:0001f6e0       ?GetLineDashOffset@Context2d@@SAXV?$Local@VString@v8@@@v8@@AEBV?$PropertyCallbackInfo@VValue@v8@@@Nan@@@Z 00000001800206e0 f   CanvasRenderingContext2d.obj
 0001:0001f770       ?FillRect@Context2d@@SAXAEBV?$FunctionCallbackInfo@VValue@v8@@@Nan@@@Z 0000000180020770 f   CanvasRenderingContext2d.obj
 0001:0001f890       ?StrokeRect@Context2d@@SAXAEBV?$FunctionCallbackInfo@VValue@v8@@@Nan@@@Z 0000000180020890 f   CanvasRenderingContext2d.obj
 0001:0001f9a0       ?ClearRect@Context2d@@SAXAEBV?$FunctionCallbackInfo@VValue@v8@@@Nan@@@Z 00000001800209a0 f   CanvasRenderingContext2d.obj
 0001:0001fae0       ?Rect@Context2d@@SAXAEBV?$FunctionCallbackInfo@VValue@v8@@@Nan@@@Z 0000000180020ae0 f   CanvasRenderingContext2d.obj
 0001:0001fbf0       ?Arc@Context2d@@SAXAEBV?$FunctionCallbackInfo@VValue@v8@@@Nan@@@Z 0000000180020bf0 f   CanvasRenderingContext2d.obj
 0001:00020350       ?ArcTo@Context2d@@SAXAEBV?$FunctionCallbackInfo@VValue@v8@@@Nan@@@Z 0000000180021350 f   CanvasRenderingContext2d.obj
 0001:00020910       ?Ellipse@Context2d@@SAXAEBV?$FunctionCallbackInfo@VValue@v8@@@Nan@@@Z 0000000180021910 f   CanvasRenderingContext2d.obj
 0001:00020b50       ??0?$map@V?$basic_string@DU?$char_traits@D@std@@V?$allocator@D@2@@std@@HU?$less@V?$basic_string@DU?$char_traits@D@std@@V?$allocator@D@2@@std@@@2@V?$allocator@U?$pair@$$CBV?$basic_string@DU?$char_traits@D@std@@V?$allocator@D@2@@std@@H@std@@@2@@std@@QEAA@V?$initializer_list@U?$pair@$$CBV?$basic_string@DU?$char_traits@D@std@@V?$allocator@D@2@@std@@H@std@@@1@@Z 0000000180021b50 f i CanvasRenderingContext2d.obj
 0001:00020ca0       ??1?$vector@NV?$allocator@N@std@@@std@@QEAA@XZ 0000000180021ca0 f i CanvasRenderingContext2d.obj
 0001:00020d00       ??$_Erase_tree@V?$allocator@U?$_Tree_node@U?$pair@$$CBV?$basic_string@DU?$char_traits@D@std@@V?$allocator@D@2@@std@@W4_cairo_operator@@@std@@PEAX@std@@@std@@@?$_Tree_val@U?$_Tree_simple_types@U?$pair@$$CBV?$basic_string@DU?$char_traits@D@std@@V?$allocator@D@2@@std@@W4_cairo_operator@@@std@@@std@@@std@@QEAAXAEAV?$allocator@U?$_Tree_node@U?$pair@$$CBV?$basic_string@DU?$char_traits@D@std@@V?$allocator@D@2@@std@@W4_cairo_operator@@@std@@PEAX@std@@@1@PEAU?$_Tree_node@U?$pair@$$CBV?$basic_string@DU?$char_traits@D@std@@V?$allocator@D@2@@std@@W4_cairo_operator@@@std@@PEAX@1@@Z 0000000180021d00 f i CanvasRenderingContext2d.obj
 0001:00020d00       ??$_Erase_tree@V?$allocator@U?$_Tree_node@U?$pair@$$CBV?$basic_string@DU?$char_traits@D@std@@V?$allocator@D@2@@std@@I@std@@PEAX@std@@@std@@@?$_Tree_val@U?$_Tree_simple_types@U?$pair@$$CBV?$basic_string@DU?$char_traits@D@std@@V?$allocator@D@2@@std@@I@std@@@std@@@std@@QEAAXAEAV?$allocator@U?$_Tree_node@U?$pair@$$CBV?$basic_string@DU?$char_traits@D@std@@V?$allocator@D@2@@std@@I@std@@PEAX@std@@@1@PEAU?$_Tree_node@U?$pair@$$CBV?$basic_string@DU?$char_traits@D@std@@V?$allocator@D@2@@std@@I@std@@PEAX@1@@Z 0000000180021d00 f i color.obj
 0001:00020d00       ??$_Erase_tree@V?$allocator@U?$_Tree_node@U?$pair@$$CBV?$basic_string@DU?$char_traits@D@std@@V?$allocator@D@2@@std@@H@std@@PEAX@std@@@std@@@?$_Tree_val@U?$_Tree_simple_types@U?$pair@$$CBV?$basic_string@DU?$char_traits@D@std@@V?$allocator@D@2@@std@@H@std@@@std@@@std@@QEAAXAEAV?$allocator@U?$_Tree_node@U?$pair@$$CBV?$basic_string@DU?$char_traits@D@std@@V?$allocator@D@2@@std@@H@std@@PEAX@std@@@1@PEAU?$_Tree_node@U?$pair@$$CBV?$basic_string@DU?$char_traits@D@std@@V?$allocator@D@2@@std@@H@std@@PEAX@1@@Z 0000000180021d00 f i CanvasRenderingContext2d.obj
 0001:00020dc0       ?_Insert_node@?$_Tree_val@U?$_Tree_simple_types@U?$pair@$$CBV?$basic_string@DU?$char_traits@D@std@@V?$allocator@D@2@@std@@W4_cairo_operator@@@std@@@std@@@std@@QEAAPEAU?$_Tree_node@U?$pair@$$CBV?$basic_string@DU?$char_traits@D@std@@V?$allocator@D@2@@std@@W4_cairo_operator@@@std@@PEAX@2@U?$_Tree_id@PEAU?$_Tree_node@U?$pair@$$CBV?$basic_string@DU?$char_traits@D@std@@V?$allocator@D@2@@std@@W4_cairo_operator@@@std@@PEAX@std@@@2@QEAU32@@Z 0000000180021dc0 f i CanvasRenderingContext2d.obj
 0001:00020dc0       ?_Insert_node@?$_Tree_val@U?$_Tree_simple_types@U?$pair@$$CBV?$basic_string@DU?$char_traits@D@std@@V?$allocator@D@2@@std@@H@std@@@std@@@std@@QEAAPEAU?$_Tree_node@U?$pair@$$CBV?$basic_string@DU?$char_traits@D@std@@V?$allocator@D@2@@std@@H@std@@PEAX@2@U?$_Tree_id@PEAU?$_Tree_node@U?$pair@$$CBV?$basic_string@DU?$char_traits@D@std@@V?$allocator@D@2@@std@@H@std@@PEAX@std@@@2@QEAU32@@Z 0000000180021dc0 f i CanvasRenderingContext2d.obj
 0001:00020dc0       ?_Insert_node@?$_Tree_val@U?$_Tree_simple_types@U?$pair@$$CBV?$basic_string@DU?$char_traits@D@std@@V?$allocator@D@2@@std@@I@std@@@std@@@std@@QEAAPEAU?$_Tree_node@U?$pair@$$CBV?$basic_string@DU?$char_traits@D@std@@V?$allocator@D@2@@std@@I@std@@PEAX@2@U?$_Tree_id@PEAU?$_Tree_node@U?$pair@$$CBV?$basic_string@DU?$char_traits@D@std@@V?$allocator@D@2@@std@@I@std@@PEAX@std@@@2@QEAU32@@Z 0000000180021dc0 f i color.obj
 0001:00021040       ??1?$_Alloc_construct_ptr@V?$allocator@U?$_Tree_node@U?$pair@$$CBV?$basic_string@DU?$char_traits@D@std@@V?$allocator@D@2@@std@@H@std@@PEAX@std@@@std@@@std@@QEAA@XZ 0000000180022040 f i CanvasRenderingContext2d.obj
 0001:00021040       ??1?$_Alloc_construct_ptr@V?$allocator@U?$_Tree_node@U?$pair@$$CBV?$basic_string@DU?$char_traits@D@std@@V?$allocator@D@2@@std@@W4_cairo_operator@@@std@@PEAX@std@@@std@@@std@@QEAA@XZ 0000000180022040 f i CanvasRenderingContext2d.obj
 0001:00021040       ??1?$_Tree_temp_node_alloc@V?$allocator@U?$_Tree_node@U?$pair@$$CBV?$basic_string@DU?$char_traits@D@std@@V?$allocator@D@2@@std@@W4_cairo_operator@@@std@@PEAX@std@@@std@@@std@@QEAA@XZ 0000000180022040 f i CanvasRenderingContext2d.obj
 0001:00021040       ??1?$_Tree_temp_node_alloc@V?$allocator@U?$_Tree_node@U?$pair@$$CBV?$basic_string@DU?$char_traits@D@std@@V?$allocator@D@2@@std@@H@std@@PEAX@std@@@std@@@std@@QEAA@XZ 0000000180022040 f i CanvasRenderingContext2d.obj
 0001:00021040       ??1?$_Alloc_construct_ptr@V?$allocator@U?$_Tree_node@U?$pair@$$CBV?$basic_string@DU?$char_traits@D@std@@V?$allocator@D@2@@std@@I@std@@PEAX@std@@@std@@@std@@QEAA@XZ 0000000180022040 f i color.obj
 0001:00021040       ??1?$_Tree_temp_node_alloc@V?$allocator@U?$_Tree_node@U?$pair@$$CBV?$basic_string@DU?$char_traits@D@std@@V?$allocator@D@2@@std@@I@std@@PEAX@std@@@std@@@std@@QEAA@XZ 0000000180022040 f i color.obj
 0001:00021060       ??$_Find_hint@V?$basic_string@DU?$char_traits@D@std@@V?$allocator@D@2@@std@@@?$_Tree@V?$_Tmap_traits@V?$basic_string@DU?$char_traits@D@std@@V?$allocator@D@2@@std@@W4_cairo_operator@@U?$less@V?$basic_string@DU?$char_traits@D@std@@V?$allocator@D@2@@std@@@2@V?$allocator@U?$pair@$$CBV?$basic_string@DU?$char_traits@D@std@@V?$allocator@D@2@@std@@W4_cairo_operator@@@std@@@2@$0A@@std@@@std@@IEBA?AU?$_Tree_find_hint_result@PEAU?$_Tree_node@U?$pair@$$CBV?$basic_string@DU?$char_traits@D@std@@V?$allocator@D@2@@std@@W4_cairo_operator@@@std@@PEAX@std@@@1@QEAU?$_Tree_node@U?$pair@$$CBV?$basic_string@DU?$char_traits@D@std@@V?$allocator@D@2@@std@@W4_cairo_operator@@@std@@PEAX@1@AEBV?$basic_string@DU?$char_traits@D@std@@V?$allocator@D@2@@1@@Z 0000000180022060 f i CanvasRenderingContext2d.obj
 0001:00021060       ??$_Find_hint@V?$basic_string@DU?$char_traits@D@std@@V?$allocator@D@2@@std@@@?$_Tree@V?$_Tmap_traits@V?$basic_string@DU?$char_traits@D@std@@V?$allocator@D@2@@std@@HU?$less@V?$basic_string@DU?$char_traits@D@std@@V?$allocator@D@2@@std@@@2@V?$allocator@U?$pair@$$CBV?$basic_string@DU?$char_traits@D@std@@V?$allocator@D@2@@std@@H@std@@@2@$0A@@std@@@std@@IEBA?AU?$_Tree_find_hint_result@PEAU?$_Tree_node@U?$pair@$$CBV?$basic_string@DU?$char_traits@D@std@@V?$allocator@D@2@@std@@H@std@@PEAX@std@@@1@QEAU?$_Tree_node@U?$pair@$$CBV?$basic_string@DU?$char_traits@D@std@@V?$allocator@D@2@@std@@H@std@@PEAX@1@AEBV?$basic_string@DU?$char_traits@D@std@@V?$allocator@D@2@@1@@Z 0000000180022060 f i CanvasRenderingContext2d.obj
 0001:000214a0       ?init_destination@JpegClosure@@SAXPEAUjpeg_compress_struct@@@Z 00000001800224a0 f   closure.obj
 0001:000214e0       ?empty_output_buffer@JpegClosure@@SAEPEAUjpeg_compress_struct@@@Z 00000001800224e0 f   closure.obj
 0001:00021590       ?term_destination@JpegClosure@@SAXPEAUjpeg_compress_struct@@@Z 0000000180022590 f   closure.obj
 0001:000215b0       ?resize@?$vector@EV?$allocator@E@std@@@std@@QEAAX_K@Z 00000001800225b0 f i closure.obj
 0001:00021700       __local_stdio_printf_options 0000000180022700 f i color.obj
 0001:00021710       snprintf                   0000000180022710 f i color.obj
 0001:00021800       ?rgba_to_string@@YAXUrgba_t@@PEAD_K@Z 0000000180022800 f   color.obj
 0001:00022670       ?rgba_from_string@@YAHPEBDPEAF@Z 0000000180023670 f   color.obj
 0001:000228d0       ??0?$map@V?$basic_string@DU?$char_traits@D@std@@V?$allocator@D@2@@std@@IU?$less@V?$basic_string@DU?$char_traits@D@std@@V?$allocator@D@2@@std@@@2@V?$allocator@U?$pair@$$CBV?$basic_string@DU?$char_traits@D@std@@V?$allocator@D@2@@std@@I@std@@@2@@std@@QEAA@V?$initializer_list@U?$pair@$$CBV?$basic_string@DU?$char_traits@D@std@@V?$allocator@D@2@@std@@I@std@@@1@@Z 00000001800238d0 f i color.obj
 0001:00022c30       ??$?0AEAY0N@$$CBDI$0A@@?$pair@$$CBV?$basic_string@DU?$char_traits@D@std@@V?$allocator@D@2@@std@@I@std@@QEAA@AEAY0N@$$CBD$$QEAI@Z 0000000180023c30 f i color.obj
 0001:00022c30       ??$?0AEAY0M@$$CBDH$0A@@?$pair@$$CBV?$basic_string@DU?$char_traits@D@std@@V?$allocator@D@2@@std@@I@std@@QEAA@AEAY0M@$$CBD$$QEAH@Z 0000000180023c30 f i color.obj
 0001:00022c30       ??$?0AEAY0BA@$$CBDH$0A@@?$pair@$$CBV?$basic_string@DU?$char_traits@D@std@@V?$allocator@D@2@@std@@I@std@@QEAA@AEAY0BA@$$CBD$$QEAH@Z 0000000180023c30 f i color.obj
 0001:00022c30       ??$?0AEAY03$$CBDI$0A@@?$pair@$$CBV?$basic_string@DU?$char_traits@D@std@@V?$allocator@D@2@@std@@I@std@@QEAA@AEAY03$$CBD$$QEAI@Z 0000000180023c30 f i color.obj
 0001:00022c30       ??$?0AEAY04$$CBDH$0A@@?$pair@$$CBV?$basic_string@DU?$char_traits@D@std@@V?$allocator@D@2@@std@@I@std@@QEAA@AEAY04$$CBD$$QEAH@Z 0000000180023c30 f i color.obj
 0001:00022c30       ??$?0AEAY0O@$$CBDI$0A@@?$pair@$$CBV?$basic_string@DU?$char_traits@D@std@@V?$allocator@D@2@@std@@I@std@@QEAA@AEAY0O@$$CBD$$QEAI@Z 0000000180023c30 f i color.obj
 0001:00022c30       ??$?0AEAY0M@$$CBDI$0A@@?$pair@$$CBV?$basic_string@DU?$char_traits@D@std@@V?$allocator@D@2@@std@@I@std@@QEAA@AEAY0M@$$CBD$$QEAI@Z 0000000180023c30 f i color.obj
 0001:00022c30       ??$?0AEAY09$$CBDI$0A@@?$pair@$$CBV?$basic_string@DU?$char_traits@D@std@@V?$allocator@D@2@@std@@I@std@@QEAA@AEAY09$$CBD$$QEAI@Z 0000000180023c30 f i color.obj
 0001:00022c30       ??$?0AEAY0L@$$CBDH$0A@@?$pair@$$CBV?$basic_string@DU?$char_traits@D@std@@V?$allocator@D@2@@std@@I@std@@QEAA@AEAY0L@$$CBD$$QEAH@Z 0000000180023c30 f i color.obj
 0001:00022c30       ??$?0AEAY08$$CBDH$0A@@?$pair@$$CBV?$basic_string@DU?$char_traits@D@std@@V?$allocator@D@2@@std@@I@std@@QEAA@AEAY08$$CBD$$QEAH@Z 0000000180023c30 f i color.obj
 0001:00022c30       ??$?0AEAY0P@$$CBDH$0A@@?$pair@$$CBV?$basic_string@DU?$char_traits@D@std@@V?$allocator@D@2@@std@@I@std@@QEAA@AEAY0P@$$CBD$$QEAH@Z 0000000180023c30 f i color.obj
 0001:00022c30       ??$?0AEAY04$$CBDI$0A@@?$pair@$$CBV?$basic_string@DU?$char_traits@D@std@@V?$allocator@D@2@@std@@I@std@@QEAA@AEAY04$$CBD$$QEAI@Z 0000000180023c30 f i color.obj
 0001:00022c30       ??$?0AEAY09$$CBDH$0A@@?$pair@$$CBV?$basic_string@DU?$char_traits@D@std@@V?$allocator@D@2@@std@@I@std@@QEAA@AEAY09$$CBD$$QEAH@Z 0000000180023c30 f i color.obj
 0001:00022c30       ??$?0AEAY05$$CBDI$0A@@?$pair@$$CBV?$basic_string@DU?$char_traits@D@std@@V?$allocator@D@2@@std@@I@std@@QEAA@AEAY05$$CBD$$QEAI@Z 0000000180023c30 f i color.obj
 0001:00022c30       ??$?0AEAY0O@$$CBDH$0A@@?$pair@$$CBV?$basic_string@DU?$char_traits@D@std@@V?$allocator@D@2@@std@@I@std@@QEAA@AEAY0O@$$CBD$$QEAH@Z 0000000180023c30 f i color.obj
 0001:00022c30       ??$?0AEAY07$$CBDI$0A@@?$pair@$$CBV?$basic_string@DU?$char_traits@D@std@@V?$allocator@D@2@@std@@I@std@@QEAA@AEAY07$$CBD$$QEAI@Z 0000000180023c30 f i color.obj
 0001:00022c30       ??$?0AEAY0L@$$CBDI$0A@@?$pair@$$CBV?$basic_string@DU?$char_traits@D@std@@V?$allocator@D@2@@std@@I@std@@QEAA@AEAY0L@$$CBD$$QEAI@Z 0000000180023c30 f i color.obj
 0001:00022c30       ??$?0AEAY06$$CBDI$0A@@?$pair@$$CBV?$basic_string@DU?$char_traits@D@std@@V?$allocator@D@2@@std@@I@std@@QEAA@AEAY06$$CBD$$QEAI@Z 0000000180023c30 f i color.obj
 0001:00022c30       ??$?0AEAY08$$CBDI$0A@@?$pair@$$CBV?$basic_string@DU?$char_traits@D@std@@V?$allocator@D@2@@std@@I@std@@QEAA@AEAY08$$CBD$$QEAI@Z 0000000180023c30 f i color.obj
 0001:00022c90       ??$?0AEAY0BB@$$CBDH$0A@@?$pair@$$CBV?$basic_string@DU?$char_traits@D@std@@V?$allocator@D@2@@std@@I@std@@QEAA@AEAY0BB@$$CBD$$QEAH@Z 0000000180023c90 f i color.obj
 0001:00022ce0       ??$?0AEAY0BC@$$CBDH$0A@@?$pair@$$CBV?$basic_string@DU?$char_traits@D@std@@V?$allocator@D@2@@std@@I@std@@QEAA@AEAY0BC@$$CBD$$QEAH@Z 0000000180023ce0 f i color.obj
 0001:00022d30       ??$?0AEAY0BA@$$CBDI$0A@@?$pair@$$CBV?$basic_string@DU?$char_traits@D@std@@V?$allocator@D@2@@std@@I@std@@QEAA@AEAY0BA@$$CBD$$QEAI@Z 0000000180023d30 f i color.obj
 0001:00022d80       ??$?0AEAY0N@$$CBDH$0A@@?$pair@$$CBV?$basic_string@DU?$char_traits@D@std@@V?$allocator@D@2@@std@@I@std@@QEAA@AEAY0N@$$CBD$$QEAH@Z 0000000180023d80 f i color.obj
 0001:00022dd0       ??$_Find_hint@V?$basic_string@DU?$char_traits@D@std@@V?$allocator@D@2@@std@@@?$_Tree@V?$_Tmap_traits@V?$basic_string@DU?$char_traits@D@std@@V?$allocator@D@2@@std@@IU?$less@V?$basic_string@DU?$char_traits@D@std@@V?$allocator@D@2@@std@@@2@V?$allocator@U?$pair@$$CBV?$basic_string@DU?$char_traits@D@std@@V?$allocator@D@2@@std@@I@std@@@2@$0A@@std@@@std@@IEBA?AU?$_Tree_find_hint_result@PEAU?$_Tree_node@U?$pair@$$CBV?$basic_string@DU?$char_traits@D@std@@V?$allocator@D@2@@std@@I@std@@PEAX@std@@@1@QEAU?$_Tree_node@U?$pair@$$CBV?$basic_string@DU?$char_traits@D@std@@V?$allocator@D@2@@std@@I@std@@PEAX@1@AEBV?$basic_string@DU?$char_traits@D@std@@V?$allocator@D@2@@1@@Z 0000000180023dd0 f i color.obj
 0001:00023220       ?Export@Nan@@YAXV?$Local@VObject@v8@@@v8@@PEBDP6AXAEBV?$FunctionCallbackInfo@VValue@v8@@@1@@Z@Z 0000000180024220 f i Image.obj
 0001:00023380       ?Initialize@Image@@SAXV?$Local@VObject@v8@@@v8@@@Z 0000000180024380 f   Image.obj
 0001:00023840       ?New@Image@@SAXAEBV?$FunctionCallbackInfo@VValue@v8@@@Nan@@@Z 0000000180024840 f   Image.obj
 0001:00023ad0       ?GetComplete@Image@@SAXV?$Local@VString@v8@@@v8@@AEBV?$PropertyCallbackInfo@VValue@v8@@@Nan@@@Z 0000000180024ad0 f   Image.obj
 0001:00023b10       ?GetDataMode@Image@@SAXV?$Local@VString@v8@@@v8@@AEBV?$PropertyCallbackInfo@VValue@v8@@@Nan@@@Z 0000000180024b10 f   Image.obj
 0001:00023b90       ?SetDataMode@Image@@SAXV?$Local@VString@v8@@@v8@@V?$Local@VValue@v8@@@3@AEBV?$PropertyCallbackInfo@X@Nan@@@Z 0000000180024b90 f   Image.obj
 0001:00023c40       ?GetNaturalWidth@Image@@SAXV?$Local@VString@v8@@@v8@@AEBV?$PropertyCallbackInfo@VValue@v8@@@Nan@@@Z 0000000180024c40 f   Image.obj
 0001:00023cc0       ?GetWidth@Image@@SAXV?$Local@VString@v8@@@v8@@AEBV?$PropertyCallbackInfo@VValue@v8@@@Nan@@@Z 0000000180024cc0 f   Image.obj
 0001:00023d40       ?SetWidth@Image@@SAXV?$Local@VString@v8@@@v8@@V?$Local@VValue@v8@@@3@AEBV?$PropertyCallbackInfo@X@Nan@@@Z 0000000180024d40 f   Image.obj
 0001:00023df0       ?GetNaturalHeight@Image@@SAXV?$Local@VString@v8@@@v8@@AEBV?$PropertyCallbackInfo@VValue@v8@@@Nan@@@Z 0000000180024df0 f   Image.obj
 0001:00023e70       ?GetHeight@Image@@SAXV?$Local@VString@v8@@@v8@@AEBV?$PropertyCallbackInfo@VValue@v8@@@Nan@@@Z 0000000180024e70 f   Image.obj
 0001:00023ef0       ?SetHeight@Image@@SAXV?$Local@VString@v8@@@v8@@V?$Local@VValue@v8@@@3@AEBV?$PropertyCallbackInfo@X@Nan@@@Z 0000000180024ef0 f   Image.obj
 0001:00023fa0       ?GetSource@Image@@SAXAEBV?$FunctionCallbackInfo@VValue@v8@@@Nan@@@Z 0000000180024fa0 f   Image.obj
 0001:00024090       ?clearData@Image@@QEAAXXZ  0000000180025090 f   Image.obj
 0001:00024120       ?SetSource@Image@@SAXAEBV?$FunctionCallbackInfo@VValue@v8@@@Nan@@@Z 0000000180025120 f   Image.obj
 0001:000247b0       ??1CanvasError@@QEAA@XZ    00000001800257b0 f i Image.obj
 0001:000248b0       ?loadFromBuffer@Image@@QEAA?AW4_cairo_status@@PEAEI@Z 00000001800258b0 f   Image.obj
 0001:00024ab0       ?readPNG@Image@@SA?AW4_cairo_status@@PEAXPEAEI@Z 0000000180025ab0 f   Image.obj
 0001:00024af0       ??_GImage@@EEAAPEAXI@Z     0000000180025af0 f i Image.obj
 0001:00024af0       ??_EImage@@EEAAPEAXI@Z     0000000180025af0 f i * CIL library *:* CIL module *
 0001:00024b70       ?surface@Image@@QEAAPEAU_cairo_surface@@XZ 0000000180025b70 f   Image.obj
 0001:00024c70       ?loadSurface@Image@@QEAA?AW4_cairo_status@@XZ 0000000180025c70 f   Image.obj
 0001:000250a0       ?read_gif_from_memory@@YAHPEAUGifFileType@@PEAEH@Z 00000001800260a0 f   Image.obj
 0001:000250f0       ?loadGIFFromBuffer@Image@@QEAA?AW4_cairo_status@@PEAEI@Z 00000001800260f0 f   Image.obj
 0001:00025680       ?jpegToARGB@Image@@QEAAXPEAUjpeg_decompress_struct@@PEAE1V?$function@$$A6AIPEAE@Z@std@@@Z 0000000180026680 f   Image.obj
 0001:00025770       ??1?$function@$$A6AIPEAE@Z@std@@QEAA@XZ 0000000180026770 f i Image.obj
 0001:000257a0       ?decodeJPEGIntoSurface@Image@@QEAA?AW4_cairo_status@@PEAUjpeg_decompress_struct@@@Z 00000001800267a0 f   Image.obj
 0001:00025980       ?decodeJPEGBufferIntoMimeSurface@Image@@QEAA?AW4_cairo_status@@PEAEI@Z 0000000180026980 f   Image.obj
 0001:00025b30       ?clearMimeData@@YAXPEAX@Z  0000000180026b30 f   Image.obj
 0001:00025b60       ?assignDataAsMime@Image@@QEAA?AW4_cairo_status@@PEAEHPEBD@Z 0000000180026b60 f   Image.obj
 0001:00025c60       ?loadJPEGFromBuffer@Image@@QEAA?AW4_cairo_status@@PEAEI@Z 0000000180026c60 f   Image.obj
 0001:00025d60       ?loadJPEG@Image@@QEAA?AW4_cairo_status@@PEAU_iobuf@@@Z 0000000180026d60 f   Image.obj
 0001:00025e80       ?loadSVGFromBuffer@Image@@QEAA?AW4_cairo_status@@PEAEI@Z 0000000180026e80 f   Image.obj
 0001:00025f40       ?renderSVGToSurface@Image@@QEAA?AW4_cairo_status@@XZ 0000000180026f40 f   Image.obj
 0001:00026070       ?loadBMPFromBuffer@Image@@QEAA?AW4_cairo_status@@PEAEI@Z 0000000180027070 f   Image.obj
 0001:00026350       ?isSVG@Image@@SAHPEAEI@Z   0000000180027350 f   Image.obj
 0001:000263d0       ?isBMP@Image@@SAHPEAEI@Z   00000001800273d0 f   Image.obj
 0001:00026720       ?ThrowRangeError@Nan@@YAXPEBD@Z 0000000180027720 f i ImageData.obj
 0001:000267b0       ??_GImageData@@UEAAPEAXI@Z 00000001800277b0 f i ImageData.obj
 0001:000267b0       ??_EImageData@@UEAAPEAXI@Z 00000001800277b0 f i * CIL library *:* CIL module *
 0001:00026810       ?Initialize@ImageData@@SAXV?$Local@VObject@v8@@@v8@@@Z 0000000180027810 f   ImageData.obj
 0001:00026a80       ?New@ImageData@@SAXAEBV?$FunctionCallbackInfo@VValue@v8@@@Nan@@@Z 0000000180027a80 f   ImageData.obj
 0001:00027140       ?GetWidth@ImageData@@SAXV?$Local@VString@v8@@@v8@@AEBV?$PropertyCallbackInfo@VValue@v8@@@Nan@@@Z 0000000180028140 f   ImageData.obj
 0001:000271c0       ?GetHeight@ImageData@@SAXV?$Local@VString@v8@@@v8@@AEBV?$PropertyCallbackInfo@VValue@v8@@@Nan@@@Z 00000001800281c0 f   ImageData.obj
 0001:00027240       ?init@@YAXV?$Local@VObject@v8@@@v8@@@Z 0000000180028240 f   init.obj
 0001:00027970       ?_name_def_compare@@YAHPEBX0@Z 0000000180028970 f   register_font.obj
 0001:00027990       ?_free_g_list_item@@YAXPEAX0@Z 0000000180028990 f   register_font.obj
 0001:000279a0       ?get_family_name@@YAPEADPEAUFT_FaceRec_@@@Z 00000001800289a0 f   register_font.obj
 0001:00027bc0       ?get_pango_font_description@@YAPEAU_PangoFontDescription@@PEAE@Z 0000000180028bc0 f   register_font.obj
 0001:00027e14       __imp_load_?GetCurrentContext@Isolate@v8@@QEAA?AV?$Local@VContext@v8@@@2@XZ 0000000180028e14 f   node:node.exe
 0001:00027e20       __tailMerge_node_exe       0000000180028e20     node:node.exe
 0001:00027e99       __imp_load_?GetCurrent@Isolate@v8@@SAPEAV12@XZ 0000000180028e99 f   node:node.exe
 0001:00027ea5       __imp_load_??1HandleScope@v8@@QEAA@XZ 0000000180028ea5 f   node:node.exe
 0001:00027eb1       ??1HandleScope@v8@@QEAA@XZ 0000000180028eb1 f   node:node.exe
 0001:00027eb7       __imp_load_??0HandleScope@v8@@QEAA@PEAVIsolate@1@@Z 0000000180028eb7 f   node:node.exe
 0001:00027ec3       __imp_load_?ClearWeak@V8@v8@@CAPEAXPEAPEAVObject@internal@2@@Z 0000000180028ec3 f   node:node.exe
 0001:00027ecf       __imp_load_?MakeWeak@V8@v8@@CAXPEAPEAVObject@internal@2@PEAXP6AXAEBV?$WeakCallbackInfo@X@2@@ZW4WeakCallbackType@2@@Z 0000000180028ecf f   node:node.exe
 0001:00027edb       __imp_load_?DisposeGlobal@V8@v8@@CAXPEAPEAVObject@internal@2@@Z 0000000180028edb f   node:node.exe
 0001:00027ee7       __imp_load_?GlobalizeReference@V8@v8@@CAPEAPEAVObject@internal@2@PEAVIsolate@42@PEAPEAV342@@Z 0000000180028ee7 f   node:node.exe
 0001:00027ef3       __imp_load_?Uint32Value@Value@v8@@QEBA?AV?$Maybe@I@2@V?$Local@VContext@v8@@@2@@Z 0000000180028ef3 f   node:node.exe
 0001:00027eff       __imp_load_?IsNumber@Value@v8@@QEBA_NXZ 0000000180028eff f   node:node.exe
 0001:00027f0b       __imp_load_?SetAlignedPointerInInternalField@Object@v8@@QEAAXHPEAX@Z 0000000180028f0b f   node:node.exe
 0001:00027f17       __imp_load_?InternalFieldCount@Object@v8@@QEAAHXZ 0000000180028f17 f   node:node.exe
 0001:00027f23       __imp_load_?Value@External@v8@@QEBAPEAXXZ 0000000180028f23 f   node:node.exe
 0001:00027f2f       __imp_load_?New@External@v8@@SA?AV?$Local@VExternal@v8@@@2@PEAVIsolate@2@PEAX@Z 0000000180028f2f f   node:node.exe
 0001:00027f3b       __imp_load_?CheckMemoryPressure@Isolate@v8@@AEAAXXZ 0000000180028f3b f   node:node.exe
 0001:00027f47       __imp_load_?ReportExternalAllocationLimitReached@Isolate@v8@@AEAAXXZ 0000000180028f47 f   node:node.exe
 0001:00027f53       __imp_load_?CreateHandle@HandleScope@v8@@KAPEAPEAVObject@internal@2@PEAVIsolate@42@PEAV342@@Z 0000000180028f53 f   node:node.exe
 0001:00027f5f       __imp_load_?CreateHandle@HandleScope@v8@@CAPEAPEAVObject@internal@2@PEAVHeapObject@42@PEAV342@@Z 0000000180028f5f f   node:node.exe
 0001:00027f6b       __imp_load_?SetClassName@FunctionTemplate@v8@@QEAAXV?$Local@VString@v8@@@2@@Z 0000000180028f6b f   node:node.exe
 0001:00027f77       __imp_load_?InstanceTemplate@FunctionTemplate@v8@@QEAA?AV?$Local@VObjectTemplate@v8@@@2@XZ 0000000180028f77 f   node:node.exe
 0001:00027f83       __imp_load_?GetFunction@FunctionTemplate@v8@@QEAA?AV?$MaybeLocal@VFunction@v8@@@2@V?$Local@VContext@v8@@@2@@Z 0000000180028f83 f   node:node.exe
 0001:00027f8f       __imp_load_?New@FunctionTemplate@v8@@SA?AV?$Local@VFunctionTemplate@v8@@@2@PEAVIsolate@2@P6AXAEBV?$FunctionCallbackInfo@VValue@v8@@@2@@ZV?$Local@VValue@v8@@@2@V?$Local@VSignature@v8@@@2@HW4ConstructorBehavior@2@W4SideEffectType@2@@Z 0000000180028f8f f   node:node.exe
 0001:00027f9b       __imp_load_?ToLocalEmpty@V8@v8@@CAXXZ 0000000180028f9b f   node:node.exe
 0001:00027fa7       __imp_load_?Escape@EscapableHandleScope@v8@@AEAAPEAPEAVObject@internal@2@PEAPEAV342@@Z 0000000180028fa7 f   node:node.exe
 0001:00027fb3       __imp_load_??0EscapableHandleScope@v8@@QEAA@PEAVIsolate@1@@Z 0000000180028fb3 f   node:node.exe
 0001:00027fbf       __imp_load_?NewFromUtf8@String@v8@@SA?AV?$MaybeLocal@VString@v8@@@2@PEAVIsolate@2@PEBDW4NewStringType@2@H@Z 0000000180028fbf f   node:node.exe
 0001:00027fcb       __imp_load_?SlowGetInternalField@Object@v8@@AEAA?AV?$Local@VValue@v8@@@2@H@Z 0000000180028fcb f   node:node.exe
 0001:00027fd7       __imp_load_?SetInternalField@Object@v8@@QEAAXHV?$Local@VValue@v8@@@2@@Z 0000000180028fd7 f   node:node.exe
 0001:00027fe3       __imp_load_?Set@Object@v8@@QEAA?AV?$Maybe@_N@2@V?$Local@VContext@v8@@@2@V?$Local@VValue@v8@@@2@1@Z 0000000180028fe3 f   node:node.exe
 0001:00027fef       __imp_load_?SetInternalFieldCount@ObjectTemplate@v8@@QEAAXH@Z 0000000180028fef f   node:node.exe
 0001:00027ffb       __imp_load_?NewInstance@ObjectTemplate@v8@@QEAA?AV?$MaybeLocal@VObject@v8@@@2@V?$Local@VContext@v8@@@2@@Z 0000000180028ffb f   node:node.exe
 0001:00028007       __imp_load_?New@ObjectTemplate@v8@@SA?AV?$Local@VObjectTemplate@v8@@@2@PEAVIsolate@2@V?$Local@VFunctionTemplate@v8@@@2@@Z 0000000180029007 f   node:node.exe
 0001:00028013       __imp_load_??1EscapableHandleScope@v8@@QEAA@XZ 0000000180029013 f   node:node.exe
 0001:0002801f       ??1EscapableHandleScope@v8@@QEAA@XZ 000000018002901f f   node:node.exe
 0001:00028025       __imp_load_?New@Object@v8@@SA?AV?$Local@VObject@v8@@@2@PEAVIsolate@2@@Z 0000000180029025 f   node:node.exe
 0001:00028031       __imp_load_uv_queue_work   0000000180029031 f   node:node.exe
 0001:0002803d       __imp_load_?GetIsolate@Context@v8@@QEAAPEAVIsolate@2@XZ 000000018002903d f   node:node.exe
 0001:00028049       __imp_load_?Global@Context@v8@@QEAA?AV?$Local@VObject@v8@@@2@XZ 0000000180029049 f   node:node.exe
 0001:00028055       __imp_load_?NewFromUnsigned@Integer@v8@@SA?AV?$Local@VInteger@v8@@@2@PEAVIsolate@2@I@Z 0000000180029055 f   node:node.exe
 0001:00028061       __imp_load_?New@Signature@v8@@SA?AV?$Local@VSignature@v8@@@2@PEAVIsolate@2@V?$Local@VFunctionTemplate@v8@@@2@@Z 0000000180029061 f   node:node.exe
 0001:0002806d       __imp_load_?ThrowException@Isolate@v8@@QEAA?AV?$Local@VValue@v8@@@2@V32@@Z 000000018002906d f   node:node.exe
 0001:00028079       __imp_load_?Length@TypedArray@v8@@QEAA_KXZ 0000000180029079 f   node:node.exe
 0001:00028085       __imp_load_?Set@Template@v8@@QEAAXV?$Local@VName@v8@@@2@V?$Local@VData@v8@@@2@W4PropertyAttribute@2@@Z 0000000180029085 f   node:node.exe
 0001:00028091       __imp_load_?ByteLength@ArrayBufferView@v8@@QEAA_KXZ 0000000180029091 f   node:node.exe
 0001:0002809d       __imp_load_?ByteOffset@ArrayBufferView@v8@@QEAA_KXZ 000000018002909d f   node:node.exe
 0001:000280a9       __imp_load_?Buffer@ArrayBufferView@v8@@QEAA?AV?$Local@VArrayBuffer@v8@@@2@XZ 00000001800290a9 f   node:node.exe
 0001:000280b5       __imp_load_?Error@Exception@v8@@SA?AV?$Local@VValue@v8@@@2@V?$Local@VString@v8@@@2@@Z 00000001800290b5 f   node:node.exe
 0001:000280c1       __imp_load_?TypeError@Exception@v8@@SA?AV?$Local@VValue@v8@@@2@V?$Local@VString@v8@@@2@@Z 00000001800290c1 f   node:node.exe
 0001:000280cd       __imp_load_?New@AccessorSignature@v8@@SA?AV?$Local@VAccessorSignature@v8@@@2@PEAVIsolate@2@V?$Local@VFunctionTemplate@v8@@@2@@Z 00000001800290cd f   node:node.exe
 0001:000280d9       __imp_load_?ValueOf@Date@v8@@QEBANXZ 00000001800290d9 f   node:node.exe
 0001:000280e5       __imp_load_?HasInstance@FunctionTemplate@v8@@QEAA_NV?$Local@VValue@v8@@@2@@Z 00000001800290e5 f   node:node.exe
 0001:000280f1       __imp_load_?PrototypeTemplate@FunctionTemplate@v8@@QEAA?AV?$Local@VObjectTemplate@v8@@@2@XZ 00000001800290f1 f   node:node.exe
 0001:000280fd       __imp_load_?GetContents@ArrayBuffer@v8@@QEAA?AVContents@12@XZ 00000001800290fd f   node:node.exe
 0001:00028109       __imp_load_?StrictEquals@Value@v8@@QEBA_NV?$Local@VValue@v8@@@2@@Z 0000000180029109 f   node:node.exe
 0001:00028115       __imp_load_?NumberValue@Value@v8@@QEBA?AV?$Maybe@N@2@V?$Local@VContext@v8@@@2@@Z 0000000180029115 f   node:node.exe
 0001:00028121       __imp_load_?BooleanValue@Value@v8@@QEBA?AV?$Maybe@_N@2@V?$Local@VContext@v8@@@2@@Z 0000000180029121 f   node:node.exe
 0001:0002812d       __imp_load_?ToUint32@Value@v8@@QEBA?AV?$MaybeLocal@VUint32@v8@@@2@V?$Local@VContext@v8@@@2@@Z 000000018002912d f   node:node.exe
 0001:00028139       __imp_load_?ToObject@Value@v8@@QEBA?AV?$MaybeLocal@VObject@v8@@@2@V?$Local@VContext@v8@@@2@@Z 0000000180029139 f   node:node.exe
 0001:00028145       __imp_load_?ToString@Value@v8@@QEBA?AV?$MaybeLocal@VString@v8@@@2@V?$Local@VContext@v8@@@2@@Z 0000000180029145 f   node:node.exe
 0001:00028151       __imp_load_?IsUint8ClampedArray@Value@v8@@QEBA_NXZ 0000000180029151 f   node:node.exe
 0001:0002815d       __imp_load_?IsArrayBufferView@Value@v8@@QEBA_NXZ 000000018002915d f   node:node.exe
 0001:00028169       __imp_load_?IsDate@Value@v8@@QEBA_NXZ 0000000180029169 f   node:node.exe
 0001:00028175       __imp_load_?IsUint32@Value@v8@@QEBA_NXZ 0000000180029175 f   node:node.exe
 0001:00028181       __imp_load_?IsBoolean@Value@v8@@QEBA_NXZ 0000000180029181 f   node:node.exe
 0001:0002818d       __imp_load_?IsObject@Value@v8@@QEBA_NXZ 000000018002918d f   node:node.exe
 0001:00028199       __imp_load_?IsFunction@Value@v8@@QEBA_NXZ 0000000180029199 f   node:node.exe
 0001:000281a5       __imp_load_?ReThrow@TryCatch@v8@@QEAA?AV?$Local@VValue@v8@@@2@XZ 00000001800291a5 f   node:node.exe
 0001:000281b1       __imp_load_?HasCaught@TryCatch@v8@@QEBA_NXZ 00000001800291b1 f   node:node.exe
 0001:000281bd       __imp_load_??1TryCatch@v8@@QEAA@XZ 00000001800291bd f   node:node.exe
 0001:000281c9       __imp_load_??0TryCatch@v8@@QEAA@PEAVIsolate@1@@Z 00000001800291c9 f   node:node.exe
 0001:000281d5       __imp_load_?WriteUtf8@String@v8@@QEBAHPEADHPEAHH@Z 00000001800291d5 f   node:node.exe
 0001:000281e1       __imp_load_?Length@String@v8@@QEBAHXZ 00000001800291e1 f   node:node.exe
 0001:000281ed       __imp_load_?New@Number@v8@@SA?AV?$Local@VNumber@v8@@@2@PEAVIsolate@2@N@Z 00000001800291ed f   node:node.exe
 0001:000281f9       __imp_load_?SlowGetAlignedPointerFromInternalField@Object@v8@@AEAAPEAXH@Z 00000001800291f9 f   node:node.exe
 0001:00028205       __imp_load_?Get@Object@v8@@QEAA?AV?$MaybeLocal@VValue@v8@@@2@V?$Local@VContext@v8@@@2@V?$Local@VValue@v8@@@2@@Z 0000000180029205 f   node:node.exe
 0001:00028211       __imp_load_?Call@Function@v8@@QEAA?AV?$MaybeLocal@VValue@v8@@@2@V?$Local@VContext@v8@@@2@V?$Local@VValue@v8@@@2@HQEAV52@@Z 0000000180029211 f   node:node.exe
 0001:0002821d       __imp_load_?SetAccessor@ObjectTemplate@v8@@QEAAXV?$Local@VName@v8@@@2@P6AX0AEBV?$PropertyCallbackInfo@VValue@v8@@@2@@ZP6AX0V?$Local@VValue@v8@@@2@AEBV?$PropertyCallbackInfo@X@2@@Z3W4AccessControl@2@W4PropertyAttribute@2@V?$Local@VAccessorSignature@v8@@@2@@Z 000000018002921d f   node:node.exe
 0001:00028229       __imp_load_?EmitAsyncDestroy@node@@YAXPEAVIsolate@v8@@Uasync_context@1@@Z 0000000180029229 f   node:node.exe
 0001:00028235       __imp_load_?New@Buffer@node@@YA?AV?$MaybeLocal@VObject@v8@@@v8@@PEAVIsolate@4@PEAD_KP6AX1PEAX@Z3@Z 0000000180029235 f   node:node.exe
 0001:00028241       __imp_load_?New@Buffer@node@@YA?AV?$MaybeLocal@VObject@v8@@@v8@@PEAVIsolate@4@PEAD_K@Z 0000000180029241 f   node:node.exe
 0001:0002824d       __imp_load_?Copy@Buffer@node@@YA?AV?$MaybeLocal@VObject@v8@@@v8@@PEAVIsolate@4@PEBD_K@Z 000000018002924d f   node:node.exe
 0001:00028259       __imp_load_?MakeCallback@node@@YA?AV?$MaybeLocal@VValue@v8@@@v8@@PEAVIsolate@3@V?$Local@VObject@v8@@@3@V?$Local@VFunction@v8@@@3@HPEAV?$Local@VValue@v8@@@3@Uasync_context@1@@Z 0000000180029259 f   node:node.exe
 0001:00028265       __imp_load_?EmitAsyncInit@node@@YA?AUasync_context@1@PEAVIsolate@v8@@V?$Local@VObject@v8@@@4@V?$Local@VString@v8@@@4@N@Z 0000000180029265 f   node:node.exe
 0001:00028271       __imp_load_uv_default_loop 0000000180029271 f   node:node.exe
 0001:0002827d       __imp_load_?New@Uint8ClampedArray@v8@@SA?AV?$Local@VUint8ClampedArray@v8@@@2@V?$Local@VArrayBuffer@v8@@@2@_K1@Z 000000018002927d f   node:node.exe
 0001:00028289       __imp_load_?New@Integer@v8@@SA?AV?$Local@VInteger@v8@@@2@PEAVIsolate@2@H@Z 0000000180029289 f   node:node.exe
 0001:00028295       __imp_load_?New@Array@v8@@SA?AV?$Local@VArray@v8@@@2@PEAVIsolate@2@H@Z 0000000180029295 f   node:node.exe
 0001:000282a1       __imp_load_?Length@Array@v8@@QEBAIXZ 00000001800292a1 f   node:node.exe
 0001:000282ad       __imp_load_?New@ArrayBuffer@v8@@SA?AV?$Local@VArrayBuffer@v8@@@2@PEAVIsolate@2@_K@Z 00000001800292ad f   node:node.exe
 0001:000282b9       __imp_load_?FromJustIsNothing@V8@v8@@CAXXZ 00000001800292b9 f   node:node.exe
 0001:000282c5       __imp_load_?InstanceOf@Value@v8@@QEAA?AV?$Maybe@_N@2@V?$Local@VContext@v8@@@2@V?$Local@VObject@v8@@@2@@Z 00000001800292c5 f   node:node.exe
 0001:000282d1       __imp_load_?Int32Value@Value@v8@@QEBA?AV?$Maybe@H@2@V?$Local@VContext@v8@@@2@@Z 00000001800292d1 f   node:node.exe
 0001:000282dd       __imp_load_?ToInt32@Value@v8@@QEBA?AV?$MaybeLocal@VInt32@v8@@@2@V?$Local@VContext@v8@@@2@@Z 00000001800292dd f   node:node.exe
 0001:000282e9       __imp_load_?IsArray@Value@v8@@QEBA_NXZ 00000001800292e9 f   node:node.exe
 0001:000282f5       __imp_load_?New@Float64Array@v8@@SA?AV?$Local@VFloat64Array@v8@@@2@V?$Local@VArrayBuffer@v8@@@2@_K1@Z 00000001800292f5 f   node:node.exe
 0001:00028301       __imp_load_?New@Uint16Array@v8@@SA?AV?$Local@VUint16Array@v8@@@2@V?$Local@VArrayBuffer@v8@@@2@_K1@Z 0000000180029301 f   node:node.exe
 0001:0002830d       __imp_load_?Get@Object@v8@@QEAA?AV?$MaybeLocal@VValue@v8@@@2@V?$Local@VContext@v8@@@2@I@Z 000000018002930d f   node:node.exe
 0001:00028319       __imp_load_?NewInstance@Function@v8@@QEBA?AV?$MaybeLocal@VObject@v8@@@2@V?$Local@VContext@v8@@@2@HQEAV?$Local@VValue@v8@@@2@@Z 0000000180029319 f   node:node.exe
 0001:00028325       __imp_load_?New@Function@v8@@SA?AV?$MaybeLocal@VFunction@v8@@@2@V?$Local@VContext@v8@@@2@P6AXAEBV?$FunctionCallbackInfo@VValue@v8@@@2@@ZV?$Local@VValue@v8@@@2@HW4ConstructorBehavior@2@W4SideEffectType@2@@Z 0000000180029325 f   node:node.exe
 0001:00028331       __imp_load_?HasInstance@Buffer@node@@YA_NV?$Local@VValue@v8@@@v8@@@Z 0000000180029331 f   node:node.exe
 0001:0002833d       __imp_load_?Data@Buffer@node@@YAPEADV?$Local@VObject@v8@@@v8@@@Z 000000018002933d f   node:node.exe
 0001:00028349       __imp_load_?Length@Buffer@node@@YA_KV?$Local@VObject@v8@@@v8@@@Z 0000000180029349 f   node:node.exe
 0001:00028355       __imp_load_?ErrnoException@node@@YA?AV?$Local@VValue@v8@@@v8@@PEAVIsolate@3@HPEBD11@Z 0000000180029355 f   node:node.exe
 0001:00028361       __imp_load_?RangeError@Exception@v8@@SA?AV?$Local@VValue@v8@@@2@V?$Local@VString@v8@@@2@@Z 0000000180029361 f   node:node.exe
 0001:0002836d       __imp_load_?IsUint16Array@Value@v8@@QEBA_NXZ 000000018002936d f   node:node.exe
 0001:00028379       __imp_load_node_module_register 0000000180029379 f   node:node.exe
 0001:00028388       ??0bad_alloc@std@@QEAA@AEBV01@@Z 0000000180029388 f i libcpmt:xthrow.obj
 0001:000283c4       ??0bad_alloc@std@@QEAA@XZ  00000001800293c4 f i libcpmt:xthrow.obj
 0001:000283e4       ??0bad_function_call@std@@QEAA@AEBV01@@Z 00000001800293e4 f i libcpmt:xthrow.obj
 0001:00028420       ??0bad_function_call@std@@QEAA@XZ 0000000180029420 f i libcpmt:xthrow.obj
 0001:00028438       ??0exception@std@@QEAA@AEBV01@@Z 0000000180029438 f i libcpmt:xthrow.obj
 0001:0002846c       ??0length_error@std@@QEAA@AEBV01@@Z 000000018002946c f i libcpmt:xthrow.obj
 0001:000284a8       ??0length_error@std@@QEAA@PEBD@Z 00000001800294a8 f i libcpmt:xthrow.obj
 0001:000284f0       ??0logic_error@std@@QEAA@AEBV01@@Z 00000001800294f0 f i libcpmt:xthrow.obj
 0001:0002852c       ??0runtime_error@std@@QEAA@AEBV01@@Z 000000018002952c f i libcpmt:xthrow.obj
 0001:00028568       ??0runtime_error@std@@QEAA@PEBD@Z 0000000180029568 f i libcpmt:xthrow.obj
 0001:000285b0       ??1length_error@std@@UEAA@XZ 00000001800295b0 f i libcpmt:xthrow.obj
 0001:000285b0       ??1bad_function_call@std@@UEAA@XZ 00000001800295b0 f i libcpmt:xthrow.obj
 0001:000285b0       ??1bad_alloc@std@@UEAA@XZ  00000001800295b0 f i libcpmt:xthrow.obj
 0001:000285b0       ??1bad_exception@std@@UEAA@XZ 00000001800295b0 f i libvcruntime:frame.obj
 0001:000285b0       ??1bad_array_new_length@std@@UEAA@XZ 00000001800295b0 f i libcpmt:locale.obj
 0001:000285c4       ??_Gbad_array_new_length@std@@UEAAPEAXI@Z 00000001800295c4 f i libcpmt:locale.obj
 0001:000285c4       ??_Glength_error@std@@UEAAPEAXI@Z 00000001800295c4 f i libcpmt:xthrow.obj
 0001:000285c4       ??_Eexception@std@@UEAAPEAXI@Z 00000001800295c4 f i libcpmt:xthrow.obj
 0001:000285c4       ??_Elength_error@std@@UEAAPEAXI@Z 00000001800295c4 f i libcpmt:xthrow.obj
 0001:000285c4       ??_Elogic_error@std@@UEAAPEAXI@Z 00000001800295c4 f i libcpmt:xthrow.obj
 0001:000285c4       ??_Gbad_function_call@std@@UEAAPEAXI@Z 00000001800295c4 f i libcpmt:xthrow.obj
 0001:000285c4       ??_Gbad_alloc@std@@UEAAPEAXI@Z 00000001800295c4 f i libcpmt:xthrow.obj
 0001:000285c4       ??_Ebad_array_new_length@std@@UEAAPEAXI@Z 00000001800295c4 f i libcpmt:locale.obj
 0001:000285c4       ??_Ebad_alloc@std@@UEAAPEAXI@Z 00000001800295c4 f i libcpmt:xthrow.obj
 0001:000285c4       ??_Ebad_exception@std@@UEAAPEAXI@Z 00000001800295c4 f i libvcruntime:frame.obj
 0001:000285c4       ??_Glogic_error@std@@UEAAPEAXI@Z 00000001800295c4 f i libcpmt:xthrow.obj
 0001:000285c4       ??_Gexception@std@@UEAAPEAXI@Z 00000001800295c4 f i libcpmt:xthrow.obj
 0001:000285c4       ??_Gbad_exception@std@@UEAAPEAXI@Z 00000001800295c4 f i libvcruntime:frame.obj
 0001:000285c4       ??_Ebad_function_call@std@@UEAAPEAXI@Z 00000001800295c4 f i libcpmt:xthrow.obj
 0001:00028608       ?_Xbad_alloc@std@@YAXXZ    0000000180029608 f   libcpmt:xthrow.obj
 0001:00028608       ?__scrt_throw_std_bad_alloc@@YAXXZ 0000000180029608 f   LIBCMT:throw_bad_alloc.obj
 0001:00028628       ?_Xbad_function_call@std@@YAXXZ 0000000180029628 f   libcpmt:xthrow.obj
 0001:00028648       ?_Xlength_error@std@@YAXPEBD@Z 0000000180029648 f   libcpmt:xthrow.obj
 0001:0002866c       ?_Xruntime_error@std@@YAXPEBD@Z 000000018002966c f   libcpmt:xthrow.obj
 0001:00028690       ?what@bad_function_call@std@@UEBAPEBDXZ 0000000180029690 f i libcpmt:xthrow.obj
 0001:00028698       ?what@exception@std@@UEBAPEBDXZ 0000000180029698 f i libcpmt:xthrow.obj
 0001:000286ac       ??0_Init_locks@std@@QEAA@XZ 00000001800296ac f   libcpmt:xlock.obj
 0001:000286f0       ??0_Lockit@std@@QEAA@H@Z   00000001800296f0 f   libcpmt:xlock.obj
 0001:0002872c       ??1_Init_locks@std@@QEAA@XZ 000000018002972c f   libcpmt:xlock.obj
 0001:00028768       ??1_Lockit@std@@QEAA@XZ    0000000180029768 f   libcpmt:xlock.obj
 0001:0002879c       ??0_Locimp@locale@std@@AEAA@_N@Z 000000018002979c f i libcpmt:locale0.obj
 0001:00028824       ??4?$_Yarn@D@std@@QEAAAEAV01@PEBD@Z 0000000180029824 f i libcpmt:locale0.obj
 0001:0002889c       ??_E_Locimp@locale@std@@MEAAPEAXI@Z 000000018002989c f i libcpmt:locale0.obj
 0001:0002889c       ??_G_Locimp@locale@std@@MEAAPEAXI@Z 000000018002989c f i libcpmt:locale0.obj
 0001:000288f8       ?_Facet_Register@std@@YAXPEAV_Facet_base@1@@Z 00000001800298f8 f   libcpmt:locale0.obj
 0001:00028930       ?_Getgloballocale@locale@std@@CAPEAV_Locimp@12@XZ 0000000180029930 f   libcpmt:locale0.obj
 0001:00028938       ?_Init@locale@std@@CAPEAV_Locimp@12@_N@Z 0000000180029938 f   libcpmt:locale0.obj
 0001:00028a30       ?_Locimp_dtor@_Locimp@locale@std@@CAXPEAV123@@Z 0000000180029a30 f   libcpmt:locale0.obj
 0001:00028aac       ?_Locinfo_ctor@_Locinfo@std@@SAXPEAV12@PEBD@Z 0000000180029aac f   libcpmt:locale0.obj
 0001:00028b18       ?_Locinfo_dtor@_Locinfo@std@@SAXPEAV12@@Z 0000000180029b18 f   libcpmt:locale0.obj
 0001:00028b34       ?_New_Locimp@_Locimp@locale@std@@CAPEAV123@_N@Z 0000000180029b34 f   libcpmt:locale0.obj
 0001:00028b64       ?_Setgloballocale@locale@std@@CAXPEAX@Z 0000000180029b64 f   libcpmt:locale0.obj
 0001:00028b98       _Deletegloballocale        0000000180029b98 f   libcpmt:locale0.obj
 0001:00028c08       ?_Ios_base_dtor@ios_base@std@@CAXPEAV12@@Z 0000000180029c08 f   libcpmt:ios.obj
 0001:00028c80       ?_Tidy@ios_base@std@@AEAAXXZ 0000000180029c80 f i libcpmt:ios.obj
 0001:00028d00       ?_Syserror_map@std@@YAPEBDH@Z 0000000180029d00 f   libcpmt:syserror.obj
 0001:00028d28       _Getctype                  0000000180029d28 f   libcpmt:_tolower.obj
 0001:00028de8       _Tolower                   0000000180029de8 f   libcpmt:_tolower.obj
 0001:00028f18       _Toupper                   0000000180029f18 f   libcpmt:_toupper.obj
 0001:00029058       _Mtxdst                    000000018002a058 f   libcpmt:xmtx.obj
 0001:00029060       _Mtxinit                   000000018002a060 f   libcpmt:xmtx.obj
 0001:00029070       _Mtxlock                   000000018002a070 f   libcpmt:xmtx.obj
 0001:00029078       _Mtxunlock                 000000018002a078 f   libcpmt:xmtx.obj
 0001:00029080       ??0bad_array_new_length@std@@QEAA@AEBV01@@Z 000000018002a080 f i libcpmt:locale.obj
 0001:000290bc       ??0bad_array_new_length@std@@QEAA@XZ 000000018002a0bc f i libcpmt:locale.obj
 0001:000290dc       ?_Atexit@@YAXP6AXXZ@Z      000000018002a0dc f   libcpmt:iosptrs.obj
 0001:00029118       __crtLCMapStringA          000000018002a118 f   libcpmt:StlLCMapStringA.obj
 0001:0002978c       __crtInitializeCriticalSectionEx 000000018002a78c f   libcpmt:winapisupp.obj
 0001:000297a8       GetTableIndexFromLocaleName 000000018002a7a8 f   libcpmt:winapinls.obj
 0001:00029838       __crtDownlevelLocaleNameToLCID 000000018002a838 f   libcpmt:winapinls.obj
 0001:0002986c       __crtLCMapStringEx         000000018002a86c f   libcpmt:winapinls.obj
 0001:00029900       __wcsnicmp_ascii           000000018002a900 f   libcpmt:winapinls.obj
 0001:00029980       __security_check_cookie    000000018002a980 f   LIBCMT:amdsecgs.obj
 0001:000299a4       ??2@YAPEAX_K@Z             000000018002a9a4 f   LIBCMT:new_scalar.obj
 0001:000299e0       ??_V@YAXPEAX@Z             000000018002a9e0 f   LIBCMT:delete_array.obj
 0001:000299e0       ??3@YAXPEAX_K@Z            000000018002a9e0 f   LIBCMT:delete_scalar_size.obj
 0001:000299e8       __scrt_acquire_startup_lock 000000018002a9e8 f   LIBCMT:utility.obj
 0001:00029a24       __scrt_dllmain_after_initialize_c 000000018002aa24 f   LIBCMT:utility.obj
 0001:00029a58       __scrt_dllmain_before_initialize_c 000000018002aa58 f   LIBCMT:utility.obj
 0001:00029a70       __scrt_dllmain_crt_thread_attach 000000018002aa70 f   LIBCMT:utility.obj
 0001:00029a98       __scrt_dllmain_crt_thread_detach 000000018002aa98 f   LIBCMT:utility.obj
 0001:00029ab0       __scrt_dllmain_exception_filter 000000018002aab0 f   LIBCMT:utility.obj
 0001:00029b10       __scrt_dllmain_uninitialize_c 000000018002ab10 f   LIBCMT:utility.obj
 0001:00029b40       __scrt_dllmain_uninitialize_critical 000000018002ab40 f   LIBCMT:utility.obj
 0001:00029b54       __scrt_initialize_crt      000000018002ab54 f   LIBCMT:utility.obj
 0001:00029ba0       __scrt_initialize_onexit_tables 000000018002aba0 f   LIBCMT:utility.obj
 0001:00029c2c       __scrt_is_nonwritable_in_current_image 000000018002ac2c f   LIBCMT:utility.obj
 0001:00029cc4       __scrt_release_startup_lock 000000018002acc4 f   LIBCMT:utility.obj
 0001:00029ce8       __scrt_uninitialize_crt    000000018002ace8 f   LIBCMT:utility.obj
 0001:00029d14       _onexit                    000000018002ad14 f   LIBCMT:utility.obj
 0001:00029d50       atexit                     000000018002ad50 f   LIBCMT:utility.obj
 0001:00029d68       ??_Etype_info@@UEAAPEAXI@Z 000000018002ad68 f i LIBCMT:std_type_info_static.obj
 0001:00029d68       ??_Gtype_info@@UEAAPEAXI@Z 000000018002ad68 f i LIBCMT:std_type_info_static.obj
 0001:00029d94       ??_U@YAPEAX_KAEBUnothrow_t@std@@@Z 000000018002ad94 f   LIBCMT:new_array_nothrow.obj
 0001:00029d9c       ??_M@YAXPEAX_K1P6AX0@Z@Z   000000018002ad9c f   LIBCMT:ehvecdtr.obj
 0001:00029e08       ?__ArrayUnwind@@YAXPEAX_K1P6AX0@Z@Z 000000018002ae08 f   LIBCMT:ehvecdtr.obj
 0001:00029e6c       ??_U@YAPEAX_K@Z            000000018002ae6c f   LIBCMT:new_array.obj
 0001:0002a194       _DllMainCRTStartup         000000018002b194 f   LIBCMT:dll_dllmain.obj
 0001:0002a1d4       __GSHandlerCheck           000000018002b1d4 f   LIBCMT:gshandler.obj
 0001:0002a1f4       __GSHandlerCheckCommon     000000018002b1f4 f   LIBCMT:gshandler.obj
 0001:0002a250       __GSHandlerCheck_EH4       000000018002b250 f   LIBCMT:gshandlereh4.obj
 0001:0002a2e0       __chkstk                   000000018002b2e0 f   LIBCMT:chkstk.obj
 0001:0002a2e0       _alloca_probe              000000018002b2e0 f   LIBCMT:chkstk.obj
 0001:0002a334       __raise_securityfailure    000000018002b334 f   LIBCMT:gs_report.obj
 0001:0002a368       __report_gsfailure         000000018002b368 f   LIBCMT:gs_report.obj
 0001:0002a43c       __report_rangecheckfailure 000000018002b43c f   LIBCMT:gs_report.obj
 0001:0002a450       __report_securityfailure   000000018002b450 f   LIBCMT:gs_report.obj
 0001:0002a5d0       ?__scrt_throw_std_bad_array_new_length@@YAXXZ 000000018002b5d0 f   LIBCMT:throw_bad_alloc.obj
 0001:0002a5f0       ??3@YAXPEAX@Z              000000018002b5f0 f   LIBCMT:delete_scalar.obj
 0001:0002a5f8       __isa_available_init       000000018002b5f8 f   LIBCMT:cpu_disp.obj
 0001:0002a79c       DllMain                    000000018002b79c f   LIBCMT:dll_dllmain_stub.obj
 0001:0002a79c       _get_startup_argv_mode     000000018002b79c f   LIBCMT:argv_mode.obj
 0001:0002a7a4       __scrt_is_ucrt_dll_in_use  000000018002b7a4 f   LIBCMT:ucrt_detection.obj
 0001:0002a7b0       __crt_debugger_hook        000000018002b7b0 f   LIBCMT:utility_desktop.obj
 0001:0002a7b8       __scrt_fastfail            000000018002b7b8 f   LIBCMT:utility_desktop.obj
 0001:0002a904       ??2@YAPEAX_KAEBUnothrow_t@std@@@Z 000000018002b904 f   LIBCMT:new_scalar_nothrow.obj
 0001:0002a918       __security_init_cookie     000000018002b918 f   LIBCMT:gs_support.obj
 0001:0002a9c4       ?__scrt_initialize_type_info@@YAXXZ 000000018002b9c4 f   LIBCMT:tncleanup.obj
 0001:0002a9d4       ?__scrt_uninitialize_type_info@@YAXXZ 000000018002b9d4 f   LIBCMT:tncleanup.obj
 0001:0002a9e0       __local_stdio_scanf_options 000000018002b9e0 f i LIBCMT:default_local_stdio_options.obj
 0001:0002a9e8       __scrt_initialize_default_local_stdio_options 000000018002b9e8 f   LIBCMT:default_local_stdio_options.obj
 0001:0002aa04       __scrt_get_dyn_tls_init_callback 000000018002ba04 f   LIBCMT:dyn_tls_init.obj
 0001:0002aa0c       _RTC_Initialize            000000018002ba0c f   LIBCMT:initsect.obj
 0001:0002aa48       _RTC_Terminate             000000018002ba48 f   LIBCMT:initsect.obj
 0001:0002aa90       ??$_CallSETranslator@V__FrameHandler3@@@@YAHPEAUEHExceptionRecord@@PEA_KPEAU_CONTEXT@@PEAU_xDISPATCHER_CONTEXT@@PEBU_s_FuncInfo@@K1H@Z 000000018002ba90 f i libvcruntime:risctrnsctrl.obj
 0001:0002aae4       ??$_CallSETranslator@V__FrameHandler4@@@@YAHPEAUEHExceptionRecord@@PEA_KPEAU_CONTEXT@@PEAU_xDISPATCHER_CONTEXT@@PEAUFuncInfo4@FH4@@K1H@Z 000000018002bae4 f i libvcruntime:risctrnsctrl.obj
 0001:0002ab38       ?CatchTryBlock@__FrameHandler3@@SAPEBU_s_TryBlockMapEntry@@PEBU_s_FuncInfo@@H@Z 000000018002bb38 f   libvcruntime:risctrnsctrl.obj
 0001:0002ab8c       ?DecompFuncInfo@FH4@@YA_JPEAEAEAUFuncInfo4@1@_KH_N@Z 000000018002bb8c f i libvcruntime:risctrnsctrl.obj
 0001:0002acb0       ?ExecutionInCatch@__FrameHandler3@@SA_NPEAU_xDISPATCHER_CONTEXT@@PEBU_s_FuncInfo@@@Z 000000018002bcb0 f   libvcruntime:risctrnsctrl.obj
 0001:0002acdc       ?ExecutionInCatch@__FrameHandler4@@SA_NPEAU_xDISPATCHER_CONTEXT@@PEAUFuncInfo4@FH4@@@Z 000000018002bcdc f   libvcruntime:risctrnsctrl.obj
 0001:0002ace4       ?FrameUnwindToEmptyState@__FrameHandler3@@SAXPEA_KPEAU_xDISPATCHER_CONTEXT@@PEBU_s_FuncInfo@@@Z 000000018002bce4 f   libvcruntime:risctrnsctrl.obj
 0001:0002ad48       ?FrameUnwindToEmptyState@__FrameHandler4@@SAXPEA_KPEAU_xDISPATCHER_CONTEXT@@PEAUFuncInfo4@FH4@@@Z 000000018002bd48 f   libvcruntime:risctrnsctrl.obj
 0001:0002ad7c       ?GetEstablisherFrame@__FrameHandler3@@SAPEA_KPEA_KPEAU_xDISPATCHER_CONTEXT@@PEBU_s_FuncInfo@@0@Z 000000018002bd7c f   libvcruntime:risctrnsctrl.obj
 0001:0002ae48       ?GetEstablisherFrame@__FrameHandler4@@SAPEA_KPEA_KPEAU_xDISPATCHER_CONTEXT@@PEAUFuncInfo4@FH4@@0@Z 000000018002be48 f   libvcruntime:risctrnsctrl.obj
 0001:0002ae6c       ?GetRangeOfTrysToCheck@__FrameHandler3@@SA?AU?$pair@Viterator@TryBlockMap@__FrameHandler3@@V123@@std@@AEAVTryBlockMap@1@HPEAU_xDISPATCHER_CONTEXT@@PEBU_s_FuncInfo@@H@Z 000000018002be6c f   libvcruntime:risctrnsctrl.obj
 0001:0002afac       ?GetRangeOfTrysToCheck@__FrameHandler4@@SA?AU?$pair@Viterator@TryBlockMap4@FH4@@V123@@std@@AEAVTryBlockMap4@FH4@@HPEAU_xDISPATCHER_CONTEXT@@PEAUFuncInfo4@5@H@Z 000000018002bfac f   libvcruntime:risctrnsctrl.obj
 0001:0002b114       ?UnwindNestedFrames@__FrameHandler3@@SAXPEA_KPEAUEHExceptionRecord@@PEAU_CONTEXT@@0PEAXPEBU_s_FuncInfo@@HHPEBU_s_HandlerType@@PEAU_xDISPATCHER_CONTEXT@@E@Z 000000018002c114 f   libvcruntime:risctrnsctrl.obj
 0001:0002b218       ?UnwindNestedFrames@__FrameHandler4@@SAXPEA_KPEAUEHExceptionRecord@@PEAU_CONTEXT@@0PEAXPEAUFuncInfo4@FH4@@HHPEAUHandlerType4@5@PEAU_xDISPATCHER_CONTEXT@@E@Z 000000018002c218 f   libvcruntime:risctrnsctrl.obj
 0001:0002b338       ?setBuffer@TryBlockMap4@FH4@@QEAAXViterator@12@@Z 000000018002c338 f i libvcruntime:risctrnsctrl.obj
 0001:0002b4f8       _CreateFrameInfo           000000018002c4f8 f   libvcruntime:risctrnsctrl.obj
 0001:0002b534       _FindAndUnlinkFrame        000000018002c534 f   libvcruntime:risctrnsctrl.obj
 0001:0002b588       _GetImageBase              000000018002c588 f   libvcruntime:risctrnsctrl.obj
 0001:0002b59c       _GetThrowImageBase         000000018002c59c f   libvcruntime:risctrnsctrl.obj
 0001:0002b5b0       _SetImageBase              000000018002c5b0 f   libvcruntime:risctrnsctrl.obj
 0001:0002b5c8       _SetThrowImageBase         000000018002c5c8 f   libvcruntime:risctrnsctrl.obj
 0001:0002b5e0       __CxxFrameHandler3         000000018002c5e0 f   libvcruntime:risctrnsctrl.obj
 0001:0002b668       __CxxFrameHandler4         000000018002c668 f   libvcruntime:risctrnsctrl.obj
 0001:0002b728       _get_purecall_handler      000000018002c728 f   libvcruntime:purevirt.obj
 0001:0002b730       _purecall                  000000018002c730 f   libvcruntime:purevirt.obj
 0001:0002b74c       __DestructExceptionObject  000000018002c74c f   libvcruntime:ehhelpers.obj
 0001:0002b7bc       ?_CallMemberFunction0@@YAXQEAX0@Z 000000018002c7bc f i libvcruntime:ehhelpers.obj
 0001:0002b7c0       _IsExceptionObjectToBeDestroyed 000000018002c7c0 f   libvcruntime:ehhelpers.obj
 0001:0002b7f0       __AdjustPointer            000000018002c7f0 f   libvcruntime:ehhelpers.obj
 0001:0002b814       __FrameUnwindFilter        000000018002c814 f   libvcruntime:ehhelpers.obj
 0001:0002b87c       __current_exception        000000018002c87c f   libvcruntime:ehhelpers.obj
 0001:0002b890       __current_exception_context 000000018002c890 f   libvcruntime:ehhelpers.obj
 0001:0002b8a4       __std_terminate            000000018002c8a4 f   libvcruntime:ehhelpers.obj
 0001:0002b8b0       longjmp                    000000018002c8b0 f   libvcruntime:longjmpc.obj
 0001:0002b8d8       strstr                     000000018002c8d8 f   libvcruntime:strstr.obj
 0001:0002bad4       __std_exception_copy       000000018002cad4 f   libvcruntime:std_exception.obj
 0001:0002bb64       __std_exception_destroy    000000018002cb64 f   libvcruntime:std_exception.obj
 0001:0002bb8c       _CxxThrowException         000000018002cb8c f   libvcruntime:throw.obj
 0001:0002bc40       memcpy_repmovs             000000018002cc40 f   libvcruntime:memcpy.obj
 0001:0002bc60       memcpy                     000000018002cc60 f   libvcruntime:memcpy.obj
 0001:0002bc60       memmove                    000000018002cc60 f   libvcruntime:memcpy.obj
 0001:0002c050       memchr                     000000018002d050 f   libvcruntime:memchr.obj
 0001:0002c0d0       memset_repmovs             000000018002d0d0 f   libvcruntime:memset.obj
 0001:0002c0f0       memset                     000000018002d0f0 f   libvcruntime:memset.obj
 0001:0002c290       memcmp                     000000018002d290 f   libvcruntime:memcmp.obj
 0001:0002c358       __vcrt_initialize          000000018002d358 f   libvcruntime:initialization.obj
 0001:0002c380       __vcrt_thread_attach       000000018002d380 f   libvcruntime:initialization.obj
 0001:0002c394       __vcrt_thread_detach       000000018002d394 f   libvcruntime:initialization.obj
 0001:0002c3a8       __vcrt_uninitialize        000000018002d3a8 f   libvcruntime:initialization.obj
 0001:0002c3c4       __vcrt_uninitialize_critical 000000018002d3c4 f   libvcruntime:initialization.obj
 0001:0002c3d4       __C_specific_handler       000000018002d3d4 f   libvcruntime:riscchandler.obj
 0001:0002c5e0       __std_type_info_compare    000000018002d5e0 f   libvcruntime:std_type_info.obj
 0001:0002c608       __std_type_info_destroy_list 000000018002d608 f   libvcruntime:std_type_info.obj
 0001:0002c634       __vcrt_freefls             000000018002d634 f   libvcruntime:per_thread_data.obj
 0001:0002c654       __vcrt_freeptd             000000018002d654 f   libvcruntime:per_thread_data.obj
 0001:0002c6a4       __vcrt_getptd              000000018002d6a4 f   libvcruntime:per_thread_data.obj
 0001:0002c6c0       __vcrt_getptd_noexit       000000018002d6c0 f   libvcruntime:per_thread_data.obj
 0001:0002c780       __vcrt_initialize_ptd      000000018002d780 f   libvcruntime:per_thread_data.obj
 0001:0002c7c8       __vcrt_uninitialize_ptd    000000018002d7c8 f   libvcruntime:per_thread_data.obj
 0001:0002c7ec       ?GetCurrentState@__FrameHandler3@@SAHPEA_KPEAU_xDISPATCHER_CONTEXT@@PEBU_s_FuncInfo@@@Z 000000018002d7ec f   libvcruntime:ehstate.obj
 0001:0002c814       ?GetUnwindTryBlock@__FrameHandler3@@SAHPEA_KPEAU_xDISPATCHER_CONTEXT@@PEBU_s_FuncInfo@@@Z 000000018002d814 f   libvcruntime:ehstate.obj
 0001:0002c840       ?SetState@__FrameHandler3@@SAXPEA_KPEBU_s_FuncInfo@@H@Z 000000018002d840 f   libvcruntime:ehstate.obj
 0001:0002c84c       ?SetUnwindTryBlock@__FrameHandler3@@SAXPEA_KPEAU_xDISPATCHER_CONTEXT@@PEBU_s_FuncInfo@@H@Z 000000018002d84c f   libvcruntime:ehstate.obj
 0001:0002c888       ?StateFromControlPc@__FrameHandler3@@SAHPEBU_s_FuncInfo@@PEAU_xDISPATCHER_CONTEXT@@@Z 000000018002d888 f   libvcruntime:ehstate.obj
 0001:0002c890       ?StateFromControlPc@__FrameHandler4@@SAHPEAUFuncInfo4@FH4@@PEAU_xDISPATCHER_CONTEXT@@@Z 000000018002d890 f   libvcruntime:ehstate.obj
 0001:0002c898       ?StateFromIp@__FrameHandler3@@SAHPEBU_s_FuncInfo@@PEAU_xDISPATCHER_CONTEXT@@_K@Z 000000018002d898 f   libvcruntime:ehstate.obj
 0001:0002c900       ?StateFromIp@__FrameHandler4@@SAHPEAUFuncInfo4@FH4@@PEAU_xDISPATCHER_CONTEXT@@_K@Z 000000018002d900 f   libvcruntime:ehstate.obj
 0001:0002e020       ??$TypeMatchHelper@V__FrameHandler3@@@@YAHPEBU_s_HandlerType@@PEBU_s_CatchableType@@PEBU_s_ThrowInfo@@@Z 000000018002f020 f i libvcruntime:frame.obj
 0001:0002e160       ??$TypeMatchHelper@V__FrameHandler4@@@@YAHPEAUHandlerType4@FH4@@PEBU_s_CatchableType@@PEBU_s_ThrowInfo@@@Z 000000018002f160 f i libvcruntime:frame.obj
 0001:0002e2a4       ??$__InternalCxxFrameHandler@V__FrameHandler3@@@@YA?AW4_EXCEPTION_DISPOSITION@@PEAUEHExceptionRecord@@PEA_KPEAU_CONTEXT@@PEAU_xDISPATCHER_CONTEXT@@PEBU_s_FuncInfo@@H1E@Z 000000018002f2a4 f i libvcruntime:frame.obj
 0001:0002e4dc       ??$__InternalCxxFrameHandler@V__FrameHandler4@@@@YA?AW4_EXCEPTION_DISPOSITION@@PEAUEHExceptionRecord@@PEA_KPEAU_CONTEXT@@PEAU_xDISPATCHER_CONTEXT@@PEAUFuncInfo4@FH4@@H1E@Z 000000018002f4dc f i libvcruntime:frame.obj
 0001:0002e770       ??0HandlerMap4@FH4@@QEAA@PEBUTryBlockMapEntry4@1@_KH@Z 000000018002f770 f i libvcruntime:frame.obj
 0001:0002e7ec       ??0TryBlockMap4@FH4@@QEAA@PEBUFuncInfo4@1@_K@Z 000000018002f7ec f i libvcruntime:frame.obj
 0001:0002e8c4       ??0bad_exception@std@@QEAA@AEBV01@@Z 000000018002f8c4 f i libvcruntime:frame.obj
 0001:0002e900       ??0bad_exception@std@@QEAA@XZ 000000018002f900 f i libvcruntime:frame.obj
 0001:0002e920       ?CxxCallCatchBlock@__FrameHandler3@@SAPEAXPEAU_EXCEPTION_RECORD@@@Z 000000018002f920 f   libvcruntime:frame.obj
 0001:0002eb0c       ?CxxCallCatchBlock@__FrameHandler4@@SAPEAXPEAU_EXCEPTION_RECORD@@@Z 000000018002fb0c f   libvcruntime:frame.obj
 0001:0002ed5c       ?DecompHandler@HandlerMap4@FH4@@AEAAXXZ 000000018002fd5c f i libvcruntime:frame.obj
 0001:0002ef9c       ?FrameUnwindToState@__FrameHandler3@@SAXPEA_KPEAU_xDISPATCHER_CONTEXT@@PEBU_s_FuncInfo@@H@Z 000000018002ff9c f   libvcruntime:frame.obj
 0001:0002f128       ?FrameUnwindToState@__FrameHandler4@@SAXPEA_KPEAU_xDISPATCHER_CONTEXT@@PEAUFuncInfo4@FH4@@H@Z 0000000180030128 f   libvcruntime:frame.obj
 0001:0002f410       ?GetHandlerSearchState@__FrameHandler3@@SAHPEA_KPEAU_xDISPATCHER_CONTEXT@@PEBU_s_FuncInfo@@@Z 0000000180030410 f i libvcruntime:frame.obj
 0001:0002f620       ?ReadEntry@UWMap4@FH4@@AEAAXPEAPEAE@Z 0000000180030620 f i libvcruntime:frame.obj
 0001:0002f6c0       ?_CallMemberFunction1@@YAXQEAX00@Z 00000001800306c0 f i libvcruntime:frame.obj
 0001:0002f6cc       ?_CallMemberFunction2@@YAXQEAX00H@Z 00000001800306cc f i libvcruntime:frame.obj
 0001:0002f6dc       ?getStartStop@UWMap4@FH4@@QEAAXHHAEAViterator@12@0@Z 00000001800306dc f i libvcruntime:frame.obj
 0001:0002f7ac       ?getStateFromIterators@UWMap4@FH4@@SAHAEBViterator@12@H0H0@Z 00000001800307ac f i libvcruntime:frame.obj
 0001:0002f880       __except_validate_context_record 0000000180030880 f   libvcruntime:jbcxrval.obj
 0001:0002f8b8       __except_validate_jump_buffer 00000001800308b8 f   libvcruntime:jbcxrval.obj
 0001:0002f8f8       __vcrt_initialize_locks    00000001800308f8 f   libvcruntime:locks.obj
 0001:0002f92c       __vcrt_uninitialize_locks  000000018003092c f   libvcruntime:locks.obj
 0001:0002f980       _NLG_Notify                0000000180030980 f   libvcruntime:notify.obj
 0001:0002f9a0       __NLG_Dispatch2            00000001800309a0 f   libvcruntime:notify.obj
 0001:0002f9b0       __NLG_Return2              00000001800309b0 f   libvcruntime:notify.obj
 0001:0002fb00       __vcrt_FlsAlloc            0000000180030b00 f   libvcruntime:winapi_downlevel.obj
 0001:0002fb48       __vcrt_FlsFree             0000000180030b48 f   libvcruntime:winapi_downlevel.obj
 0001:0002fb90       __vcrt_FlsGetValue         0000000180030b90 f   libvcruntime:winapi_downlevel.obj
 0001:0002fbd8       __vcrt_FlsSetValue         0000000180030bd8 f   libvcruntime:winapi_downlevel.obj
 0001:0002fc2c       __vcrt_InitializeCriticalSectionEx 0000000180030c2c f   libvcruntime:winapi_downlevel.obj
 0001:0002fca0       _CallSettingFrame          0000000180030ca0 f   libvcruntime:handlers.obj
 0001:0002fcf0       _CallSettingFrame_LookupContinuationIndex 0000000180030cf0 f   libvcruntime:handlers.obj
 0001:0002fd20       _CallSettingFrame_NotifyContinuationAddr 0000000180030d20 f   libvcruntime:handlers.obj
 0001:0002fd50       _CallSettingFrameEncoded   0000000180030d50 f   libvcruntime:handlers.obj
 0001:0002fd98       __acrt_call_reportfault    0000000180030d98 f   libucrt:invalid_parameter.obj
 0001:0002fef4       __acrt_initialize_invalid_parameter_handler 0000000180030ef4 f   libucrt:invalid_parameter.obj
 0001:0002fefc       _invalid_parameter         0000000180030efc f   libucrt:invalid_parameter.obj
 0001:0002ffac       _invalid_parameter_noinfo  0000000180030fac f   libucrt:invalid_parameter.obj
 0001:0002ffcc       _invalid_parameter_noinfo_noreturn 0000000180030fcc f   libucrt:invalid_parameter.obj
 0001:0002fffc       _invoke_watson             0000000180030ffc f   libucrt:invalid_parameter.obj
 0001:0003075c       ??$ftprintf@PEAU_iobuf@@PEB_WAEBQEB_WAEBQEB_WAEBI@?$__crt_char_traits@_W@@SAH$$QEAPEAU_iobuf@@$$QEAPEB_WAEBQEB_W2AEBI@Z 000000018003175c f i libucrt:assert.obj
 0001:00030784       _wassert                   0000000180031784 f   libucrt:assert.obj
 0001:000307f8       fwprintf                   00000001800317f8 f i libucrt:assert.obj
 0001:0003083c       swprintf                   000000018003183c f i libucrt:assert.obj
 0001:00030890       abort                      0000000180031890 f   libucrt:abort.obj
 0001:000308e8       ??0_LocaleUpdate@@QEAA@QEAU__crt_locale_pointers@@@Z 00000001800318e8 f i libucrt:tolower_toupper.obj
 0001:00030984       ??1_LocaleUpdate@@QEAA@XZ  0000000180031984 f i libucrt:tolower_toupper.obj
 0001:00030998       _tolower_l                 0000000180031998 f   libucrt:tolower_toupper.obj
 0001:00030ad4       _toupper_l                 0000000180031ad4 f   libucrt:tolower_toupper.obj
 0001:00030c10       tolower                    0000000180031c10 f   libucrt:tolower_toupper.obj
 0001:00030c3c       toupper                    0000000180031c3c f   libucrt:tolower_toupper.obj
 0001:00030c68       ??$__acrt_mbs_to_wcs_cp@U__crt_win32_buffer_internal_dynamic_resizing@@@@YAHQEBDAEAV?$__crt_win32_buffer@_WU__crt_win32_buffer_internal_dynamic_resizing@@@@I@Z 0000000180031c68 f i libucrt:strftime.obj
 0001:00030de0       ??$__acrt_wcs_to_mbs_cp@U__crt_win32_buffer_no_resizing@@@@YAHQEB_WAEAV?$__crt_win32_buffer@DU__crt_win32_buffer_no_resizing@@@@I@Z 0000000180031de0 f i libucrt:strftime.obj
 0001:00030ef4       _Strftime_l                0000000180031ef4 f   libucrt:strftime.obj
 0001:00031058       strftime                   0000000180032058 f   libucrt:strftime.obj
 0001:00031074       ??$__crt_time_is_leap_year@H@@YA_NH@Z 0000000180032074 f i libucrt:gmtime.obj
 0001:0003135c       __getgmtimebuf             000000018003235c f   libucrt:gmtime.obj
 0001:000313a8       _gmtime64                  00000001800323a8 f   libucrt:gmtime.obj
 0001:000313f0       free                       00000001800323f0 f   libucrt:free.obj
 0001:00031404       round                      0000000180032404 f   libucrt:round.obj
 0001:0003146c       malloc                     000000018003246c f   libucrt:malloc.obj
 0001:00031474       _isnan                     0000000180032474 f   libucrt:ieeemisc.obj
 0001:000314a0       _finite                    00000001800324a0 f   libucrt:_finite.obj
 0001:000314cc       __acrt_initialize_stdio    00000001800324cc f   libucrt:_file.obj
 0001:000315ec       __acrt_iob_func            00000001800325ec f   libucrt:_file.obj
 0001:00031600       __acrt_uninitialize_stdio  0000000180032600 f   libucrt:_file.obj
 0001:0003165c       _lock_file                 000000018003265c f   libucrt:_file.obj
 0001:00031668       _unlock_file               0000000180032668 f   libucrt:_file.obj
 0001:00031a54       ??$ensure_buffer_is_big_enough@D@formatting_buffer@__crt_stdio_output@@QEAA_N_K@Z 0000000180032a54 f i libucrt:output.obj
 0001:00031afc       ??$ensure_buffer_is_big_enough@_W@formatting_buffer@__crt_stdio_output@@QEAA_N_K@Z 0000000180032afc f i libucrt:output.obj
 0001:00031ba8       ??$is_wide_character_specifier@_W@__crt_stdio_output@@YA_N_K_WW4length_modifier@0@@Z 0000000180032ba8 f i libucrt:output.obj
 0001:00031be8       ??$type_case_integer_parse_into_buffer@I@?$output_processor@DV?$string_output_adapter@D@__crt_stdio_output@@V?$standard_base@DV?$string_output_adapter@D@__crt_stdio_output@@@2@@__crt_stdio_output@@AEAAXII_N@Z 0000000180032be8 f i libucrt:output.obj
 0001:00031c70       ??$type_case_integer_parse_into_buffer@I@?$output_processor@_WV?$stream_output_adapter@_W@__crt_stdio_output@@V?$standard_base@_WV?$stream_output_adapter@_W@__crt_stdio_output@@@2@@__crt_stdio_output@@AEAAXII_N@Z 0000000180032c70 f i libucrt:output.obj
 0001:00031c70       ??$type_case_integer_parse_into_buffer@I@?$output_processor@_WV?$string_output_adapter@_W@__crt_stdio_output@@V?$standard_base@_WV?$string_output_adapter@_W@__crt_stdio_output@@@2@@__crt_stdio_output@@AEAAXII_N@Z 0000000180032c70 f i libucrt:output.obj
 0001:00031d14       ??$type_case_integer_parse_into_buffer@_K@?$output_processor@DV?$string_output_adapter@D@__crt_stdio_output@@V?$standard_base@DV?$string_output_adapter@D@__crt_stdio_output@@@2@@__crt_stdio_output@@AEAAX_KI_N@Z 0000000180032d14 f i libucrt:output.obj
 0001:00031da4       ??$type_case_integer_parse_into_buffer@_K@?$output_processor@_WV?$stream_output_adapter@_W@__crt_stdio_output@@V?$standard_base@_WV?$stream_output_adapter@_W@__crt_stdio_output@@@2@@__crt_stdio_output@@AEAAX_KI_N@Z 0000000180032da4 f i libucrt:output.obj
 0001:00031da4       ??$type_case_integer_parse_into_buffer@_K@?$output_processor@_WV?$string_output_adapter@_W@__crt_stdio_output@@V?$standard_base@_WV?$string_output_adapter@_W@__crt_stdio_output@@@2@@__crt_stdio_output@@AEAAX_KI_N@Z 0000000180032da4 f i libucrt:output.obj
 0001:00031e48       ??$write_multiple_characters@V?$stream_output_adapter@_W@__crt_stdio_output@@D@__crt_stdio_output@@YAXAEBV?$stream_output_adapter@_W@0@DHQEAH@Z 0000000180032e48 f i libucrt:output.obj
 0001:00031edc       ??$write_multiple_characters@V?$string_output_adapter@D@__crt_stdio_output@@D@__crt_stdio_output@@YAXAEBV?$string_output_adapter@D@0@DHQEAH@Z 0000000180032edc f i libucrt:output.obj
 0001:00031f54       ??$write_multiple_characters@V?$string_output_adapter@_W@__crt_stdio_output@@D@__crt_stdio_output@@YAXAEBV?$string_output_adapter@_W@0@DHQEAH@Z 0000000180032f54 f i libucrt:output.obj
 0001:00032100       ?crop_zeroes@__crt_stdio_output@@YAXPEADQEAU__crt_locale_pointers@@@Z 0000000180033100 f i libucrt:output.obj
 0001:000321a0       ?force_decimal_point@__crt_stdio_output@@YAXPEADQEAU__crt_locale_pointers@@@Z 00000001800331a0 f i libucrt:output.obj
 0001:00032218       ?parse_int_from_format_string@?$output_processor@DV?$string_output_adapter@D@__crt_stdio_output@@V?$standard_base@DV?$string_output_adapter@D@__crt_stdio_output@@@2@@__crt_stdio_output@@AEAA_NQEAH@Z 0000000180033218 f i libucrt:output.obj
 0001:000322bc       ?parse_int_from_format_string@?$output_processor@_WV?$string_output_adapter@_W@__crt_stdio_output@@V?$standard_base@_WV?$string_output_adapter@_W@__crt_stdio_output@@@2@@__crt_stdio_output@@AEAA_NQEAH@Z 00000001800332bc f i libucrt:output.obj
 0001:000322bc       ?parse_int_from_format_string@?$output_processor@_WV?$stream_output_adapter@_W@__crt_stdio_output@@V?$standard_base@_WV?$stream_output_adapter@_W@__crt_stdio_output@@@2@@__crt_stdio_output@@AEAA_NQEAH@Z 00000001800332bc f i libucrt:output.obj
 0001:00032360       ?process@?$output_processor@DV?$string_output_adapter@D@__crt_stdio_output@@V?$standard_base@DV?$string_output_adapter@D@__crt_stdio_output@@@2@@__crt_stdio_output@@QEAAHXZ 0000000180033360 f i libucrt:output.obj
 0001:00032568       ?process@?$output_processor@_WV?$stream_output_adapter@_W@__crt_stdio_output@@V?$standard_base@_WV?$stream_output_adapter@_W@__crt_stdio_output@@@2@@__crt_stdio_output@@QEAAHXZ 0000000180033568 f i libucrt:output.obj
 0001:000327e0       ?process@?$output_processor@_WV?$string_output_adapter@_W@__crt_stdio_output@@V?$standard_base@_WV?$string_output_adapter@_W@__crt_stdio_output@@@2@@__crt_stdio_output@@QEAAHXZ 00000001800337e0 f i libucrt:output.obj
 0001:00032a4c       ?state_case_normal@?$output_processor@DV?$string_output_adapter@D@__crt_stdio_output@@V?$standard_base@DV?$string_output_adapter@D@__crt_stdio_output@@@2@@__crt_stdio_output@@AEAA_NXZ 0000000180033a4c f i libucrt:output.obj
 0001:00032ac0       ?state_case_normal_tchar@?$output_processor@DV?$string_output_adapter@D@__crt_stdio_output@@V?$standard_base@DV?$string_output_adapter@D@__crt_stdio_output@@@2@@__crt_stdio_output@@AEAA_ND@Z 0000000180033ac0 f i libucrt:output.obj
 0001:00032b68       ?state_case_size@?$output_processor@DV?$string_output_adapter@D@__crt_stdio_output@@V?$standard_base@DV?$string_output_adapter@D@__crt_stdio_output@@@2@@__crt_stdio_output@@AEAA_NXZ 0000000180033b68 f i libucrt:output.obj
 0001:00032cd8       ?state_case_size@?$output_processor@_WV?$stream_output_adapter@_W@__crt_stdio_output@@V?$standard_base@_WV?$stream_output_adapter@_W@__crt_stdio_output@@@2@@__crt_stdio_output@@AEAA_NXZ 0000000180033cd8 f i libucrt:output.obj
 0001:00032e6c       ?state_case_size@?$output_processor@_WV?$string_output_adapter@_W@__crt_stdio_output@@V?$standard_base@_WV?$string_output_adapter@_W@__crt_stdio_output@@@2@@__crt_stdio_output@@AEAA_NXZ 0000000180033e6c f i libucrt:output.obj
 0001:00033000       ?state_case_type@?$output_processor@DV?$string_output_adapter@D@__crt_stdio_output@@V?$standard_base@DV?$string_output_adapter@D@__crt_stdio_output@@@2@@__crt_stdio_output@@AEAA_NXZ 0000000180034000 f i libucrt:output.obj
 0001:00033268       ?state_case_type@?$output_processor@_WV?$stream_output_adapter@_W@__crt_stdio_output@@V?$standard_base@_WV?$stream_output_adapter@_W@__crt_stdio_output@@@2@@__crt_stdio_output@@AEAA_NXZ 0000000180034268 f i libucrt:output.obj
 0001:00033548       ?state_case_type@?$output_processor@_WV?$string_output_adapter@_W@__crt_stdio_output@@V?$standard_base@_WV?$string_output_adapter@_W@__crt_stdio_output@@@2@@__crt_stdio_output@@AEAA_NXZ 0000000180034548 f i libucrt:output.obj
 0001:00033820       ?to_integer_size@__crt_stdio_output@@YA_KW4length_modifier@1@@Z 0000000180034820 f i libucrt:output.obj
 0001:00033888       ?type_case_Z@?$output_processor@DV?$string_output_adapter@D@__crt_stdio_output@@V?$standard_base@DV?$string_output_adapter@D@__crt_stdio_output@@@2@@__crt_stdio_output@@AEAA_NXZ 0000000180034888 f i libucrt:output.obj
 0001:000338fc       ?type_case_Z@?$output_processor@_WV?$string_output_adapter@_W@__crt_stdio_output@@V?$standard_base@_WV?$string_output_adapter@_W@__crt_stdio_output@@@2@@__crt_stdio_output@@AEAA_NXZ 00000001800348fc f i libucrt:output.obj
 0001:000338fc       ?type_case_Z@?$output_processor@_WV?$stream_output_adapter@_W@__crt_stdio_output@@V?$standard_base@_WV?$stream_output_adapter@_W@__crt_stdio_output@@@2@@__crt_stdio_output@@AEAA_NXZ 00000001800348fc f i libucrt:output.obj
 0001:00033978       ?type_case_a@?$output_processor@DV?$string_output_adapter@D@__crt_stdio_output@@V?$standard_base@DV?$string_output_adapter@D@__crt_stdio_output@@@2@@__crt_stdio_output@@AEAA_NXZ 0000000180034978 f i libucrt:output.obj
 0001:00033b34       ?type_case_a@?$output_processor@_WV?$string_output_adapter@_W@__crt_stdio_output@@V?$standard_base@_WV?$string_output_adapter@_W@__crt_stdio_output@@@2@@__crt_stdio_output@@AEAA_NXZ 0000000180034b34 f i libucrt:output.obj
 0001:00033b34       ?type_case_a@?$output_processor@_WV?$stream_output_adapter@_W@__crt_stdio_output@@V?$standard_base@_WV?$stream_output_adapter@_W@__crt_stdio_output@@@2@@__crt_stdio_output@@AEAA_NXZ 0000000180034b34 f i libucrt:output.obj
 0001:00033d14       ?type_case_c_tchar@?$output_processor@DV?$string_output_adapter@D@__crt_stdio_output@@V?$standard_base@DV?$string_output_adapter@D@__crt_stdio_output@@@2@@__crt_stdio_output@@AEAA_ND@Z 0000000180034d14 f i libucrt:output.obj
 0001:00033ddc       ?type_case_c_tchar@?$output_processor@_WV?$stream_output_adapter@_W@__crt_stdio_output@@V?$standard_base@_WV?$stream_output_adapter@_W@__crt_stdio_output@@@2@@__crt_stdio_output@@AEAA_N_W@Z 0000000180034ddc f i libucrt:output.obj
 0001:00033ddc       ?type_case_c_tchar@?$output_processor@_WV?$string_output_adapter@_W@__crt_stdio_output@@V?$standard_base@_WV?$string_output_adapter@_W@__crt_stdio_output@@@2@@__crt_stdio_output@@AEAA_N_W@Z 0000000180034ddc f i libucrt:output.obj
 0001:00033e84       ?type_case_integer@?$output_processor@DV?$string_output_adapter@D@__crt_stdio_output@@V?$standard_base@DV?$string_output_adapter@D@__crt_stdio_output@@@2@@__crt_stdio_output@@AEAA_NI_N@Z 0000000180034e84 f i libucrt:output.obj
 0001:00034004       ?type_case_integer@?$output_processor@_WV?$stream_output_adapter@_W@__crt_stdio_output@@V?$standard_base@_WV?$stream_output_adapter@_W@__crt_stdio_output@@@2@@__crt_stdio_output@@AEAA_NI_N@Z 0000000180035004 f i libucrt:output.obj
 0001:00034004       ?type_case_integer@?$output_processor@_WV?$string_output_adapter@_W@__crt_stdio_output@@V?$standard_base@_WV?$string_output_adapter@_W@__crt_stdio_output@@@2@@__crt_stdio_output@@AEAA_NI_N@Z 0000000180035004 f i libucrt:output.obj
 0001:0003418c       ?type_case_n@?$output_processor@_WV?$string_output_adapter@_W@__crt_stdio_output@@V?$standard_base@_WV?$string_output_adapter@_W@__crt_stdio_output@@@2@@__crt_stdio_output@@AEAA_NXZ 000000018003518c f i libucrt:output.obj
 0001:0003418c       ?type_case_n@?$output_processor@_WV?$stream_output_adapter@_W@__crt_stdio_output@@V?$standard_base@_WV?$stream_output_adapter@_W@__crt_stdio_output@@@2@@__crt_stdio_output@@AEAA_NXZ 000000018003518c f i libucrt:output.obj
 0001:0003418c       ?type_case_n@?$output_processor@DV?$string_output_adapter@D@__crt_stdio_output@@V?$standard_base@DV?$string_output_adapter@D@__crt_stdio_output@@@2@@__crt_stdio_output@@AEAA_NXZ 000000018003518c f i libucrt:output.obj
 0001:00034214       ?type_case_s@?$output_processor@DV?$string_output_adapter@D@__crt_stdio_output@@V?$standard_base@DV?$string_output_adapter@D@__crt_stdio_output@@@2@@__crt_stdio_output@@AEAA_NXZ 0000000180035214 f i libucrt:output.obj
 0001:000342ac       ?type_case_s@?$output_processor@_WV?$stream_output_adapter@_W@__crt_stdio_output@@V?$standard_base@_WV?$stream_output_adapter@_W@__crt_stdio_output@@@2@@__crt_stdio_output@@AEAA_NXZ 00000001800352ac f i libucrt:output.obj
 0001:000342ac       ?type_case_s@?$output_processor@_WV?$string_output_adapter@_W@__crt_stdio_output@@V?$standard_base@_WV?$string_output_adapter@_W@__crt_stdio_output@@@2@@__crt_stdio_output@@AEAA_NXZ 00000001800352ac f i libucrt:output.obj
 0001:00034374       ?write_stored_string_tchar@?$output_processor@DV?$string_output_adapter@D@__crt_stdio_output@@V?$standard_base@DV?$string_output_adapter@D@__crt_stdio_output@@@2@@__crt_stdio_output@@AEAA_ND@Z 0000000180035374 f i libucrt:output.obj
 0001:00034450       ?write_stored_string_tchar@?$output_processor@_WV?$stream_output_adapter@_W@__crt_stdio_output@@V?$standard_base@_WV?$stream_output_adapter@_W@__crt_stdio_output@@@2@@__crt_stdio_output@@AEAA_N_W@Z 0000000180035450 f i libucrt:output.obj
 0001:00034554       ?write_stored_string_tchar@?$output_processor@_WV?$string_output_adapter@_W@__crt_stdio_output@@V?$standard_base@_WV?$string_output_adapter@_W@__crt_stdio_output@@@2@@__crt_stdio_output@@AEAA_N_W@Z 0000000180035554 f i libucrt:output.obj
 0001:0003463c       ?write_string@?$string_output_adapter@D@__crt_stdio_output@@QEBAXQEBDHQEAHAEAV__crt_deferred_errno_cache@@@Z 000000018003563c f i libucrt:output.obj
 0001:000346e0       ?write_string@?$string_output_adapter@_W@__crt_stdio_output@@QEBAXQEB_WHQEAHAEAV__crt_deferred_errno_cache@@@Z 00000001800356e0 f i libucrt:output.obj
 0001:00034788       ?write_string_impl@?$output_adapter_common@_WV?$stream_output_adapter@_W@__crt_stdio_output@@@__crt_stdio_output@@IEBAXQEB_WHQEAHAEAV__crt_deferred_errno_cache@@@Z 0000000180035788 f i libucrt:output.obj
 0001:00034888       __stdio_common_vfwprintf   0000000180035888 f   libucrt:output.obj
 0001:00034914       __stdio_common_vsprintf    0000000180035914 f   libucrt:output.obj
 0001:0003491c       __stdio_common_vswprintf   000000018003591c f   libucrt:output.obj
 0001:00034e10       _ftelli64_nolock           0000000180035e10 f   libucrt:ftell.obj
 0001:00034e18       ftell                      0000000180035e18 f   libucrt:ftell.obj
 0001:00034edc       fopen                      0000000180035edc f   libucrt:fopen.obj
 0001:00034ee8       _fclose_nolock             0000000180035ee8 f   libucrt:fclose.obj
 0001:00034f6c       fclose                     0000000180035f6c f   libucrt:fclose.obj
 0001:000351d8       fseek                      00000001800361d8 f   libucrt:fseek.obj
 0001:000351e0       rewind                     00000001800361e0 f   libucrt:rewind.obj
 0001:000352a4       __acrt_errno_from_os_error 00000001800362a4 f   libucrt:errno.obj
 0001:000352ec       __acrt_errno_map_os_error  00000001800362ec f   libucrt:errno.obj
 0001:0003533c       __doserrno                 000000018003633c f   libucrt:errno.obj
 0001:0003535c       _errno                     000000018003635c f   libucrt:errno.obj
 0001:0003537c       _fread_nolock_s            000000018003637c f   libucrt:fread.obj
 0001:000355dc       fread                      00000001800365dc f   libucrt:fread.obj
 0001:000355fc       fread_s                    00000001800365fc f   libucrt:fread.obj
 0001:00035b28       _fstat64i32                0000000180036b28 f   libucrt:stat.obj
 0001:00035c00       __ascii_stricmp            0000000180036c00 f   libucrt:stricmp.obj
 0001:00035c3c       _stricmp                   0000000180036c3c f   libucrt:stricmp.obj
 0001:00035c84       _stricmp_l                 0000000180036c84 f   libucrt:stricmp.obj
 0001:00035d0c       __acrt_initialize_locks    0000000180036d0c f   libucrt:locks.obj
 0001:00035d54       __acrt_lock                0000000180036d54 f   libucrt:locks.obj
 0001:00035d70       __acrt_uninitialize_locks  0000000180036d70 f   libucrt:locks.obj
 0001:00035da8       __acrt_unlock              0000000180036da8 f   libucrt:locks.obj
 0001:00035dc4       _lock_locales              0000000180036dc4 f   libucrt:locks.obj
 0001:00035de0       _unlock_locales            0000000180036de0 f   libucrt:locks.obj
 0001:000360cc       setlocale                  00000001800370cc f   libucrt:setlocale.obj
 0001:00036118       __pctype_func              0000000180037118 f   libucrt:ctype.obj
 0001:00036150       islower                    0000000180037150 f   libucrt:_ctype.obj
 0001:00036200       isupper                    0000000180037200 f   libucrt:_ctype.obj
 0001:000362a8       calloc                     00000001800372a8 f   libucrt:calloc.obj
 0001:000362b0       _wcsdup                    00000001800372b0 f   libucrt:wcsdup.obj
 0001:00036334       ___lc_codepage_func        0000000180037334 f   libucrt:initctype.obj
 0001:00036364       ___lc_locale_name_func     0000000180037364 f   libucrt:initctype.obj
 0001:00036398       __acrt_locale_initialize_ctype 0000000180037398 f   libucrt:initctype.obj
 0001:00036a00       ?divide@__crt_strtox@@YA_KAEAUbig_integer@1@AEBU21@@Z 0000000180037a00 f i libucrt:strtod.obj
 0001:00036e2c       _ischartype_l              0000000180037e2c f i libucrt:strtod.obj
 0001:00036f30       pow                        0000000180037f30 f   libucrt:pow.obj
 0001:000385d0       powf                       00000001800395d0 f   libucrt:powf.obj
 0001:00039498       __strncnt                  000000018003a498 f   libucrt:strncnt.obj
 0001:0003aaf4       _Wcsftime_l                000000018003baf4 f   libucrt:wcsftime.obj
 0001:0003ac9c       wcscpy_s                   000000018003bc9c f   libucrt:wcscpy_s.obj
 0001:0003ad04       strnlen                    000000018003bd04 f   libucrt:strnlen.obj
 0001:0003ae54       wcsnlen                    000000018003be54 f   libucrt:strnlen.obj
 0001:0003b02c       __acrt_initialize_new_handler 000000018003c02c f   libucrt:new_handler.obj
 0001:0003b034       _callnewh                  000000018003c034 f   libucrt:new_handler.obj
 0001:0003b064       _query_new_handler         000000018003c064 f   libucrt:new_handler.obj
 0001:0003b098       _seh_filter_dll            000000018003c098 f   libucrt:exception_filter.obj
 0001:0003b0ac       _seh_filter_exe            000000018003c0ac f   libucrt:exception_filter.obj
 0001:0003b49c       __acrt_initialize_thread_local_exit_callback 000000018003c49c f   libucrt:exit.obj
 0001:0003b4a4       _cexit                     000000018003c4a4 f   libucrt:exit.obj
 0001:0003b4b4       _exit                      000000018003c4b4 f   libucrt:exit.obj
 0001:0003b4c0       _is_c_termination_complete 000000018003c4c0 f   libucrt:exit.obj
 0001:0003b688       __acrt_allocate_buffer_for_argv 000000018003c688 f   libucrt:argv_parsing.obj
 0001:0003b6e8       _configure_narrow_argv     000000018003c6e8 f   libucrt:argv_parsing.obj
 0001:0003bc90       __dcrt_get_or_create_wide_environment_nolock 000000018003cc90 f   libucrt:environment_initialization.obj
 0001:0003bccc       __dcrt_uninitialize_environments_nolock 000000018003cccc f   libucrt:environment_initialization.obj
 0001:0003bd04       _initialize_narrow_environment 000000018003cd04 f   libucrt:environment_initialization.obj
 0001:0003c04c       _crt_atexit                000000018003d04c f   libucrt:onexit.obj
 0001:0003c05c       _execute_onexit_table      000000018003d05c f   libucrt:onexit.obj
 0001:0003c098       _initialize_onexit_table   000000018003d098 f   libucrt:onexit.obj
 0001:0003c0c0       _register_onexit_function  000000018003d0c0 f   libucrt:onexit.obj
 0001:0003c140       __acrt_uninitialize_command_line 000000018003d140 f   libucrt:argv_data.obj
 0001:0003c238       __acrt_initialize          000000018003d238 f   libucrt:initialization.obj
 0001:0003c24c       __acrt_thread_attach       000000018003d24c f   libucrt:initialization.obj
 0001:0003c260       __acrt_thread_detach       000000018003d260 f   libucrt:initialization.obj
 0001:0003c270       __acrt_uninitialize        000000018003d270 f   libucrt:initialization.obj
 0001:0003c2a8       __acrt_uninitialize_critical 000000018003d2a8 f   libucrt:initialization.obj
 0001:0003c2b8       terminate                  000000018003d2b8 f   libucrt:terminate.obj
 0001:0003c2d8       _initterm                  000000018003d2d8 f   libucrt:initterm.obj
 0001:0003c33c       _initterm_e                000000018003d33c f   libucrt:initterm.obj
 0001:0003c37c       _fileno                    000000018003d37c f   libucrt:fileno.obj
 0001:0003c37c       fileno                     000000018003d37c f   libucrt:fileno.obj
 0001:0003c3a4       strdup                     000000018003d3a4 f   libucrt:strdup.obj
 0001:0003c3a4       _strdup                    000000018003d3a4 f   libucrt:strdup.obj
 0001:0003c41c       strcpy_s                   000000018003d41c f   libucrt:strcpy_s.obj
 0001:0003c47c       ??$parse_integer@KV?$c_string_character_source@D@__crt_strtox@@@__crt_strtox@@YAKQEAU__crt_locale_pointers@@V?$c_string_character_source@D@0@H_N@Z 000000018003d47c f i libucrt:atox.obj
 0001:0003c780       ??$parse_integer@KV?$c_string_character_source@_W@__crt_strtox@@@__crt_strtox@@YAKQEAU__crt_locale_pointers@@V?$c_string_character_source@_W@0@H_N@Z 000000018003d780 f i libucrt:atox.obj
 0001:0003ce28       _wtol                      000000018003de28 f   libucrt:atox.obj
 0001:0003ce70       strncmp                    000000018003de70 f   libucrt:strncmp.obj
 0001:0003cef0       wcsncmp                    000000018003def0 f   libucrt:wcsncmp.obj
 0001:0003d294       __acrt_freeptd             000000018003e294 f   libucrt:per_thread_data.obj
 0001:0003d2d8       __acrt_getptd              000000018003e2d8 f   libucrt:per_thread_data.obj
 0001:0003d3ac       __acrt_getptd_head         000000018003e3ac f   libucrt:per_thread_data.obj
 0001:0003d454       __acrt_getptd_noexit       000000018003e454 f   libucrt:per_thread_data.obj
 0001:0003d520       __acrt_initialize_ptd      000000018003e520 f   libucrt:per_thread_data.obj
 0001:0003d55c       __acrt_uninitialize_ptd    000000018003e55c f   libucrt:per_thread_data.obj
 0001:0003d580       _query_app_type            000000018003e580 f   libucrt:report_runtime_error.obj
 0001:0003d6c8       _itow_s                    000000018003e6c8 f   libucrt:xtoa.obj
 0001:0003d6e8       _set_error_mode            000000018003e6e8 f   libucrt:set_error_mode.obj
 0001:0003d728       wcscat_s                   000000018003e728 f   libucrt:wcscat_s.obj
 0001:0003d7a8       wcsncat_s                  000000018003e7a8 f   libucrt:wcsncat_s.obj
 0001:0003d8a8       __acrt_GetModuleFileNameA  000000018003e8a8 f   libucrt:getmodulefilenamea.obj
 0001:0003d9c8       __acrt_show_wide_message_box 000000018003e9c8 f   libucrt:crtmbox.obj
 0001:0003dc88       __acrt_stdio_flush_nolock  000000018003ec88 f   libucrt:fflush.obj
 0001:0003dd04       _fflush_nolock             000000018003ed04 f   libucrt:fflush.obj
 0001:0003dd50       _flushall                  000000018003ed50 f   libucrt:fflush.obj
 0001:0003dd58       fflush                     000000018003ed58 f   libucrt:fflush.obj
 0001:0003dee4       setvbuf                    000000018003eee4 f   libucrt:setvbuf.obj
 0001:0003dfc8       __acrt_get_sigabrt_handler 000000018003efc8 f   libucrt:signal.obj
 0001:0003dff8       __acrt_initialize_signal_handlers 000000018003eff8 f   libucrt:signal.obj
 0001:0003e018       raise                      000000018003f018 f   libucrt:signal.obj
 0001:0003e284       _isleadbyte_l              000000018003f284 f i libucrt:_wctype.obj
 0001:0003e5e8       __acrt_LCMapStringA        000000018003f5e8 f   libucrt:lcmapstringa.obj
 0001:0003e680       __acrt_update_locale_info  000000018003f680 f   libucrt:locale_update.obj
 0001:0003e6b4       __acrt_update_multibyte_info 000000018003f6b4 f   libucrt:locale_update.obj
 0001:0003e950       ?commit_locale_name@_expandlocale_locale_name_cache@@QEAAXQEB_W_K@Z 000000018003f950 f i libucrt:wsetlocale.obj
 0001:0003e9c8       __acrt_copy_locale_name    000000018003f9c8 f   libucrt:wsetlocale.obj
 0001:0003ea4c       __acrt_set_locale_changed  000000018003fa4c f   libucrt:wsetlocale.obj
 0001:0003ea58       __acrt_uninitialize_locale 000000018003fa58 f   libucrt:wsetlocale.obj
 0001:0003ea88       __lc_lctowcs               000000018003fa88 f   libucrt:wsetlocale.obj
 0001:0003eb2c       __lc_wcstolc               000000018003fb2c f   libucrt:wsetlocale.obj
 0001:0003f1d4       _wcscats                   00000001800401d4 f   libucrt:wsetlocale.obj
 0001:0003f23c       _wsetlocale                000000018004023c f   libucrt:wsetlocale.obj
 0001:0003ff8c       _free_base                 0000000180040f8c f   libucrt:free_base.obj
 0001:0003ffcc       _malloc_base               0000000180040fcc f   libucrt:malloc_base.obj
 0001:0004002c       __acrt_MultiByteToWideChar 000000018004102c f   libucrt:multibytetowidechar.obj
 0001:00040088       __acrt_WideCharToMultiByte 0000000180041088 f   libucrt:widechartomultibyte.obj
 0001:00040138       _d_int                     0000000180041138 f   libucrt:_test.obj
 0001:00040374       _handle_error              0000000180041374 f   libucrt:libm_error.obj
 0001:0004049c       _handle_errorf             000000018004149c f   libucrt:libm_error.obj
 0001:000405d0       _handle_nan                00000001800415d0 f   libucrt:libm_error.obj
 0001:000405ec       _handle_nanf               00000001800415ec f   libucrt:libm_error.obj
 0001:000405fc       _calloc_base               00000001800415fc f   libucrt:calloc_base.obj
 0001:000408f0       __acrt_AppPolicyGetProcessTerminationMethodInternal 00000001800418f0 f   libucrt:winapi_thunks.obj
 0001:00040940       __acrt_AppPolicyGetShowDeveloperDiagnosticInternal 0000000180041940 f   libucrt:winapi_thunks.obj
 0001:00040990       __acrt_AppPolicyGetWindowingModelInternal 0000000180041990 f   libucrt:winapi_thunks.obj
 0001:000409e0       __acrt_AreFileApisANSI     00000001800419e0 f   libucrt:winapi_thunks.obj
 0001:00040a1c       __acrt_CompareStringEx     0000000180041a1c f   libucrt:winapi_thunks.obj
 0001:00040af8       __acrt_EnumSystemLocalesEx 0000000180041af8 f   libucrt:winapi_thunks.obj
 0001:00040b90       __acrt_FlsAlloc            0000000180041b90 f   libucrt:winapi_thunks.obj
 0001:00040bd8       __acrt_FlsFree             0000000180041bd8 f   libucrt:winapi_thunks.obj
 0001:00040c20       __acrt_FlsGetValue         0000000180041c20 f   libucrt:winapi_thunks.obj
 0001:00040c68       __acrt_FlsSetValue         0000000180041c68 f   libucrt:winapi_thunks.obj
 0001:00040cbc       __acrt_GetDateFormatEx     0000000180041cbc f   libucrt:winapi_thunks.obj
 0001:00040d74       __acrt_GetLocaleInfoEx     0000000180041d74 f   libucrt:winapi_thunks.obj
 0001:00040df8       __acrt_GetTimeFormatEx     0000000180041df8 f   libucrt:winapi_thunks.obj
 0001:00040ea4       __acrt_GetUserDefaultLocaleName 0000000180041ea4 f   libucrt:winapi_thunks.obj
 0001:00040f08       __acrt_InitializeCriticalSectionEx 0000000180041f08 f   libucrt:winapi_thunks.obj
 0001:00040f6c       __acrt_IsValidLocaleName   0000000180041f6c f   libucrt:winapi_thunks.obj
 0001:00040fc4       __acrt_LCIDToLocaleName    0000000180041fc4 f   libucrt:winapi_thunks.obj
 0001:00041034       __acrt_LCMapStringEx       0000000180042034 f   libucrt:winapi_thunks.obj
 0001:00041110       __acrt_LocaleNameToLCID    0000000180042110 f   libucrt:winapi_thunks.obj
 0001:00041160       __acrt_MessageBoxW         0000000180042160 f   libucrt:winapi_thunks.obj
 0001:000411d4       __acrt_can_show_message_box 00000001800421d4 f   libucrt:winapi_thunks.obj
 0001:00041244       __acrt_can_use_vista_locale_apis 0000000180042244 f   libucrt:winapi_thunks.obj
 0001:00041274       __acrt_eagerly_load_locale_apis 0000000180042274 f   libucrt:winapi_thunks.obj
 0001:000413d0       __acrt_get_parent_window   00000001800423d0 f   libucrt:winapi_thunks.obj
 0001:00041448       __acrt_initialize_winapi_thunks 0000000180042448 f   libucrt:winapi_thunks.obj
 0001:0004147c       __acrt_is_interactive      000000018004247c f   libucrt:winapi_thunks.obj
 0001:00041544       __acrt_uninitialize_winapi_thunks 0000000180042544 f   libucrt:winapi_thunks.obj
 0001:00041588       _fcloseall                 0000000180042588 f   libucrt:closeall.obj
 0001:0004163c       __acrt_stdio_free_buffer_nolock 000000018004263c f   libucrt:_freebuf.obj
 0001:00041878       __acrt_initialize_lowio    0000000180042878 f   libucrt:ioinit.obj
 0001:000418b4       __acrt_uninitialize_lowio  00000001800428b4 f   libucrt:ioinit.obj
 0001:000418f4       strtol                     00000001800428f4 f   libucrt:strtox.obj
 0001:00041920       wcstol                     0000000180042920 f   libucrt:strtox.obj
 0001:0004194c       _mbtowc_l                  000000018004294c f   libucrt:mbtowc.obj
 0001:00041acc       mbtowc                     0000000180042acc f   libucrt:mbtowc.obj
 0001:00041ad4       _wctomb_s_l                0000000180042ad4 f   libucrt:wctomb.obj
 0001:00041c70       wctomb_s                   0000000180042c70 f   libucrt:wctomb.obj
 0001:00042690       __acrt_fp_format           0000000180043690 f   libucrt:cvt.obj
 0001:000429c8       _fputwc_nolock             00000001800439c8 f   libucrt:fputwc.obj
 0001:00042b44       _fputc_nolock              0000000180043b44 f   libucrt:fputc.obj
 0001:00042b5c       _get_printf_count_output   0000000180043b5c f   libucrt:printf_count_output.obj
 0001:00042b74       __acrt_should_use_temporary_buffer 0000000180043b74 f   libucrt:_sftbuf.obj
 0001:00042bbc       __acrt_stdio_begin_temporary_buffering_nolock 0000000180043bbc f   libucrt:_sftbuf.obj
 0001:00042c84       __acrt_stdio_end_temporary_buffering_nolock 0000000180043c84 f   libucrt:_sftbuf.obj
 0001:0004302c       _lseek                     000000018004402c f   libucrt:lseek.obj
 0001:00043034       _lseeki64                  0000000180044034 f   libucrt:lseek.obj
 0001:0004303c       _lseeki64_nolock           000000018004403c f   libucrt:lseek.obj
 0001:000435ac       _read                      00000001800445ac f   libucrt:read.obj
 0001:000436c8       _read_nolock               00000001800446c8 f   libucrt:read.obj
 0001:00043b20       ?__acrt_stdio_allocate_stream@@YA?AV__crt_stdio_stream@@XZ 0000000180044b20 f   libucrt:stream.obj
 0001:00043b78       ?__acrt_stdio_free_stream@@YAXV__crt_stdio_stream@@@Z 0000000180044b78 f   libucrt:stream.obj
 0001:00043c80       ??$__acrt_stdio_parse_mode@D@@YA?AU__acrt_stdio_stream_mode@@QEBD@Z 0000000180044c80 f i libucrt:openfile.obj
 0001:00043f44       _openfile                  0000000180044f44 f   libucrt:openfile.obj
 0001:00044054       _close                     0000000180045054 f   libucrt:close.obj
 0001:000440f8       _close_nolock              00000001800450f8 f   libucrt:close.obj
 0001:000441b8       __acrt_stdio_refill_and_read_narrow_nolock 00000001800451b8 f   libucrt:_filbuf.obj
 0001:00044324       _getdrive                  0000000180045324 f   libucrt:drive.obj
 0001:0004441c       wcspbrk                    000000018004541c f   libucrt:wcspbrk.obj
 0001:00044450       __ascii_wcsicmp            0000000180045450 f   libucrt:wcsicmp.obj
 0001:00044490       _wcsicmp                   0000000180045490 f   libucrt:wcsicmp.obj
 0001:000444d8       _wcsicmp_l                 00000001800454d8 f   libucrt:wcsicmp.obj
 0001:00044600       __acrt_lowio_create_handle_array 0000000180045600 f   libucrt:osfinfo.obj
 0001:000446a8       __acrt_lowio_destroy_handle_array 00000001800456a8 f   libucrt:osfinfo.obj
 0001:000446f8       __acrt_lowio_ensure_fh_exists 00000001800456f8 f   libucrt:osfinfo.obj
 0001:000447a0       __acrt_lowio_lock_fh       00000001800457a0 f   libucrt:osfinfo.obj
 0001:000447c8       __acrt_lowio_set_os_handle 00000001800457c8 f   libucrt:osfinfo.obj
 0001:00044888       __acrt_lowio_unlock_fh     0000000180045888 f   libucrt:osfinfo.obj
 0001:000448b0       _alloc_osfhnd              00000001800458b0 f   libucrt:osfinfo.obj
 0001:000449f0       _free_osfhnd               00000001800459f0 f   libucrt:osfinfo.obj
 0001:00044aac       _get_osfhandle             0000000180045aac f   libucrt:osfinfo.obj
 0001:00044d50       __loctotime64_t            0000000180045d50 f   libucrt:loctotime.obj
 0001:00044f58       _mbstowcs_s_l              0000000180045f58 f   libucrt:mbstowcs.obj
 0001:0004508c       mbstowcs_s                 000000018004608c f   libucrt:mbstowcs.obj
 0001:00045408       _wcstombs_s_l              0000000180046408 f   libucrt:wcstombs.obj
 0001:000454f0       _isctype_l                 00000001800464f0 f   libucrt:isctype.obj
 0001:00045774       __acrt_GetLocaleInfoA      0000000180046774 f   libucrt:getlocaleinfoa.obj
 0001:0004593c       __acrt_GetStringTypeA      000000018004693c f   libucrt:getstringtypea.obj
 0001:00045acc       _raise_exc                 0000000180046acc f   libucrt:fpexcept.obj
 0001:00045af4       _raise_exc_ex              0000000180046af4 f   libucrt:fpexcept.obj
 0001:00045e04       _raise_excf                0000000180046e04 f   libucrt:fpexcept.obj
 0001:00045e30       _set_errno_from_matherr    0000000180046e30 f   libucrt:fpexcept.obj
 0001:00045e60       _clrfp                     0000000180046e60 f   libucrt:fpctrl.obj
 0001:00045e80       _ctrlfp                    0000000180046e80 f   libucrt:fpctrl.obj
 0001:00045efc       _set_statfp                0000000180046efc f   libucrt:fpctrl.obj
 0001:00045f1c       _statfp                    0000000180046f1c f   libucrt:fpctrl.obj
 0001:00045f30       _realloc_base              0000000180046f30 f   libucrt:realloc_base.obj
 0001:00045fac       iswctype                   0000000180046fac f   libucrt:iswctype.obj
 0001:00046018       fegetround                 0000000180047018 f   libucrt:fegetround.obj
 0001:00046030       __acrt_initialize_fma3     0000000180047030 f   libucrt:fma3_available.obj
 0001:000460a0       _pow_special               00000001800470a0 f   libucrt:pow_special.obj
 0001:000461c4       _powf_special              00000001800471c4 f   libucrt:pow_special.obj
 0001:00046350       __acrt_initialize_timeset  0000000180047350 f   libucrt:timeset.obj
 0001:000463a0       __daylight                 00000001800473a0 f   libucrt:timeset.obj
 0001:000463a8       __dstbias                  00000001800473a8 f   libucrt:timeset.obj
 0001:000463b0       __timezone                 00000001800473b0 f   libucrt:timeset.obj
 0001:000463b8       __tzname                   00000001800473b8 f   libucrt:timeset.obj
 0001:000463c0       __wide_tzname              00000001800473c0 f   libucrt:timeset.obj
 0001:000463c8       _get_daylight              00000001800473c8 f   libucrt:timeset.obj
 0001:000463f8       _get_dstbias               00000001800473f8 f   libucrt:timeset.obj
 0001:00046428       _get_timezone              0000000180047428 f   libucrt:timeset.obj
 0001:00046fcc       __tzset                    0000000180047fcc f   libucrt:tzset.obj
 0001:0004700c       _isindst                   000000018004800c f   libucrt:tzset.obj
 0001:0004703c       __acrt_get_developer_information_policy 000000018004803c f   libucrt:win_policies.obj
 0001:00047090       __acrt_get_process_end_policy 0000000180048090 f   libucrt:win_policies.obj
 0001:000470cc       __acrt_get_windowing_model_policy 00000001800480cc f   libucrt:win_policies.obj
 0001:0004714c       ??$__acrt_wcs_to_mbs_cp@U__crt_win32_buffer_internal_dynamic_resizing@@@@YAHQEB_WAEAV?$__crt_win32_buffer@DU__crt_win32_buffer_internal_dynamic_resizing@@@@I@Z 000000018004814c f i libucrt:argv_wildcards.obj
 0001:0004797c       __acrt_expand_narrow_argv_wildcards 000000018004897c f   libucrt:argv_wildcards.obj
 0001:000480ac       __acrt_initialize_multibyte 00000001800490ac f   libucrt:mbctype.obj
 0001:0004810c       __acrt_update_thread_multibyte_data 000000018004910c f   libucrt:mbctype.obj
 0001:00048128       _setmbcp_nolock            0000000180049128 f   libucrt:mbctype.obj
 0001:0004845c       _ismbblead                 000000018004945c f   libucrt:ismbbyte.obj
 0001:00048470       __acrt_initialize_command_line 0000000180049470 f   libucrt:argv_data.obj
 0001:00048498       __dcrt_get_narrow_environment_from_os 0000000180049498 f   libucrt:get_environment_from_os.obj
 0001:0004859c       __dcrt_get_wide_environment_from_os 000000018004959c f   libucrt:get_environment_from_os.obj
 0001:00048a50       __dcrt_set_variable_in_wide_environment_nolock 0000000180049a50 f   libucrt:setenv.obj
 0001:00048a58       _recalloc_base             0000000180049a58 f   libucrt:recalloc.obj
 0001:00048af0       __acrt_initialize_heap     0000000180049af0 f   libucrt:heap_handle.obj
 0001:00048b0c       __acrt_uninitialize_heap   0000000180049b0c f   libucrt:heap_handle.obj
 0001:00048b18       __acrt_execute_initializers 0000000180049b18 f   libucrt:shared_initialization.obj
 0001:00048b98       __acrt_execute_uninitializers 0000000180049b98 f   libucrt:shared_initialization.obj
 0001:00048bd4       __acrt_has_user_matherr    0000000180049bd4 f   libucrt:matherr.obj
 0001:00048bf4       __acrt_initialize_user_matherr 0000000180049bf4 f   libucrt:matherr.obj
 0001:00048bfc       __acrt_invoke_user_matherr 0000000180049bfc f   libucrt:matherr.obj
 0001:00048c2c       __acrt_add_locale_ref      0000000180049c2c f   libucrt:locale_refcounting.obj
 0001:00048cb8       __acrt_free_locale         0000000180049cb8 f   libucrt:locale_refcounting.obj
 0001:00048e30       __acrt_locale_add_lc_time_reference 0000000180049e30 f   libucrt:locale_refcounting.obj
 0001:00048e58       __acrt_locale_free_lc_time_if_unreferenced 0000000180049e58 f   libucrt:locale_refcounting.obj
 0001:00048e90       __acrt_locale_release_lc_time_reference 0000000180049e90 f   libucrt:locale_refcounting.obj
 0001:00048eb8       __acrt_release_locale_ref  0000000180049eb8 f   libucrt:locale_refcounting.obj
 0001:00048f60       __acrt_update_thread_locale_data 0000000180049f60 f   libucrt:locale_refcounting.obj
 0001:00048fd0       _updatetlocinfoEx_nolock   0000000180049fd0 f   libucrt:locale_refcounting.obj
 0001:00049038       wcsncpy_s                  000000018004a038 f   libucrt:wcsncpy_s.obj
 0001:000491a8       _commit                    000000018004a1a8 f   libucrt:commit.obj
 0001:00049ab8       _write                     000000018004aab8 f   libucrt:write.obj
 0001:00049ba4       _write_nolock              000000018004aba4 f   libucrt:write.obj
 0001:00049e88       __acrt_locale_free_monetary 000000018004ae88 f   libucrt:initmon.obj
 0001:00049f94       __acrt_locale_initialize_monetary 000000018004af94 f   libucrt:initmon.obj
 0001:0004a4c8       __acrt_locale_free_numeric 000000018004b4c8 f   libucrt:initnum.obj
 0001:0004a534       __acrt_locale_initialize_numeric 000000018004b534 f   libucrt:initnum.obj
 0001:0004abb4       __acrt_locale_free_time    000000018004bbb4 f   libucrt:inittime.obj
 0001:0004acbc       __acrt_locale_initialize_time 000000018004bcbc f   libucrt:inittime.obj
 0001:0004ad58       wcscspn                    000000018004bd58 f   libucrt:wcscspn.obj
 0001:0004b54c       __acrt_get_qualified_locale 000000018004c54c f   libucrt:get_qualified_locale.obj
 0001:0004bf80       __acrt_get_qualified_locale_downlevel 000000018004cf80 f   libucrt:getqloc_downlevel.obj
 0001:0004c200       _query_new_mode            000000018004d200 f   libucrt:new_mode.obj
 0001:0004c208       __acrt_fenv_get_common_round_control 000000018004d208 f   libucrt:_fenvutils.obj
 0001:0004c214       __acrt_fenv_get_control    000000018004d214 f   libucrt:_fenvutils.obj
 0001:0004c308       __acrt_fenv_get_status     000000018004d308 f   libucrt:_fenvutils.obj
 0001:0004c35c       __acrt_fenv_set_control    000000018004d35c f   libucrt:_fenvutils.obj
 0001:0004c4a4       __acrt_fenv_set_status     000000018004d4a4 f   libucrt:_fenvutils.obj
 0001:0004c528       __acrt_DownlevelLCIDToLocaleName 000000018004d528 f   libucrt:lcidtoname_downlevel.obj
 0001:0004c61c       __acrt_DownlevelLocaleNameToLCID 000000018004d61c f   libucrt:lcidtoname_downlevel.obj
 0001:0004c6cc       ?__mbrtowc_utf8@__crt_mbstring@@YA_KPEA_WPEBD_KPEAU_Mbstatet@@@Z 000000018004d6cc f   libucrt:mbrtowc.obj
 0001:0004c708       ?__mbsrtowcs_utf8@__crt_mbstring@@YA_KPEA_WPEAPEBD_KPEAU_Mbstatet@@@Z 000000018004d708 f   libucrt:mbrtowc.obj
 0001:0004c880       ?__c32rtomb_utf8@__crt_mbstring@@YA_KPEAD_UPEAU_Mbstatet@@@Z 000000018004d880 f   libucrt:c32rtomb.obj
 0001:0004c934       c32rtomb                   000000018004d934 f   libucrt:c32rtomb.obj
 0001:0004c93c       __acrt_fp_strflt_to_string 000000018004d93c f   libucrt:_fptostr.obj
 0001:0004ca98       __acrt_fltout              000000018004da98 f   libucrt:cfout.obj
 0001:0004df24       __acrt_stdio_flush_and_write_narrow_nolock 000000018004ef24 f   libucrt:_flsbuf.obj
 0001:0004dfdc       __acrt_stdio_flush_and_write_wide_nolock 000000018004efdc f   libucrt:_flsbuf.obj
 0001:0004e098       _isatty                    000000018004f098 f   libucrt:isatty.obj
 0001:0004e0f8       __ascii_wcsnicmp           000000018004f0f8 f   libucrt:wcsnicmp.obj
 0001:0004e144       _wcsnicmp                  000000018004f144 f   libucrt:wcsnicmp.obj
 0001:0004e18c       _wcsnicmp_l                000000018004f18c f   libucrt:wcsnicmp.obj
 0001:0004e2dc       __ascii_strnicmp           000000018004f2dc f   libucrt:strnicmp.obj
 0001:0004e328       _strnicmp                  000000018004f328 f   libucrt:strnicmp.obj
 0001:0004e378       _strnicmp_l                000000018004f378 f   libucrt:strnicmp.obj
 0001:0004ea50       _sopen_nolock              000000018004fa50 f   libucrt:open.obj
 0001:0004eb68       _sopen_s                   000000018004fb68 f   libucrt:open.obj
 0001:0004eb9c       _wsopen_nolock             000000018004fb9c f   libucrt:open.obj
 0001:0004ef84       __acrt_stdio_allocate_buffer_nolock 000000018004ff84 f   libucrt:_getbuf.obj
 0001:0004eff0       _towlower_l                000000018004fff0 f   libucrt:towlower.obj
 0001:0004f0ac       ?__wcsrtombs_utf8@__crt_mbstring@@YA_KPEADPEAPEB_W_KPEAU_Mbstatet@@@Z 00000001800500ac f   libucrt:wcrtomb.obj
 0001:0004f1c8       strncpy_s                  00000001800501c8 f   libucrt:strncpy_s.obj
 0001:0004f2b0       _get_fpsr                  00000001800502b0 f   libucrt:fpsr.obj
 0001:0004f2c0       _set_fpsr                  00000001800502c0 f   libucrt:fpsr.obj
 0001:0004f2ca       _fclrf                     00000001800502ca f   libucrt:fpsr.obj
 0001:0004f2de       _frnd                      00000001800502de f   libucrt:fpsr.obj
 0001:0004f300       __acrt_GetStringTypeW      0000000180050300 f   libucrt:getstringtypew.obj
 0001:0004f498       _wgetenv_s                 0000000180050498 f   libucrt:getenv.obj
 0001:0004f4a0       qsort                      00000001800504a0 f   libucrt:qsort.obj
 0001:0004f8e0       strpbrk                    00000001800508e0 f   libucrt:strpbrk.obj
 0001:0004fca8       _mbsdec                    0000000180050ca8 f   libucrt:mbsdec.obj
 0001:0004fcb0       _mbsdec_l                  0000000180050cb0 f   libucrt:mbsdec.obj
 0001:0004fd5c       _wcsnicoll                 0000000180050d5c f   libucrt:wcsnicol.obj
 0001:0004fdac       _wcsnicoll_l               0000000180050dac f   libucrt:wcsnicol.obj
 0001:0004fe9c       _msize_base                0000000180050e9c f   libucrt:msize.obj
 0001:0004fed8       _putwch_nolock             0000000180050ed8 f   libucrt:putwch.obj
 0001:0004ff14       wcscmp                     0000000180050f14 f   libucrt:wcscmp.obj
 0001:0004ff4c       ?__mbrtoc32_utf8@__crt_mbstring@@YA_KPEA_UPEBD_KPEAU_Mbstatet@@@Z 0000000180050f4c f   libucrt:mbrtoc32.obj
 0001:00050124       _controlfp_s               0000000180051124 f   libucrt:contrlfp.obj
 0001:00050188       fegetenv                   0000000180051188 f   libucrt:fegetenv.obj
 0001:000501a8       fesetenv                   00000001800511a8 f   libucrt:fesetenv.obj
 0001:000501f4       feholdexcept               00000001800511f4 f   libucrt:feholdexcept.obj
 0001:00050244       ceil                       0000000180051244 f   libucrt:ceil.obj
 0001:00050310       log10                      0000000180051310 f   libucrt:log10.obj
 0001:000508bc       _get_fmode                 00000001800518bc f   libucrt:setmode.obj
 0001:000508ec       _setmode_nolock            00000001800518ec f   libucrt:setmode.obj
 0001:000509cc       _chsize_nolock             00000001800519cc f   libucrt:chsize.obj
 0001:00050b38       __acrt_LCMapStringW        0000000180051b38 f   libucrt:lcmapstringw.obj
 0001:00050bc0       ?__c16rtomb_utf8@__crt_mbstring@@YA_KPEAD_SPEAU_Mbstatet@@@Z 0000000180051bc0 f   libucrt:c16rtomb.obj
 0001:00050c64       __acrt_CompareStringW      0000000180051c64 f   libucrt:comparestringw.obj
 0001:00050d24       __dcrt_lowio_ensure_console_output_initialized 0000000180051d24 f   libucrt:initcon.obj
 0001:00050d78       __dcrt_terminate_console_output 0000000180051d78 f   libucrt:initcon.obj
 0001:00050d94       __dcrt_write_console       0000000180051d94 f   libucrt:initcon.obj
 0001:00050e54       _clearfp                   0000000180051e54 f   libucrt:ieee.obj
 0001:00050ec4       _control87                 0000000180051ec4 f   libucrt:ieee.obj
 0001:00051190       _log10_special             0000000180052190 f   libucrt:log_special.obj
 0001:00051248       __acrt_initialize_fmode    0000000180052248 f   libucrt:txtmode.obj
 0001:00051261       IsProcessorFeaturePresent  0000000180052261 f   kernel32:KERNEL32.dll
 0001:00051267       RtlUnwind                  0000000180052267 f   kernel32:KERNEL32.dll
 0001:00051270       ?DloadAcquireSectionWriteAccess@@YAXXZ 0000000180052270 f i DelayImp:delayhlp.obj
 0001:0005131c       ?DloadGetSRWLockFunctionPointers@@YAEXZ 000000018005231c f i DelayImp:delayhlp.obj
 0001:000513b8       ?DloadMakePermanentImageCommit@@YAXPEAX_K@Z 00000001800523b8 f i DelayImp:delayhlp.obj
 0001:00051450       ?DloadObtainSection@@YAPEAXPEAK0@Z 0000000180052450 f i DelayImp:delayhlp.obj
 0001:000514ec       ?DloadProtectSection@@YAXKPEAK@Z 00000001800524ec f i DelayImp:delayhlp.obj
 0001:0005157c       ?DloadReleaseSectionWriteAccess@@YAXXZ 000000018005257c f i DelayImp:delayhlp.obj
 0001:00051610       __delayLoadHelper2         0000000180052610 f   DelayImp:delayhlp.obj
 0001:000518f0       _FindPESection             00000001800528f0 f   LIBCMT:pesect.obj
 0001:00051940       _IsNonwritableInCurrentImage 0000000180052940 f   LIBCMT:pesect.obj
 0001:00051990       _ValidateImageBase         0000000180052990 f   LIBCMT:pesect.obj
 0001:000519c0       __GSHandlerCheck_SEH       00000001800529c0 f   LIBCMT:gshandlerseh.obj
 0001:00051a48       __GSHandlerCheck_EH        0000000180052a48 f   LIBCMT:gshandlereh.obj
 0001:00051ac8       wcsrchr                    0000000180052ac8 f   libvcruntime:wcsrchr.obj
 0001:00051b78       strrchr                    0000000180052b78 f   libvcruntime:strrchr.obj
 0001:00051ca8       wcschr                     0000000180052ca8 f   libvcruntime:wcschr.obj
 0001:00051d30       acos                       0000000180052d30 f   libucrt:acos.obj
 0001:00051fd4       acosf                      0000000180052fd4 f   libucrt:acosf.obj
 0001:00052200       ceilf                      0000000180053200 f   libucrt:ceilf.obj
 0001:00052288       floor                      0000000180053288 f   libucrt:floor.obj
 0001:00052338       fmodf                      0000000180053338 f   libucrt:fmodf.obj
 0001:0005257c       sqrt                       000000018005357c f   libucrt:sqrt.obj
 0001:00052648       sqrtf                      0000000180053648 f   libucrt:sqrtf.obj
 0001:00052700       strcmp                     0000000180053700 f   libucrt:strcmp.obj
 0001:00052770       tan                        0000000180053770 f   libucrt:tan.obj
 0001:00052fac       _tan_special               0000000180053fac f   libucrt:sincos_special.obj
 0001:00052fc0       __remainder_piby2_fma3     0000000180053fc0 f   libucrt:remainder_piby2_forfma3.obj
 0001:000531b0       __remainder_piby2_fma3_bdl 00000001800541b0 f   libucrt:remainder_piby2_forfma3.obj
 0001:00053230       __remainder_piby2_forAsm   0000000180054230 f   libucrt:remainder_piby2_forasm.obj
 0001:00053440       __remainder_piby2_cw_forAsm 0000000180054440 f   libucrt:remainder_piby2_forasm.obj
 0001:00053590       _guard_dispatch_icall_nop  0000000180054590 f   LIBCMT:guard_dispatch.obj
 0001:000535b0       _guard_xfg_dispatch_icall_nop 00000001800545b0 f   LIBCMT:guard_xfg_dispatch.obj
 0001:000535d0       __longjmp_internal         00000001800545d0 f   libvcruntime:longjmp.obj
 0001:000536d0       __intrinsic_setjmp         00000001800546d0 f   libvcruntime:setjmp.obj
 0001:000536d0       _setjmp                    00000001800546d0 f   libvcruntime:setjmp.obj
 0001:00053770       setjmp                     0000000180054770 f   libvcruntime:setjmp.obj
 0002:00000000       __imp_AddFontResourceExA   0000000180058000     gdi32:GDI32.dll
 0002:00000008       \177GDI32_NULL_THUNK_DATA  0000000180058008     gdi32:GDI32.dll
 0002:00000010       __imp_VirtualQuery         0000000180058010     kernel32:KERNEL32.dll
 0002:00000018       __imp_GetModuleHandleA     0000000180058018     kernel32:KERNEL32.dll
 0002:00000020       __imp_VirtualProtect       0000000180058020     kernel32:KERNEL32.dll
 0002:00000028       __imp_GetSystemInfo        0000000180058028     kernel32:KERNEL32.dll
 0002:00000030       __imp_SetEndOfFile         0000000180058030     kernel32:KERNEL32.dll
 0002:00000038       __imp_HeapSize             0000000180058038     kernel32:KERNEL32.dll
 0002:00000040       __imp_GetFileSizeEx        0000000180058040     kernel32:KERNEL32.dll
 0002:00000048       __imp_GetConsoleOutputCP   0000000180058048     kernel32:KERNEL32.dll
 0002:00000050       __imp_FlushFileBuffers     0000000180058050     kernel32:KERNEL32.dll
 0002:00000058       __imp_GetProcessHeap       0000000180058058     kernel32:KERNEL32.dll
 0002:00000060       __imp_SetEnvironmentVariableW 0000000180058060     kernel32:KERNEL32.dll
 0002:00000068       __imp_FreeEnvironmentStringsW 0000000180058068     kernel32:KERNEL32.dll
 0002:00000070       __imp_GetEnvironmentStringsW 0000000180058070     kernel32:KERNEL32.dll
 0002:00000078       __imp_GetCommandLineW      0000000180058078     kernel32:KERNEL32.dll
 0002:00000080       __imp_GetCommandLineA      0000000180058080     kernel32:KERNEL32.dll
 0002:00000088       __imp_GetOEMCP             0000000180058088     kernel32:KERNEL32.dll
 0002:00000090       __imp_GetACP               0000000180058090     kernel32:KERNEL32.dll
 0002:00000098       __imp_IsValidCodePage      0000000180058098     kernel32:KERNEL32.dll
 0002:000000a0       __imp_FindNextFileW        00000001800580a0     kernel32:KERNEL32.dll
 0002:000000a8       __imp_FindFirstFileExW     00000001800580a8     kernel32:KERNEL32.dll
 0002:000000b0       __imp_FindClose            00000001800580b0     kernel32:KERNEL32.dll
 0002:000000b8       __imp_GetTimeZoneInformation 00000001800580b8     kernel32:KERNEL32.dll
 0002:000000c0       __imp_HeapReAlloc          00000001800580c0     kernel32:KERNEL32.dll
 0002:000000c8       __imp_SetStdHandle         00000001800580c8     kernel32:KERNEL32.dll
 0002:000000d0       __imp_GetCurrentDirectoryW 00000001800580d0     kernel32:KERNEL32.dll
 0002:000000d8       __imp_ReadConsoleW         00000001800580d8     kernel32:KERNEL32.dll
 0002:000000e0       __imp_GetConsoleMode       00000001800580e0     kernel32:KERNEL32.dll
 0002:000000e8       __imp_SetFilePointerEx     00000001800580e8     kernel32:KERNEL32.dll
 0002:000000f0       __imp_EnumSystemLocalesW   00000001800580f0     kernel32:KERNEL32.dll
 0002:000000f8       __imp_GetUserDefaultLCID   00000001800580f8     kernel32:KERNEL32.dll
 0002:00000100       __imp_IsValidLocale        0000000180058100     kernel32:KERNEL32.dll
 0002:00000108       __imp_GetTimeFormatW       0000000180058108     kernel32:KERNEL32.dll
 0002:00000110       __imp_GetDateFormatW       0000000180058110     kernel32:KERNEL32.dll
 0002:00000118       __imp_HeapAlloc            0000000180058118     kernel32:KERNEL32.dll
 0002:00000120       __imp_HeapFree             0000000180058120     kernel32:KERNEL32.dll
 0002:00000128       __imp_OutputDebugStringW   0000000180058128     kernel32:KERNEL32.dll
 0002:00000130       __imp_WriteFile            0000000180058130     kernel32:KERNEL32.dll
 0002:00000138       __imp_ExitProcess          0000000180058138     kernel32:KERNEL32.dll
 0002:00000140       __imp_FileTimeToSystemTime 0000000180058140     kernel32:KERNEL32.dll
 0002:00000148       __imp_SystemTimeToTzSpecificLocalTime 0000000180058148     kernel32:KERNEL32.dll
 0002:00000150       __imp_PeekNamedPipe        0000000180058150     kernel32:KERNEL32.dll
 0002:00000158       __imp_CloseHandle          0000000180058158     kernel32:KERNEL32.dll
 0002:00000160       __imp_GetFileInformationByHandle 0000000180058160     kernel32:KERNEL32.dll
 0002:00000168       __imp_CreateFileW          0000000180058168     kernel32:KERNEL32.dll
 0002:00000170       __imp_ReadFile             0000000180058170     kernel32:KERNEL32.dll
 0002:00000178       __imp_WriteConsoleW        0000000180058178     kernel32:KERNEL32.dll
 0002:00000180       __imp_GetModuleHandleExW   0000000180058180     kernel32:KERNEL32.dll
 0002:00000188       __imp_GetModuleFileNameW   0000000180058188     kernel32:KERNEL32.dll
 0002:00000190       __imp_GetFileType          0000000180058190     kernel32:KERNEL32.dll
 0002:00000198       __imp_GetStdHandle         0000000180058198     kernel32:KERNEL32.dll
 0002:000001a0       __imp_LoadLibraryExW       00000001800581a0     kernel32:KERNEL32.dll
 0002:000001a8       __imp_FreeLibrary          00000001800581a8     kernel32:KERNEL32.dll
 0002:000001b0       __imp_RtlUnwind            00000001800581b0     kernel32:KERNEL32.dll
 0002:000001b8       __imp_GetLastError         00000001800581b8     kernel32:KERNEL32.dll
 0002:000001c0       __imp_InterlockedFlushSList 00000001800581c0     kernel32:KERNEL32.dll
 0002:000001c8       __imp_RaiseException       00000001800581c8     kernel32:KERNEL32.dll
 0002:000001d0       __imp_RtlPcToFileHeader    00000001800581d0     kernel32:KERNEL32.dll
 0002:000001d8       __imp_RtlUnwindEx          00000001800581d8     kernel32:KERNEL32.dll
 0002:000001e0       __imp_InitializeSListHead  00000001800581e0     kernel32:KERNEL32.dll
 0002:000001e8       __imp_GetCurrentThreadId   00000001800581e8     kernel32:KERNEL32.dll
 0002:000001f0       __imp_GetCurrentProcessId  00000001800581f0     kernel32:KERNEL32.dll
 0002:000001f8       __imp_QueryPerformanceCounter 00000001800581f8     kernel32:KERNEL32.dll
 0002:00000200       __imp_GetStartupInfoW      0000000180058200     kernel32:KERNEL32.dll
 0002:00000208       __imp_IsDebuggerPresent    0000000180058208     kernel32:KERNEL32.dll
 0002:00000210       __imp_IsProcessorFeaturePresent 0000000180058210     kernel32:KERNEL32.dll
 0002:00000218       __imp_TerminateProcess     0000000180058218     kernel32:KERNEL32.dll
 0002:00000220       __imp_GetCurrentProcess    0000000180058220     kernel32:KERNEL32.dll
 0002:00000228       __imp_SetUnhandledExceptionFilter 0000000180058228     kernel32:KERNEL32.dll
 0002:00000230       __imp_UnhandledExceptionFilter 0000000180058230     kernel32:KERNEL32.dll
 0002:00000238       __imp_RtlVirtualUnwind     0000000180058238     kernel32:KERNEL32.dll
 0002:00000240       __imp_RtlLookupFunctionEntry 0000000180058240     kernel32:KERNEL32.dll
 0002:00000248       __imp_RtlCaptureContext    0000000180058248     kernel32:KERNEL32.dll
 0002:00000250       __imp_GetCPInfo            0000000180058250     kernel32:KERNEL32.dll
 0002:00000258       __imp_GetStringTypeW       0000000180058258     kernel32:KERNEL32.dll
 0002:00000260       __imp_GetLocaleInfoW       0000000180058260     kernel32:KERNEL32.dll
 0002:00000268       __imp_LCMapStringW         0000000180058268     kernel32:KERNEL32.dll
 0002:00000270       __imp_CompareStringW       0000000180058270     kernel32:KERNEL32.dll
 0002:00000278       __imp_GetProcAddress       0000000180058278     kernel32:KERNEL32.dll
 0002:00000280       __imp_GetModuleHandleW     0000000180058280     kernel32:KERNEL32.dll
 0002:00000288       __imp_GetSystemTimeAsFileTime 0000000180058288     kernel32:KERNEL32.dll
 0002:00000290       __imp_TlsFree              0000000180058290     kernel32:KERNEL32.dll
 0002:00000298       __imp_TlsSetValue          0000000180058298     kernel32:KERNEL32.dll
 0002:000002a0       __imp_TlsGetValue          00000001800582a0     kernel32:KERNEL32.dll
 0002:000002a8       __imp_TlsAlloc             00000001800582a8     kernel32:KERNEL32.dll
 0002:000002b0       __imp_InitializeCriticalSectionAndSpinCount 00000001800582b0     kernel32:KERNEL32.dll
 0002:000002b8       __imp_SetLastError         00000001800582b8     kernel32:KERNEL32.dll
 0002:000002c0       __imp_WideCharToMultiByte  00000001800582c0     kernel32:KERNEL32.dll
 0002:000002c8       __imp_MultiByteToWideChar  00000001800582c8     kernel32:KERNEL32.dll
 0002:000002d0       __imp_DecodePointer        00000001800582d0     kernel32:KERNEL32.dll
 0002:000002d8       __imp_EncodePointer        00000001800582d8     kernel32:KERNEL32.dll
 0002:000002e0       __imp_DeleteCriticalSection 00000001800582e0     kernel32:KERNEL32.dll
 0002:000002e8       __imp_LeaveCriticalSection 00000001800582e8     kernel32:KERNEL32.dll
 0002:000002f0       __imp_EnterCriticalSection 00000001800582f0     kernel32:KERNEL32.dll
 0002:000002f8       __imp_LoadLibraryExA       00000001800582f8     kernel32:KERNEL32.dll
 0002:00000300       \177KERNEL32_NULL_THUNK_DATA 0000000180058300     kernel32:KERNEL32.dll
 0002:00000308       __imp_pango_cairo_create_layout 0000000180058308     libpangocairo-1.0-0:dakhs00007.o
 0002:00000310       __imp_pango_cairo_font_map_set_default 0000000180058310     libpangocairo-1.0-0:dakhs00020.o
 0002:00000318       __imp_pango_cairo_layout_path 0000000180058318     libpangocairo-1.0-0:dakhs00024.o
 0002:00000320       __imp_pango_cairo_show_layout 0000000180058320     libpangocairo-1.0-0:dakhs00029.o
 0002:00000328       __imp_pango_cairo_update_layout 0000000180058328     libpangocairo-1.0-0:dakhs00032.o
 0002:00000338       __imp_DGifCloseFile        0000000180058338     libgif-7:deybs00000.o
 0002:00000340       __imp_DGifOpen             0000000180058340     libgif-7:deybs00014.o
 0002:00000348       __imp_DGifSlurp            0000000180058348     libgif-7:deybs00018.o
 0002:00000358       __imp_jpeg_CreateCompress  0000000180058358     libjpeg-8:dghgs00029.o
 0002:00000360       __imp_jpeg_CreateDecompress 0000000180058360     libjpeg-8:dghgs00030.o
 0002:00000368       __imp_jpeg_abort_decompress 0000000180058368     libjpeg-8:dghgs00033.o
 0002:00000370       __imp_jpeg_destroy_compress 0000000180058370     libjpeg-8:dghgs00046.o
 0002:00000378       __imp_jpeg_destroy_decompress 0000000180058378     libjpeg-8:dghgs00047.o
 0002:00000380       __imp_jpeg_finish_compress 0000000180058380     libjpeg-8:dghgs00052.o
 0002:00000388       __imp_jpeg_finish_decompress 0000000180058388     libjpeg-8:dghgs00053.o
 0002:00000390       __imp_jpeg_mem_src         0000000180058390     libjpeg-8:dghgs00074.o
 0002:00000398       __imp_jpeg_read_header     0000000180058398     libjpeg-8:dghgs00080.o
 0002:000003a0       __imp_jpeg_read_scanlines  00000001800583a0     libjpeg-8:dghgs00083.o
 0002:000003a8       __imp_jpeg_set_defaults    00000001800583a8     libjpeg-8:dghgs00087.o
 0002:000003b0       __imp_jpeg_set_quality     00000001800583b0     libjpeg-8:dghgs00090.o
 0002:000003b8       __imp_jpeg_simple_progression 00000001800583b8     libjpeg-8:dghgs00091.o
 0002:000003c0       __imp_jpeg_start_compress  00000001800583c0     libjpeg-8:dghgs00093.o
 0002:000003c8       __imp_jpeg_start_decompress 00000001800583c8     libjpeg-8:dghgs00094.o
 0002:000003d0       __imp_jpeg_std_error       00000001800583d0     libjpeg-8:dghgs00096.o
 0002:000003d8       __imp_jpeg_stdio_src       00000001800583d8     libjpeg-8:dghgs00098.o
 0002:000003e0       __imp_jpeg_write_scanlines 00000001800583e0     libjpeg-8:dghgs00106.o
 0002:000003f0       __imp_FT_Done_Face         00000001800583f0     libfreetype-6:dmuhs00034.o
 0002:000003f8       __imp_FT_Done_FreeType     00000001800583f8     libfreetype-6:dmuhs00035.o
 0002:00000400       __imp_FT_Get_Sfnt_Name     0000000180058400     libfreetype-6:dmuhs00085.o
 0002:00000408       __imp_FT_Get_Sfnt_Name_Count 0000000180058408     libfreetype-6:dmuhs00086.o
 0002:00000410       __imp_FT_Get_Sfnt_Table    0000000180058410     libfreetype-6:dmuhs00087.o
 0002:00000418       __imp_FT_Init_FreeType     0000000180058418     libfreetype-6:dmuhs00107.o
 0002:00000420       __imp_FT_New_Face          0000000180058420     libfreetype-6:dmuhs00126.o
 0002:00000430       __imp_png_create_info_struct 0000000180058430     libpng16-16:dodcs00011.o
 0002:00000438       __imp_png_create_write_struct_2 0000000180058438     libpng16-16:dodcs00015.o
 0002:00000440       __imp_png_data_freer       0000000180058440     libpng16-16:dodcs00016.o
 0002:00000448       __imp_png_destroy_write_struct 0000000180058448     libpng16-16:dodcs00019.o
 0002:00000450       __imp_png_error            0000000180058450     libpng16-16:dodcs00020.o
 0002:00000458       __imp_png_get_error_ptr    0000000180058458     libpng16-16:dodcs00044.o
 0002:00000460       __imp_png_get_io_ptr       0000000180058460     libpng16-16:dodcs00058.o
 0002:00000468       __imp_png_malloc           0000000180058468     libpng16-16:dodcs00129.o
 0002:00000470       __imp_png_set_IHDR         0000000180058470     libpng16-16:dodcs00149.o
 0002:00000478       __imp_png_set_PLTE         0000000180058478     libpng16-16:dodcs00150.o
 0002:00000480       __imp_png_set_bKGD         0000000180058480     libpng16-16:dodcs00155.o
 0002:00000488       __imp_png_set_compression_level 0000000180058488     libpng16-16:dodcs00168.o
 0002:00000490       __imp_png_set_filler       0000000180058490     libpng16-16:dodcs00180.o
 0002:00000498       __imp_png_set_filter       0000000180058498     libpng16-16:dodcs00181.o
 0002:000004a0       __imp_png_set_longjmp_fn   00000001800584a0     libpng16-16:dodcs00198.o
 0002:000004a8       __imp_png_set_pHYs         00000001800584a8     libpng16-16:dodcs00204.o
 0002:000004b0       __imp_png_set_packing      00000001800584b0     libpng16-16:dodcs00205.o
 0002:000004b8       __imp_png_set_packswap     00000001800584b8     libpng16-16:dodcs00206.o
 0002:000004c0       __imp_png_set_tRNS         00000001800584c0     libpng16-16:dodcs00233.o
 0002:000004c8       __imp_png_set_write_fn     00000001800584c8     libpng16-16:dodcs00245.o
 0002:000004d0       __imp_png_set_write_user_transform_fn 00000001800584d0     libpng16-16:dodcs00247.o
 0002:000004d8       __imp_png_write_end        00000001800584d8     libpng16-16:dodcs00255.o
 0002:000004e0       __imp_png_write_image      00000001800584e0     libpng16-16:dodcs00259.o
 0002:000004e8       __imp_png_write_info       00000001800584e8     libpng16-16:dodcs00260.o
 0002:000004f8       __imp_g_free               00000001800584f8     libglib-2.0-0:dotds00424.o
 0002:00000500       __imp_g_iconv              0000000180058500     libglib-2.0-0:dotds00523.o
 0002:00000508       __imp_g_iconv_open         0000000180058508     libglib-2.0-0:dotds00525.o
 0002:00000510       __imp_g_list_first         0000000180058510     libglib-2.0-0:dotds00642.o
 0002:00000518       __imp_g_list_foreach       0000000180058518     libglib-2.0-0:dotds00643.o
 0002:00000520       __imp_g_list_free          0000000180058520     libglib-2.0-0:dotds00644.o
 0002:00000528       __imp_g_list_insert_sorted 0000000180058528     libglib-2.0-0:dotds00651.o
 0002:00000530       __imp_g_strdup             0000000180058530     libglib-2.0-0:dotds01258.o
 0002:00000540       __imp_rsvg_handle_get_dimensions 0000000180058540     librsvg-2-2:dugcs00014.o
 0002:00000548       __imp_rsvg_handle_new_from_data 0000000180058548     librsvg-2-2:dugcs00028.o
 0002:00000550       __imp_rsvg_handle_render_cairo 0000000180058550     librsvg-2-2:dugcs00034.o
 0002:00000560       __imp_cairo_append_path    0000000180058560     libcairo-2:dugks00840.o
 0002:00000568       __imp_cairo_arc            0000000180058568     libcairo-2:dugks00841.o
 0002:00000570       __imp_cairo_arc_negative   0000000180058570     libcairo-2:dugks00842.o
 0002:00000578       __imp_cairo_clip_preserve  0000000180058578     libcairo-2:dugks00845.o
 0002:00000580       __imp_cairo_close_path     0000000180058580     libcairo-2:dugks00846.o
 0002:00000588       __imp_cairo_copy_path_flat 0000000180058588     libcairo-2:dugks00850.o
 0002:00000590       __imp_cairo_create         0000000180058590     libcairo-2:dugks00851.o
 0002:00000598       __imp_cairo_curve_to       0000000180058598     libcairo-2:dugks00852.o
 0002:000005a0       __imp_cairo_destroy        00000001800585a0     libcairo-2:dugks00854.o
 0002:000005a8       __imp_cairo_fill           00000001800585a8     libcairo-2:dugks00875.o
 0002:000005b0       __imp_cairo_fill_extents   00000001800585b0     libcairo-2:dugks00876.o
 0002:000005b8       __imp_cairo_fill_preserve  00000001800585b8     libcairo-2:dugks00877.o
 0002:000005c0       __imp_cairo_format_stride_for_width 00000001800585c0     libcairo-2:dugks00903.o
 0002:000005c8       __imp_cairo_get_antialias  00000001800585c8     libcairo-2:dugks00912.o
 0002:000005d0       __imp_cairo_get_current_point 00000001800585d0     libcairo-2:dugks00913.o
 0002:000005d8       __imp_cairo_get_dash       00000001800585d8     libcairo-2:dugks00914.o
 0002:000005e0       __imp_cairo_get_dash_count 00000001800585e0     libcairo-2:dugks00915.o
 0002:000005e8       __imp_cairo_get_line_cap   00000001800585e8     libcairo-2:dugks00921.o
 0002:000005f0       __imp_cairo_get_line_join  00000001800585f0     libcairo-2:dugks00922.o
 0002:000005f8       __imp_cairo_get_line_width 00000001800585f8     libcairo-2:dugks00923.o
 0002:00000600       __imp_cairo_get_matrix     0000000180058600     libcairo-2:dugks00924.o
 0002:00000608       __imp_cairo_get_miter_limit 0000000180058608     libcairo-2:dugks00925.o
 0002:00000610       __imp_cairo_get_operator   0000000180058610     libcairo-2:dugks00926.o
 0002:00000618       __imp_cairo_get_source     0000000180058618     libcairo-2:dugks00929.o
 0002:00000620       __imp_cairo_identity_matrix 0000000180058620     libcairo-2:dugks00938.o
 0002:00000628       __imp_cairo_image_surface_create 0000000180058628     libcairo-2:dugks00939.o
 0002:00000630       __imp_cairo_image_surface_create_for_data 0000000180058630     libcairo-2:dugks00940.o
 0002:00000638       __imp_cairo_image_surface_create_from_png 0000000180058638     libcairo-2:dugks00941.o
 0002:00000640       __imp_cairo_image_surface_create_from_png_stream 0000000180058640     libcairo-2:dugks00942.o
 0002:00000648       __imp_cairo_image_surface_get_data 0000000180058648     libcairo-2:dugks00943.o
 0002:00000650       __imp_cairo_image_surface_get_format 0000000180058650     libcairo-2:dugks00944.o
 0002:00000658       __imp_cairo_image_surface_get_height 0000000180058658     libcairo-2:dugks00945.o
 0002:00000660       __imp_cairo_image_surface_get_stride 0000000180058660     libcairo-2:dugks00946.o
 0002:00000668       __imp_cairo_image_surface_get_width 0000000180058668     libcairo-2:dugks00947.o
 0002:00000670       __imp_cairo_in_fill        0000000180058670     libcairo-2:dugks00949.o
 0002:00000678       __imp_cairo_in_stroke      0000000180058678     libcairo-2:dugks00950.o
 0002:00000680       __imp_cairo_line_to        0000000180058680     libcairo-2:dugks00951.o
 0002:00000688       __imp_cairo_mask_surface   0000000180058688     libcairo-2:dugks00954.o
 0002:00000690       __imp_cairo_matrix_init    0000000180058690     libcairo-2:dugks00955.o
 0002:00000698       __imp_cairo_move_to        0000000180058698     libcairo-2:dugks00979.o
 0002:000006a0       __imp_cairo_new_path       00000001800586a0     libcairo-2:dugks00980.o
 0002:000006a8       __imp_cairo_paint          00000001800586a8     libcairo-2:dugks00982.o
 0002:000006b0       __imp_cairo_paint_with_alpha 00000001800586b0     libcairo-2:dugks00983.o
 0002:000006b8       __imp_cairo_path_destroy   00000001800586b8     libcairo-2:dugks00984.o
 0002:000006c0       __imp_cairo_pattern_add_color_stop_rgba 00000001800586c0     libcairo-2:dugks00987.o
 0002:000006c8       __imp_cairo_pattern_create_for_surface 00000001800586c8     libcairo-2:dugks00988.o
 0002:000006d0       __imp_cairo_pattern_create_linear 00000001800586d0     libcairo-2:dugks00989.o
 0002:000006d8       __imp_cairo_pattern_create_radial 00000001800586d8     libcairo-2:dugks00991.o
 0002:000006e0       __imp_cairo_pattern_destroy 00000001800586e0     libcairo-2:dugks00995.o
 0002:000006e8       __imp_cairo_pattern_get_color_stop_count 00000001800586e8     libcairo-2:dugks00996.o
 0002:000006f0       __imp_cairo_pattern_get_color_stop_rgba 00000001800586f0     libcairo-2:dugks00997.o
 0002:000006f8       __imp_cairo_pattern_get_filter 00000001800586f8     libcairo-2:dugks00999.o
 0002:00000700       __imp_cairo_pattern_get_linear_points 0000000180058700     libcairo-2:dugks01000.o
 0002:00000708       __imp_cairo_pattern_get_radial_circles 0000000180058708     libcairo-2:dugks01002.o
 0002:00000710       __imp_cairo_pattern_get_surface 0000000180058710     libcairo-2:dugks01005.o
 0002:00000718       __imp_cairo_pattern_get_type 0000000180058718     libcairo-2:dugks01006.o
 0002:00000720       __imp_cairo_pattern_get_user_data 0000000180058720     libcairo-2:dugks01007.o
 0002:00000728       __imp_cairo_pattern_set_extend 0000000180058728     libcairo-2:dugks01009.o
 0002:00000730       __imp_cairo_pattern_set_filter 0000000180058730     libcairo-2:dugks01010.o
 0002:00000738       __imp_cairo_pattern_set_user_data 0000000180058738     libcairo-2:dugks01012.o
 0002:00000740       __imp_cairo_pdf_surface_create_for_stream 0000000180058740     libcairo-2:dugks01017.o
 0002:00000748       __imp_cairo_pdf_surface_set_metadata 0000000180058748     libcairo-2:dugks01019.o
 0002:00000750       __imp_cairo_pdf_surface_set_size 0000000180058750     libcairo-2:dugks01021.o
 0002:00000758       __imp_cairo_pop_group_to_source 0000000180058758     libcairo-2:dugks01025.o
 0002:00000760       __imp_cairo_push_group     0000000180058760     libcairo-2:dugks01037.o
 0002:00000768       __imp_cairo_rectangle      0000000180058768     libcairo-2:dugks01052.o
 0002:00000770       __imp_cairo_restore        0000000180058770     libcairo-2:dugks01082.o
 0002:00000778       __imp_cairo_rotate         0000000180058778     libcairo-2:dugks01083.o
 0002:00000780       __imp_cairo_save           0000000180058780     libcairo-2:dugks01084.o
 0002:00000788       __imp_cairo_scale          0000000180058788     libcairo-2:dugks01085.o
 0002:00000790       __imp_cairo_set_antialias  0000000180058790     libcairo-2:dugks01112.o
 0002:00000798       __imp_cairo_set_dash       0000000180058798     libcairo-2:dugks01113.o
 0002:000007a0       __imp_cairo_set_fill_rule  00000001800587a0     libcairo-2:dugks01114.o
 0002:000007a8       __imp_cairo_set_line_cap   00000001800587a8     libcairo-2:dugks01119.o
 0002:000007b0       __imp_cairo_set_line_join  00000001800587b0     libcairo-2:dugks01120.o
 0002:000007b8       __imp_cairo_set_line_width 00000001800587b8     libcairo-2:dugks01121.o
 0002:000007c0       __imp_cairo_set_matrix     00000001800587c0     libcairo-2:dugks01122.o
 0002:000007c8       __imp_cairo_set_miter_limit 00000001800587c8     libcairo-2:dugks01123.o
 0002:000007d0       __imp_cairo_set_operator   00000001800587d0     libcairo-2:dugks01124.o
 0002:000007d8       __imp_cairo_set_source     00000001800587d8     libcairo-2:dugks01126.o
 0002:000007e0       __imp_cairo_set_source_rgba 00000001800587e0     libcairo-2:dugks01128.o
 0002:000007e8       __imp_cairo_set_source_surface 00000001800587e8     libcairo-2:dugks01129.o
 0002:000007f0       __imp_cairo_show_page      00000001800587f0     libcairo-2:dugks01133.o
 0002:000007f8       __imp_cairo_status         00000001800587f8     libcairo-2:dugks01136.o
 0002:00000800       __imp_cairo_status_to_string 0000000180058800     libcairo-2:dugks01137.o
 0002:00000808       __imp_cairo_stroke         0000000180058808     libcairo-2:dugks01138.o
 0002:00000810       __imp_cairo_stroke_extents 0000000180058810     libcairo-2:dugks01139.o
 0002:00000818       __imp_cairo_stroke_preserve 0000000180058818     libcairo-2:dugks01140.o
 0002:00000820       __imp_cairo_surface_destroy 0000000180058820     libcairo-2:dugks01146.o
 0002:00000828       __imp_cairo_surface_finish 0000000180058828     libcairo-2:dugks01147.o
 0002:00000830       __imp_cairo_surface_flush  0000000180058830     libcairo-2:dugks01148.o
 0002:00000838       __imp_cairo_surface_mark_dirty 0000000180058838     libcairo-2:dugks01161.o
 0002:00000840       __imp_cairo_surface_mark_dirty_rectangle 0000000180058840     libcairo-2:dugks01162.o
 0002:00000848       __imp_cairo_surface_set_mime_data 0000000180058848     libcairo-2:dugks01176.o
 0002:00000850       __imp_cairo_surface_status 0000000180058850     libcairo-2:dugks01179.o
 0002:00000858       __imp_cairo_svg_surface_create_for_stream 0000000180058858     libcairo-2:dugks01186.o
 0002:00000860       __imp_cairo_transform      0000000180058860     libcairo-2:dugks01205.o
 0002:00000868       __imp_cairo_translate      0000000180058868     libcairo-2:dugks01206.o
 0002:00000870       __imp_cairo_user_to_device_distance 0000000180058870     libcairo-2:dugks01217.o
 0002:00000878       __imp_cairo_version_string 0000000180058878     libcairo-2:dugks01219.o
 0002:00000888       __imp_pango_context_get_language 0000000180058888     libpango-1.0-0:dymis00080.o
 0002:00000890       __imp_pango_context_get_metrics 0000000180058890     libpango-1.0-0:dymis00082.o
 0002:00000898       __imp_pango_font_description_better_match 0000000180058898     libpango-1.0-0:dymis00121.o
 0002:000008a0       __imp_pango_font_description_copy 00000001800588a0     libpango-1.0-0:dymis00122.o
 0002:000008a8       __imp_pango_font_description_equal 00000001800588a8     libpango-1.0-0:dymis00124.o
 0002:000008b0       __imp_pango_font_description_free 00000001800588b0     libpango-1.0-0:dymis00125.o
 0002:000008b8       __imp_pango_font_description_from_string 00000001800588b8     libpango-1.0-0:dymis00126.o
 0002:000008c0       __imp_pango_font_description_get_family 00000001800588c0     libpango-1.0-0:dymis00127.o
 0002:000008c8       __imp_pango_font_description_new 00000001800588c8     libpango-1.0-0:dymis00141.o
 0002:000008d0       __imp_pango_font_description_set_absolute_size 00000001800588d0     libpango-1.0-0:dymis00142.o
 0002:000008d8       __imp_pango_font_description_set_family 00000001800588d8     libpango-1.0-0:dymis00143.o
 0002:000008e0       __imp_pango_font_description_set_family_static 00000001800588e0     libpango-1.0-0:dymis00144.o
 0002:000008e8       __imp_pango_font_description_set_stretch 00000001800588e8     libpango-1.0-0:dymis00147.o
 0002:000008f0       __imp_pango_font_description_set_style 00000001800588f0     libpango-1.0-0:dymis00148.o
 0002:000008f8       __imp_pango_font_description_set_weight 00000001800588f8     libpango-1.0-0:dymis00152.o
 0002:00000900       __imp_pango_font_metrics_get_ascent 0000000180058900     libpango-1.0-0:dymis00191.o
 0002:00000908       __imp_pango_font_metrics_unref 0000000180058908     libpango-1.0-0:dymis00201.o
 0002:00000910       __imp_pango_layout_get_baseline 0000000180058910     libpango-1.0-0:dymis00268.o
 0002:00000918       __imp_pango_layout_get_context 0000000180058918     libpango-1.0-0:dymis00270.o
 0002:00000920       __imp_pango_layout_get_extents 0000000180058920     libpango-1.0-0:dymis00274.o
 0002:00000928       __imp_pango_layout_get_font_description 0000000180058928     libpango-1.0-0:dymis00275.o
 0002:00000930       __imp_pango_layout_get_line 0000000180058930     libpango-1.0-0:dymis00280.o
 0002:00000938       __imp_pango_layout_get_pixel_extents 0000000180058938     libpango-1.0-0:dymis00288.o
 0002:00000940       __imp_pango_layout_line_get_extents 0000000180058940     libpango-1.0-0:dymis00325.o
 0002:00000948       __imp_pango_layout_set_font_description 0000000180058948     libpango-1.0-0:dymis00340.o
 0002:00000950       __imp_pango_layout_set_text 0000000180058950     libpango-1.0-0:dymis00350.o
 0002:00000960       __imp_g_object_unref       0000000180058960     libgobject-2.0-0:dyogs00162.o
 0002:00000970       __guard_check_icall_fptr   0000000180058970     LIBCMT:guard_support.obj
 0002:00000978       __guard_xfg_check_icall_fptr 0000000180058978     LIBCMT:guard_support.obj
 0002:00000980       __guard_dispatch_icall_fptr 0000000180058980     LIBCMT:guard_support.obj
 0002:00000988       __guard_xfg_dispatch_icall_fptr 0000000180058988     LIBCMT:guard_support.obj
 0002:00000990       __guard_xfg_table_dispatch_icall_fptr 0000000180058990     LIBCMT:guard_support.obj
 0002:00000998       __xc_a                     0000000180058998     LIBCMT:initializers.obj
 0002:000009c8       _register_canvas_          00000001800589c8     init.obj
 0002:00000a38       __xc_z                     0000000180058a38     LIBCMT:initializers.obj
 0002:00000a40       __xi_a                     0000000180058a40     LIBCMT:initializers.obj
 0002:00000a50       __acrt_stdio_initializer   0000000180058a50     libucrt:stdio_initializer.obj
 0002:00000a58       __acrt_tran_fma3_initializer 0000000180058a58     libucrt:fma3_initializer.obj
 0002:00000a60       __acrt_timeset_initializer 0000000180058a60     libucrt:timeset_initializer.obj
 0002:00000a68       __acrt_multibyte_initializer 0000000180058a68     libucrt:multibyte_initializer.obj
 0002:00000a70       __acrt_fmode_initializer   0000000180058a70     libucrt:fmode_initializer.obj
 0002:00000a78       __xi_z                     0000000180058a78     LIBCMT:initializers.obj
 0002:00000a80       __xp_a                     0000000180058a80     LIBCMT:initializers.obj
 0002:00000a88       __acrt_locale_terminator   0000000180058a88     libucrt:locale_initializer.obj
 0002:00000a90       __dcrt_console_output_terminator 0000000180058a90     libucrt:console_output_initializer.obj
 0002:00000a98       __acrt_stdio_terminator    0000000180058a98     libucrt:stdio_initializer.obj
 0002:00000aa0       __xp_z                     0000000180058aa0     LIBCMT:initializers.obj
 0002:00000aa8       __xt_a                     0000000180058aa8     LIBCMT:initializers.obj
 0002:00000ab0       __xt_z                     0000000180058ab0     LIBCMT:initializers.obj
 0002:00000ac0       __sz_node_exe              0000000180058ac0     node:node.exe
 0002:00000ad8       ??_7exception@std@@6B@     0000000180058ad8     libcpmt:xthrow.obj
 0002:00000ae8       ??_C@_0BC@EOODALEL@Unknown?5exception@ 0000000180058ae8     libcpmt:xthrow.obj
 0002:00000b08       ??_7bad_alloc@std@@6B@     0000000180058b08     libcpmt:xthrow.obj
 0002:00000b18       ??_C@_0P@GHFPNOJB@bad?5allocation@ 0000000180058b18     libcpmt:xthrow.obj
 0002:00000b30       ??_7bad_function_call@std@@6B@ 0000000180058b30     libcpmt:xthrow.obj
 0002:00000b40       ??_C@_0BC@DPJNKNAF@bad?5function?5call@ 0000000180058b40     libcpmt:xthrow.obj
 0002:00000b60       ??_7logic_error@std@@6B@   0000000180058b60     libcpmt:xthrow.obj
 0002:00000b78       ??_7length_error@std@@6B@  0000000180058b78     libcpmt:xthrow.obj
 0002:00000b90       ??_7runtime_error@std@@6B@ 0000000180058b90     libcpmt:xthrow.obj
 0002:00000ba0       ?nothrow@std@@3Unothrow_t@1@B 0000000180058ba0     libcpmt:nothrow.obj
 0002:00000bb0       ??_7_Facet_base@std@@6B@   0000000180058bb0     libcpmt:locale0.obj
 0002:00000bd0       ??_7_Locimp@locale@std@@6B@ 0000000180058bd0     libcpmt:locale0.obj
 0002:00000be8       ??_C@_01NBENCBCI@?$CK@     0000000180058be8     libcpmt:locale0.obj
 0002:00000bec       ??_C@_01GFHCPBMG@C@        0000000180058bec     libcpmt:locale0.obj
 0002:00000bf0       ?_BADOFF@std@@3_JB         0000000180058bf0     libcpmt:ios.obj
 0002:00001360       ??_C@_0BN@LKKBCCDB@address?5family?5not?5supported@ 0000000180059360     libcpmt:syserror.obj
 0002:00001380       ??_C@_0P@LDMLAFHI@address?5in?5use@ 0000000180059380     libcpmt:syserror.obj
 0002:00001390       ??_C@_0BG@DHPCNBJB@address?5not?5available@ 0000000180059390     libcpmt:syserror.obj
 0002:000013a8       ??_C@_0BC@DFIBIBIL@already?5connected@ 00000001800593a8     libcpmt:syserror.obj
 0002:000013c0       ??_C@_0BH@CAKOHOMI@argument?5list?5too?5long@ 00000001800593c0     libcpmt:syserror.obj
 0002:000013d8       ??_C@_0BH@CGIMPKIM@argument?5out?5of?5domain@ 00000001800593d8     libcpmt:syserror.obj
 0002:000013f0       ??_C@_0M@KGHGGJGL@bad?5address@ 00000001800593f0     libcpmt:syserror.obj
 0002:00001400       ??_C@_0BE@MPJPGCEO@bad?5file?5descriptor@ 0000000180059400     libcpmt:syserror.obj
 0002:00001418       ??_C@_0M@PMMIEFCP@bad?5message@ 0000000180059418     libcpmt:syserror.obj
 0002:00001428       ??_C@_0M@KPHOFDBE@broken?5pipe@ 0000000180059428     libcpmt:syserror.obj
 0002:00001438       ??_C@_0BD@MGNDDEGM@connection?5aborted@ 0000000180059438     libcpmt:syserror.obj
 0002:00001450       ??_C@_0BP@KAIHPOGN@connection?5already?5in?5progress@ 0000000180059450     libcpmt:syserror.obj
 0002:00001470       ??_C@_0BD@PJLIIJEL@connection?5refused@ 0000000180059470     libcpmt:syserror.obj
 0002:00001488       ??_C@_0BB@IECNJNOI@connection?5reset@ 0000000180059488     libcpmt:syserror.obj
 0002:000014a0       ??_C@_0BC@PPHBOELF@cross?5device?5link@ 00000001800594a0     libcpmt:syserror.obj
 0002:000014b8       ??_C@_0BN@KDMIFEIP@destination?5address?5required@ 00000001800594b8     libcpmt:syserror.obj
 0002:000014d8       ??_C@_0BI@NGCEHDD@device?5or?5resource?5busy@ 00000001800594d8     libcpmt:syserror.obj
 0002:000014f0       ??_C@_0BE@JIDOCPHM@directory?5not?5empty@ 00000001800594f0     libcpmt:syserror.obj
 0002:00001508       ??_C@_0BI@BNCLIGPB@executable?5format?5error@ 0000000180059508     libcpmt:syserror.obj
 0002:00001520       ??_C@_0M@MIDIAGJP@file?5exists@ 0000000180059520     libcpmt:syserror.obj
 0002:00001530       ??_C@_0P@DNAJLBJK@file?5too?5large@ 0000000180059530     libcpmt:syserror.obj
 0002:00001540       ??_C@_0BC@EJHOMAAK@filename?5too?5long@ 0000000180059540     libcpmt:syserror.obj
 0002:00001558       ??_C@_0BH@KEFGLDAF@function?5not?5supported@ 0000000180059558     libcpmt:syserror.obj
 0002:00001570       ??_C@_0BB@DHFDFGDM@host?5unreachable@ 0000000180059570     libcpmt:syserror.obj
 0002:00001588       ??_C@_0BD@JPHBMONG@identifier?5removed@ 0000000180059588     libcpmt:syserror.obj
 0002:000015a0       ??_C@_0BG@CDNPAGJK@illegal?5byte?5sequence@ 00000001800595a0     libcpmt:syserror.obj
 0002:000015b8       ??_C@_0CD@BNPLBMNA@inappropriate?5io?5control?5operat@ 00000001800595b8     libcpmt:syserror.obj
 0002:000015e0       ??_C@_0M@EGEKIIMP@interrupted@ 00000001800595e0     libcpmt:syserror.obj
 0002:000015f0       ??_C@_0BB@FCMFBGOM@invalid?5argument@ 00000001800595f0     libcpmt:syserror.obj
 0002:00001608       ??_C@_0N@OHAFKDEK@invalid?5seek@ 0000000180059608     libcpmt:syserror.obj
 0002:00001618       ??_C@_08GLNPIFBN@io?5error@ 0000000180059618     libcpmt:syserror.obj
 0002:00001628       ??_C@_0P@FLLDBIDK@is?5a?5directory@ 0000000180059628     libcpmt:syserror.obj
 0002:00001638       ??_C@_0N@IFLPBIOP@message?5size@ 0000000180059638     libcpmt:syserror.obj
 0002:00001648       ??_C@_0N@KIIEAAIO@network?5down@ 0000000180059648     libcpmt:syserror.obj
 0002:00001658       ??_C@_0O@FNPDBHEE@network?5reset@ 0000000180059658     libcpmt:syserror.obj
 0002:00001668       ??_C@_0BE@IFNCKGE@network?5unreachable@ 0000000180059668     libcpmt:syserror.obj
 0002:00001680       ??_C@_0BA@PFFCAOFK@no?5buffer?5space@ 0000000180059680     libcpmt:syserror.obj
 0002:00001690       ??_C@_0BB@IEPBLJHK@no?5child?5process@ 0000000180059690     libcpmt:syserror.obj
 0002:000016a8       ??_C@_07PLECNNKG@no?5link@ 00000001800596a8     libcpmt:syserror.obj
 0002:000016b0       ??_C@_0BC@NJECKMKE@no?5lock?5available@ 00000001800596b0     libcpmt:syserror.obj
 0002:000016c8       ??_C@_0BF@PBGGPKKE@no?5message?5available@ 00000001800596c8     libcpmt:syserror.obj
 0002:000016e0       ??_C@_0L@EDOLMPAK@no?5message@ 00000001800596e0     libcpmt:syserror.obj
 0002:000016f0       ??_C@_0BD@EAMBFIDF@no?5protocol?5option@ 00000001800596f0     libcpmt:syserror.obj
 0002:00001708       ??_C@_0BD@IJDJKDEA@no?5space?5on?5device@ 0000000180059708     libcpmt:syserror.obj
 0002:00001720       ??_C@_0BE@MKFDAFMP@no?5stream?5resources@ 0000000180059720     libcpmt:syserror.obj
 0002:00001738       ??_C@_0BK@IMCPHCBI@no?5such?5device?5or?5address@ 0000000180059738     libcpmt:syserror.obj
 0002:00001758       ??_C@_0P@FDINDDOK@no?5such?5device@ 0000000180059758     libcpmt:syserror.obj
 0002:00001768       ??_C@_0BK@NDOCBPGE@no?5such?5file?5or?5directory@ 0000000180059768     libcpmt:syserror.obj
 0002:00001788       ??_C@_0BA@ENLPPKBN@no?5such?5process@ 0000000180059788     libcpmt:syserror.obj
 0002:00001798       ??_C@_0BA@DOCPFFJG@not?5a?5directory@ 0000000180059798     libcpmt:syserror.obj
 0002:000017a8       ??_C@_0N@POEIPGGF@not?5a?5socket@ 00000001800597a8     libcpmt:syserror.obj
 0002:000017b8       ??_C@_0N@LGAPMMPI@not?5a?5stream@ 00000001800597b8     libcpmt:syserror.obj
 0002:000017c8       ??_C@_0O@GLMIBBEG@not?5connected@ 00000001800597c8     libcpmt:syserror.obj
 0002:000017d8       ??_C@_0BC@ENOOLCNF@not?5enough?5memory@ 00000001800597d8     libcpmt:syserror.obj
 0002:000017f0       ??_C@_0O@NHEDABJP@not?5supported@ 00000001800597f0     libcpmt:syserror.obj
 0002:00001800       ??_C@_0BD@MOLBPMEA@operation?5canceled@ 0000000180059800     libcpmt:syserror.obj
 0002:00001818       ??_C@_0BG@KDKHOPCO@operation?5in?5progress@ 0000000180059818     libcpmt:syserror.obj
 0002:00001830       ??_C@_0BI@OHIEJAAB@operation?5not?5permitted@ 0000000180059830     libcpmt:syserror.obj
 0002:00001848       ??_C@_0BI@LNEGIFLN@operation?5not?5supported@ 0000000180059848     libcpmt:syserror.obj
 0002:00001860       ??_C@_0BG@OEMDKMEE@operation?5would?5block@ 0000000180059860     libcpmt:syserror.obj
 0002:00001878       ??_C@_0L@BLPOFLNJ@owner?5dead@ 0000000180059878     libcpmt:syserror.obj
 0002:00001888       ??_C@_0BC@CIJDGCDI@permission?5denied@ 0000000180059888     libcpmt:syserror.obj
 0002:000018a0       ??_C@_0P@FNPOCJBE@protocol?5error@ 00000001800598a0     libcpmt:syserror.obj
 0002:000018b0       ??_C@_0BH@JPPPLHJB@protocol?5not?5supported@ 00000001800598b0     libcpmt:syserror.obj
 0002:000018c8       ??_C@_0BG@EICBIHDP@read?5only?5file?5system@ 00000001800598c8     libcpmt:syserror.obj
 0002:000018e0       ??_C@_0BO@BJBOMOEJ@resource?5deadlock?5would?5occur@ 00000001800598e0     libcpmt:syserror.obj
 0002:00001900       ??_C@_0BP@LKNGHENJ@resource?5unavailable?5try?5again@ 0000000180059900     libcpmt:syserror.obj
 0002:00001920       ??_C@_0BE@GOIPJJHG@result?5out?5of?5range@ 0000000180059920     libcpmt:syserror.obj
 0002:00001938       ??_C@_0BG@MPLKFPAE@state?5not?5recoverable@ 0000000180059938     libcpmt:syserror.obj
 0002:00001950       ??_C@_0P@DIIFGFCG@stream?5timeout@ 0000000180059950     libcpmt:syserror.obj
 0002:00001960       ??_C@_0P@IPFDMIFL@text?5file?5busy@ 0000000180059960     libcpmt:syserror.obj
 0002:00001970       ??_C@_09KJPPMAOI@timed?5out@ 0000000180059970     libcpmt:syserror.obj
 0002:00001980       ??_C@_0BO@HACHBEKI@too?5many?5files?5open?5in?5system@ 0000000180059980     libcpmt:syserror.obj
 0002:000019a0       ??_C@_0BE@GHAFMPAH@too?5many?5files?5open@ 00000001800599a0     libcpmt:syserror.obj
 0002:000019b8       ??_C@_0P@HCOMKFCC@too?5many?5links@ 00000001800599b8     libcpmt:syserror.obj
 0002:000019c8       ??_C@_0BO@EFGOJEF@too?5many?5symbolic?5link?5levels@ 00000001800599c8     libcpmt:syserror.obj
 0002:000019e8       ??_C@_0BA@KGKGOOJA@value?5too?5large@ 00000001800599e8     libcpmt:syserror.obj
 0002:000019f8       ??_C@_0BE@MIEJDDNH@wrong?5protocol?5type@ 00000001800599f8     libcpmt:syserror.obj
 0002:00001a10       ??_C@_0O@BFJCFAAK@unknown?5error@ 0000000180059a10     libcpmt:syserror.obj
 0002:00001a28       ??_7bad_array_new_length@std@@6B@ 0000000180059a28     libcpmt:locale.obj
 0002:00001a40       ??_7?$ctype@D@std@@6B@     0000000180059a40     libcpmt:locale.obj
 0002:00001ba0       ??_C@_1BK@MGMFAEKH@?$AAk?$AAe?$AAr?$AAn?$AAe?$AAl?$AA3?$AA2?$AA?4?$AAd?$AAl?$AAl@ 0000000180059ba0     libcpmt:winapisupp.obj
 0002:00001bc0       ??_C@_08KNHFBNJ@FlsAlloc@  0000000180059bc0     libcpmt:winapisupp.obj
 0002:00001bd0       ??_C@_07PEJMOBNF@FlsFree@  0000000180059bd0     libcpmt:winapisupp.obj
 0002:00001bd8       ??_C@_0M@GDNOONDI@FlsGetValue@ 0000000180059bd8     libcpmt:winapisupp.obj
 0002:00001be8       ??_C@_0M@JCPCPOEF@FlsSetValue@ 0000000180059be8     libcpmt:winapisupp.obj
 0002:00001bf8       ??_C@_0BM@HCFOFFN@InitializeCriticalSectionEx@ 0000000180059bf8     libcpmt:winapisupp.obj
 0002:00001c18       ??_C@_0BE@GPLMMCMH@InitOnceExecuteOnce@ 0000000180059c18     libcpmt:winapisupp.obj
 0002:00001c30       ??_C@_0P@DLHPPCNH@CreateEventExW@ 0000000180059c30     libcpmt:winapisupp.obj
 0002:00001c40       ??_C@_0BB@MEFPJLHN@CreateSemaphoreW@ 0000000180059c40     libcpmt:winapisupp.obj
 0002:00001c58       ??_C@_0BD@KIEEOEEH@CreateSemaphoreExW@ 0000000180059c58     libcpmt:winapisupp.obj
 0002:00001c70       ??_C@_0BG@OGFAJCKC@CreateThreadpoolTimer@ 0000000180059c70     libcpmt:winapisupp.obj
 0002:00001c88       ??_C@_0BD@LPLEMMDI@SetThreadpoolTimer@ 0000000180059c88     libcpmt:winapisupp.obj
 0002:00001ca0       ??_C@_0CA@FMNJENH@WaitForThreadpoolTimerCallbacks@ 0000000180059ca0     libcpmt:winapisupp.obj
 0002:00001cc0       ??_C@_0BF@DCFCCNOC@CloseThreadpoolTimer@ 0000000180059cc0     libcpmt:winapisupp.obj
 0002:00001cd8       ??_C@_0BF@FLABGKKM@CreateThreadpoolWait@ 0000000180059cd8     libcpmt:winapisupp.obj
 0002:00001cf0       ??_C@_0BC@MGCOHNA@SetThreadpoolWait@ 0000000180059cf0     libcpmt:winapisupp.obj
 0002:00001d08       ??_C@_0BE@OCIOMIMP@CloseThreadpoolWait@ 0000000180059d08     libcpmt:winapisupp.obj
 0002:00001d20       ??_C@_0BJ@LKGHFHBO@FlushProcessWriteBuffers@ 0000000180059d20     libcpmt:winapisupp.obj
 0002:00001d40       ??_C@_0BP@KALKKPMO@FreeLibraryWhenCallbackReturns@ 0000000180059d40     libcpmt:winapisupp.obj
 0002:00001d60       ??_C@_0BK@DFNBACLA@GetCurrentProcessorNumber@ 0000000180059d60     libcpmt:winapisupp.obj
 0002:00001d80       ??_C@_0BE@FKKLLFLM@CreateSymbolicLinkW@ 0000000180059d80     libcpmt:winapisupp.obj
 0002:00001d98       ??_C@_0BE@JOGNEJCI@GetCurrentPackageId@ 0000000180059d98     libcpmt:winapisupp.obj
 0002:00001db0       ??_C@_0P@CDHHOHKP@GetTickCount64@ 0000000180059db0     libcpmt:winapisupp.obj
 0002:00001dc0       ??_C@_0BN@NEEHBBPO@GetFileInformationByHandleEx@ 0000000180059dc0     libcpmt:winapisupp.obj
 0002:00001de0       ??_C@_0BL@KBBHGKCM@SetFileInformationByHandle@ 0000000180059de0     libcpmt:winapisupp.obj
 0002:00001e00       ??_C@_0BP@FPNJPEJC@GetSystemTimePreciseAsFileTime@ 0000000180059e00     libcpmt:winapisupp.obj
 0002:00001e20       ??_C@_0BM@HLJJNPAH@InitializeConditionVariable@ 0000000180059e20     libcpmt:winapisupp.obj
 0002:00001e40       ??_C@_0BG@BFNILBLN@WakeConditionVariable@ 0000000180059e40     libcpmt:winapisupp.obj
 0002:00001e58       ??_C@_0BJ@PGPPEPCC@WakeAllConditionVariable@ 0000000180059e58     libcpmt:winapisupp.obj
 0002:00001e78       ??_C@_0BJ@JEBJOJFJ@SleepConditionVariableCS@ 0000000180059e78     libcpmt:winapisupp.obj
 0002:00001e98       ??_C@_0BC@MMLHEBPB@InitializeSRWLock@ 0000000180059e98     libcpmt:winapisupp.obj
 0002:00001eb0       ??_C@_0BI@OMNLIJDB@AcquireSRWLockExclusive@ 0000000180059eb0     libcpmt:winapisupp.obj
 0002:00001ec8       ??_C@_0BL@OGHFEMNA@TryAcquireSRWLockExclusive@ 0000000180059ec8     libcpmt:winapisupp.obj
 0002:00001ee8       ??_C@_0BI@HMIEPCNJ@ReleaseSRWLockExclusive@ 0000000180059ee8     libcpmt:winapisupp.obj
 0002:00001f00       ??_C@_0BK@LGACAGIC@SleepConditionVariableSRW@ 0000000180059f00     libcpmt:winapisupp.obj
 0002:00001f20       ??_C@_0BF@GGPHFPJA@CreateThreadpoolWork@ 0000000180059f20     libcpmt:winapisupp.obj
 0002:00001f38       ??_C@_0BF@NHDAIMMO@SubmitThreadpoolWork@ 0000000180059f38     libcpmt:winapisupp.obj
 0002:00001f50       ??_C@_0BE@NPHIPNPD@CloseThreadpoolWork@ 0000000180059f50     libcpmt:winapisupp.obj
 0002:00001f68       ??_C@_0BA@IHGNDAEB@CompareStringEx@ 0000000180059f68     libcpmt:winapisupp.obj
 0002:00001f78       ??_C@_0BA@ONOKGCMP@GetLocaleInfoEx@ 0000000180059f78     libcpmt:winapisupp.obj
 0002:00001f88       ??_C@_0O@KKBNKAPF@LCMapStringEx@ 0000000180059f88     libcpmt:winapisupp.obj
 0002:00001f98       ??_C@_11LOCGONAA@@         0000000180059f98     libcpmt:wlocale.obj
 0002:00001f9c       ??_C@_13IMODFHAA@?$AA?9@   0000000180059f9c     libcpmt:wlocale.obj
 0002:00001fa0       ??_C@_01JOAMLHOP@?9@       0000000180059fa0     libcpmt:wlocale.obj
 0002:00003cd0       ??_C@_15EMKDOKLE@?$AAa?$AAr@ 000000018005bcd0     libcpmt:winapinls.obj
 0002:00003cd8       ??_C@_15KNPADPLH@?$AAb?$AAg@ 000000018005bcd8     libcpmt:winapinls.obj
 0002:00003ce0       ??_C@_15EDMHLDMO@?$AAc?$AAa@ 000000018005bce0     libcpmt:winapinls.obj
 0002:00003ce8       ??_C@_1O@BPEAJADD@?$AAz?$AAh?$AA?9?$AAC?$AAH?$AAS@ 000000018005bce8     libcpmt:winapinls.obj
 0002:00003cf8       ??_C@_15LJNHCMNK@?$AAc?$AAs@ 000000018005bcf8     libcpmt:winapinls.obj
 0002:00003d00       ??_C@_15FOMCIDHG@?$AAd?$AAa@ 000000018005bd00     libcpmt:winapinls.obj
 0002:00003d08       ??_C@_15NBKABECB@?$AAd?$AAe@ 000000018005bd08     libcpmt:winapinls.obj
 0002:00003d10       ??_C@_15GHPEIIAO@?$AAe?$AAl@ 000000018005bd10     libcpmt:winapinls.obj
 0002:00003d18       ??_C@_15MNPNEAIF@?$AAe?$AAn@ 000000018005bd18     libcpmt:winapinls.obj
 0002:00003d20       ??_C@_15GPIOMPMH@?$AAe?$AAs@ 000000018005bd20     libcpmt:winapinls.obj
 0002:00003d28       ??_C@_15NGLOAKJC@?$AAf?$AAi@ 000000018005bd28     libcpmt:winapinls.obj
 0002:00003d30       ??_C@_15FBKGNKAM@?$AAf?$AAr@ 000000018005bd30     libcpmt:winapinls.obj
 0002:00003d38       ??_C@_15KGGCNEFK@?$AAh?$AAe@ 000000018005bd38     libcpmt:winapinls.obj
 0002:00003d40       ??_C@_15PGHLIDMF@?$AAh?$AAu@ 000000018005bd40     libcpmt:winapinls.obj
 0002:00003d48       ??_C@_15BIEMAPLM@?$AAi?$AAs@ 000000018005bd48     libcpmt:winapinls.obj
 0002:00003d50       ??_C@_15IFJLDHAF@?$AAi?$AAt@ 000000018005bd50     libcpmt:winapinls.obj
 0002:00003d58       ??_C@_15GEMIOCAG@?$AAj?$AAa@ 000000018005bd58     libcpmt:winapinls.obj
 0002:00003d60       ??_C@_15EPELEGJA@?$AAk?$AAo@ 000000018005bd60     libcpmt:winapinls.obj
 0002:00003d68       ??_C@_15NDDHIMN@?$AAn?$AAl@ 000000018005bd68     libcpmt:winapinls.obj
 0002:00003d70       ??_C@_15BPIGNHCD@?$AAn?$AAo@ 000000018005bd70     libcpmt:winapinls.obj
 0002:00003d78       ??_C@_15DEOPBLCG@?$AAp?$AAl@ 000000018005bd78     libcpmt:winapinls.obj
 0002:00003d80       ??_C@_15KBECGEFG@?$AAp?$AAt@ 000000018005bd80     libcpmt:winapinls.obj
 0002:00003d88       ??_C@_15GLJCBFMD@?$AAr?$AAo@ 000000018005bd88     libcpmt:winapinls.obj
 0002:00003d90       ??_C@_15FEDGKCDI@?$AAr?$AAu@ 000000018005bd90     libcpmt:winapinls.obj
 0002:00003d98       ??_C@_15GLKMLLHM@?$AAh?$AAr@ 000000018005bd98     libcpmt:winapinls.obj
 0002:00003da0       ??_C@_15CPKMFBDB@?$AAs?$AAk@ 000000018005bda0     libcpmt:winapinls.obj
 0002:00003da8       ??_C@_15BAAIOGMK@?$AAs?$AAq@ 000000018005bda8     libcpmt:winapinls.obj
 0002:00003db0       ??_C@_15INNPNOHD@?$AAs?$AAv@ 000000018005bdb0     libcpmt:winapinls.obj
 0002:00003db8       ??_C@_15CABMMOGH@?$AAt?$AAh@ 000000018005bdb8     libcpmt:winapinls.obj
 0002:00003dc0       ??_C@_15BPLIHJJM@?$AAt?$AAr@ 000000018005bdc0     libcpmt:winapinls.obj
 0002:00003dc8       ??_C@_15NEOEKKDJ@?$AAu?$AAr@ 000000018005bdc8     libcpmt:winapinls.obj
 0002:00003dd0       ??_C@_15NFICGAJK@?$AAi?$AAd@ 000000018005bdd0     libcpmt:winapinls.obj
 0002:00003dd8       ??_C@_15PJPFLCCM@?$AAu?$AAk@ 000000018005bdd8     libcpmt:winapinls.obj
 0002:00003de0       ??_C@_15HPJPHDM@?$AAb?$AAe@ 000000018005bde0     libcpmt:winapinls.obj
 0002:00003de8       ??_C@_15LCHLGJII@?$AAs?$AAl@ 000000018005bde8     libcpmt:winapinls.obj
 0002:00003df0       ??_C@_15PCFJPHHO@?$AAe?$AAt@ 000000018005bdf0     libcpmt:winapinls.obj
 0002:00003df8       ??_C@_15HPFPGODN@?$AAl?$AAv@ 000000018005bdf8     libcpmt:winapinls.obj
 0002:00003e00       ??_C@_15NFFGKGLG@?$AAl?$AAt@ 000000018005be00     libcpmt:winapinls.obj
 0002:00003e08       ??_C@_15BDAKCCHN@?$AAf?$AAa@ 000000018005be08     libcpmt:winapinls.obj
 0002:00003e10       ??_C@_15NFGIAIAJ@?$AAv?$AAi@ 000000018005be10     libcpmt:winapinls.obj
 0002:00003e18       ??_C@_15LMKNDMHN@?$AAh?$AAy@ 000000018005be18     libcpmt:winapinls.obj
 0002:00003e20       ??_C@_15IJBHMCFL@?$AAa?$AAz@ 000000018005be20     libcpmt:winapinls.obj
 0002:00003e28       ??_C@_15EKOFJABL@?$AAe?$AAu@ 000000018005be28     libcpmt:winapinls.obj
 0002:00003e30       ??_C@_15BGHADCNK@?$AAm?$AAk@ 000000018005be30     libcpmt:winapinls.obj
 0002:00003e38       ??_C@_15JDNICKHM@?$AAa?$AAf@ 000000018005be38     libcpmt:winapinls.obj
 0002:00003e40       ??_C@_15KPJEDBKD@?$AAk?$AAa@ 000000018005be40     libcpmt:winapinls.obj
 0002:00003e48       ??_C@_15PDNFFFEO@?$AAf?$AAo@ 000000018005be48     libcpmt:winapinls.obj
 0002:00003e50       ??_C@_15OMLEGLOC@?$AAh?$AAi@ 000000018005be50     libcpmt:winapinls.obj
 0002:00003e58       ??_C@_15IDNNENKK@?$AAm?$AAs@ 000000018005be58     libcpmt:winapinls.obj
 0002:00003e60       ??_C@_15MACJNBMH@?$AAk?$AAk@ 000000018005be60     libcpmt:winapinls.obj
 0002:00003e68       ??_C@_15DKDJEOND@?$AAk?$AAy@ 000000018005be68     libcpmt:winapinls.obj
 0002:00003e70       ??_C@_15DFGDLJBG@?$AAs?$AAw@ 000000018005be70     libcpmt:winapinls.obj
 0002:00003e78       ??_C@_15BBFAICNG@?$AAu?$AAz@ 000000018005be78     libcpmt:winapinls.obj
 0002:00003e80       ??_C@_15DKNDCGEA@?$AAt?$AAt@ 000000018005be80     libcpmt:winapinls.obj
 0002:00003e88       ??_C@_15MGIFMDPL@?$AAp?$AAa@ 000000018005be88     libcpmt:winapinls.obj
 0002:00003e90       ??_C@_15HCNDBBA@?$AAg?$AAu@ 000000018005be90     libcpmt:winapinls.obj
 0002:00003e98       ??_C@_15FNBEIBON@?$AAt?$AAa@ 000000018005be98     libcpmt:winapinls.obj
 0002:00003ea0       ??_C@_15NCHGBGLK@?$AAt?$AAe@ 000000018005bea0     libcpmt:winapinls.obj
 0002:00003ea8       ??_C@_15PHPHCBPF@?$AAk?$AAn@ 000000018005bea8     libcpmt:winapinls.obj
 0002:00003eb0       ??_C@_15DLGBCKMP@?$AAm?$AAr@ 000000018005beb0     libcpmt:winapinls.obj
 0002:00003eb8       ??_C@_15EABBLBFF@?$AAs?$AAa@ 000000018005beb8     libcpmt:winapinls.obj
 0002:00003ec0       ??_C@_15CBKOMCOI@?$AAm?$AAn@ 000000018005bec0     libcpmt:winapinls.obj
 0002:00003ec8       ??_C@_15CKDMCJAF@?$AAg?$AAl@ 000000018005bec8     libcpmt:winapinls.obj
 0002:00003ed0       ??_C@_17CNJFBPG@?$AAk?$AAo?$AAk@ 000000018005bed0     libcpmt:winapinls.obj
 0002:00003ed8       ??_C@_17FFBJICPL@?$AAs?$AAy?$AAr@ 000000018005bed8     libcpmt:winapinls.obj
 0002:00003ee0       ??_C@_17KPNDCPAF@?$AAd?$AAi?$AAv@ 000000018005bee0     libcpmt:winapinls.obj
 0002:00003ee8       ??_C@_1M@OKAHONE@?$AAa?$AAr?$AA?9?$AAS?$AAA@ 000000018005bee8     libcpmt:winapinls.obj
 0002:00003ef8       ??_C@_1M@FFFIGIGK@?$AAb?$AAg?$AA?9?$AAB?$AAG@ 000000018005bef8     libcpmt:winapinls.obj
 0002:00003f08       ??_C@_1M@BJNKEDC@?$AAc?$AAa?$AA?9?$AAE?$AAS@ 000000018005bf08     libcpmt:winapinls.obj
 0002:00003f18       ??_C@_1M@CLNBBOPM@?$AAz?$AAh?$AA?9?$AAT?$AAW@ 000000018005bf18     libcpmt:winapinls.obj
 0002:00003f28       ??_C@_1M@IJJHFJHA@?$AAc?$AAs?$AA?9?$AAC?$AAZ@ 000000018005bf28     libcpmt:winapinls.obj
 0002:00003f38       ??_C@_1M@CLPEOBGI@?$AAd?$AAa?$AA?9?$AAD?$AAK@ 000000018005bf38     libcpmt:winapinls.obj
 0002:00003f48       ??_C@_1M@MCMADGCB@?$AAd?$AAe?$AA?9?$AAD?$AAE@ 000000018005bf48     libcpmt:winapinls.obj
 0002:00003f58       ??_C@_1M@OOCKEMAM@?$AAe?$AAl?$AA?9?$AAG?$AAR@ 000000018005bf58     libcpmt:winapinls.obj
 0002:00003f68       ??_C@_1M@BMHNFIME@?$AAe?$AAn?$AA?9?$AAU?$AAS@ 000000018005bf68     libcpmt:winapinls.obj
 0002:00003f78       ??_C@_1M@DDNJFGID@?$AAf?$AAi?$AA?9?$AAF?$AAI@ 000000018005bf78     libcpmt:winapinls.obj
 0002:00003f88       ??_C@_1M@GLIPPMAC@?$AAf?$AAr?$AA?9?$AAF?$AAR@ 000000018005bf88     libcpmt:winapinls.obj
 0002:00003f98       ??_C@_1M@GFMCHPE@?$AAh?$AAe?$AA?9?$AAI?$AAL@ 000000018005bf98     libcpmt:winapinls.obj
 0002:00003fa8       ??_C@_1M@MHLPGNKM@?$AAh?$AAu?$AA?9?$AAH?$AAU@ 000000018005bfa8     libcpmt:winapinls.obj
 0002:00003fb8       ??_C@_1M@LPDDNNPN@?$AAi?$AAs?$AA?9?$AAI?$AAS@ 000000018005bfb8     libcpmt:winapinls.obj
 0002:00003fc8       ??_C@_1M@MADIPODN@?$AAi?$AAt?$AA?9?$AAI?$AAT@ 000000018005bfc8     libcpmt:winapinls.obj
 0002:00003fd8       ??_C@_1M@HPNHIDJI@?$AAj?$AAa?$AA?9?$AAJ?$AAP@ 000000018005bfd8     libcpmt:winapinls.obj
 0002:00003fe8       ??_C@_1M@JLOOOEGK@?$AAk?$AAo?$AA?9?$AAK?$AAR@ 000000018005bfe8     libcpmt:winapinls.obj
 0002:00003ff8       ??_C@_1M@IHBJJGG@?$AAn?$AAl?$AA?9?$AAN?$AAL@ 000000018005bff8     libcpmt:winapinls.obj
 0002:00004008       ??_C@_1M@EANAGDL@?$AAn?$AAb?$AA?9?$AAN?$AAO@ 000000018005c008     libcpmt:winapinls.obj
 0002:00004018       ??_C@_1M@NEIEMEGP@?$AAp?$AAl?$AA?9?$AAP?$AAL@ 000000018005c018     libcpmt:winapinls.obj
 0002:00004028       ??_C@_1M@BOCFIGEP@?$AAp?$AAt?$AA?9?$AAB?$AAR@ 000000018005c028     libcpmt:winapinls.obj
 0002:00004038       ??_C@_1M@IMPFOPBG@?$AAr?$AAo?$AA?9?$AAR?$AAO@ 000000018005c038     libcpmt:winapinls.obj
 0002:00004048       ??_C@_1M@IDNNEJMM@?$AAr?$AAu?$AA?9?$AAR?$AAU@ 000000018005c048     libcpmt:winapinls.obj
 0002:00004058       ??_C@_1M@LILEEOGM@?$AAh?$AAr?$AA?9?$AAH?$AAR@ 000000018005c058     libcpmt:winapinls.obj
 0002:00004068       ??_C@_1M@FKIFEHPB@?$AAs?$AAk?$AA?9?$AAS?$AAK@ 000000018005c068     libcpmt:winapinls.obj
 0002:00004078       ??_C@_1M@LJMAMNPJ@?$AAs?$AAq?$AA?9?$AAA?$AAL@ 000000018005c078     libcpmt:winapinls.obj
 0002:00004088       ??_C@_1M@GIAKDKJK@?$AAs?$AAv?$AA?9?$AAS?$AAE@ 000000018005c088     libcpmt:winapinls.obj
 0002:00004098       ??_C@_1M@MKJKIKCL@?$AAt?$AAh?$AA?9?$AAT?$AAH@ 000000018005c098     libcpmt:winapinls.obj
 0002:000040a8       ??_C@_1M@MFLCCMPB@?$AAt?$AAr?$AA?9?$AAT?$AAR@ 000000018005c0a8     libcpmt:winapinls.obj
 0002:000040b8       ??_C@_1M@OIJHDKJN@?$AAu?$AAr?$AA?9?$AAP?$AAK@ 000000018005c0b8     libcpmt:winapinls.obj
 0002:000040c8       ??_C@_1M@LHIPCIEK@?$AAi?$AAd?$AA?9?$AAI?$AAD@ 000000018005c0c8     libcpmt:winapinls.obj
 0002:000040d8       ??_C@_1M@MFMOBGI@?$AAu?$AAk?$AA?9?$AAU?$AAA@ 000000018005c0d8     libcpmt:winapinls.obj
 0002:000040e8       ??_C@_1M@OBGLJIPL@?$AAb?$AAe?$AA?9?$AAB?$AAY@ 000000018005c0e8     libcpmt:winapinls.obj
 0002:000040f8       ??_C@_1M@BCFAJEAD@?$AAs?$AAl?$AA?9?$AAS?$AAI@ 000000018005c0f8     libcpmt:winapinls.obj
 0002:00004108       ??_C@_1M@FKFFEDDN@?$AAe?$AAt?$AA?9?$AAE?$AAE@ 000000018005c108     libcpmt:winapinls.obj
 0002:00004118       ??_C@_1M@KGKKAACI@?$AAl?$AAv?$AA?9?$AAL?$AAV@ 000000018005c118     libcpmt:winapinls.obj
 0002:00004128       ??_C@_1M@IFGBIJO@?$AAl?$AAt?$AA?9?$AAL?$AAT@ 000000018005c128     libcpmt:winapinls.obj
 0002:00004138       ??_C@_1M@FGEAHEDM@?$AAf?$AAa?$AA?9?$AAI?$AAR@ 000000018005c138     libcpmt:winapinls.obj
 0002:00004148       ??_C@_1M@KBMAIBFN@?$AAv?$AAi?$AA?9?$AAV?$AAN@ 000000018005c148     libcpmt:winapinls.obj
 0002:00004158       ??_C@_1M@GPCBKDJK@?$AAh?$AAy?$AA?9?$AAA?$AAM@ 000000018005c158     libcpmt:winapinls.obj
 0002:00004168       ??_C@_1BG@BECMDDJB@?$AAa?$AAz?$AA?9?$AAA?$AAZ?$AA?9?$AAL?$AAa?$AAt?$AAn@ 000000018005c168     libcpmt:winapinls.obj
 0002:00004180       ??_C@_1M@MAOFCAEA@?$AAe?$AAu?$AA?9?$AAE?$AAS@ 000000018005c180     libcpmt:winapinls.obj
 0002:00004190       ??_C@_1M@IGHABKPI@?$AAm?$AAk?$AA?9?$AAM?$AAK@ 000000018005c190     libcpmt:winapinls.obj
 0002:000041a0       ??_C@_1M@IAIGNEJG@?$AAt?$AAn?$AA?9?$AAZ?$AAA@ 000000018005c1a0     libcpmt:winapinls.obj
 0002:000041b0       ??_C@_1M@IIJCOJFA@?$AAx?$AAh?$AA?9?$AAZ?$AAA@ 000000018005c1b0     libcpmt:winapinls.obj
 0002:000041c0       ??_C@_1M@LGPJHNJH@?$AAz?$AAu?$AA?9?$AAZ?$AAA@ 000000018005c1c0     libcpmt:winapinls.obj
 0002:000041d0       ??_C@_1M@HOKAOIO@?$AAa?$AAf?$AA?9?$AAZ?$AAA@ 000000018005c1d0     libcpmt:winapinls.obj
 0002:000041e0       ??_C@_1M@DPCLHLIE@?$AAk?$AAa?$AA?9?$AAG?$AAE@ 000000018005c1e0     libcpmt:winapinls.obj
 0002:000041f0       ??_C@_1M@BLKMHJBI@?$AAf?$AAo?$AA?9?$AAF?$AAO@ 000000018005c1f0     libcpmt:winapinls.obj
 0002:00004200       ??_C@_1M@LGGJAPPB@?$AAh?$AAi?$AA?9?$AAI?$AAN@ 000000018005c200     libcpmt:winapinls.obj
 0002:00004210       ??_C@_1M@FIKPIHFE@?$AAm?$AAt?$AA?9?$AAM?$AAT@ 000000018005c210     libcpmt:winapinls.obj
 0002:00004220       ??_C@_1M@HEGGPBFA@?$AAs?$AAe?$AA?9?$AAN?$AAO@ 000000018005c220     libcpmt:winapinls.obj
 0002:00004230       ??_C@_1M@EIBJEEPA@?$AAm?$AAs?$AA?9?$AAM?$AAY@ 000000018005c230     libcpmt:winapinls.obj
 0002:00004240       ??_C@_1M@FHLBGMPP@?$AAk?$AAk?$AA?9?$AAK?$AAZ@ 000000018005c240     libcpmt:winapinls.obj
 0002:00004250       ??_C@_1M@NGJJLCGI@?$AAk?$AAy?$AA?9?$AAK?$AAG@ 000000018005c250     libcpmt:winapinls.obj
 0002:00004260       ??_C@_1M@GIENNBFC@?$AAs?$AAw?$AA?9?$AAK?$AAE@ 000000018005c260     libcpmt:winapinls.obj
 0002:00004270       ??_C@_1BG@NDGMJIMJ@?$AAu?$AAz?$AA?9?$AAU?$AAZ?$AA?9?$AAL?$AAa?$AAt?$AAn@ 000000018005c270     libcpmt:winapinls.obj
 0002:00004288       ??_C@_1M@IDCCIHBC@?$AAt?$AAt?$AA?9?$AAR?$AAU@ 000000018005c288     libcpmt:winapinls.obj
 0002:00004298       ??_C@_1M@LOICPMOJ@?$AAb?$AAn?$AA?9?$AAI?$AAN@ 000000018005c298     libcpmt:winapinls.obj
 0002:000042a8       ??_C@_1M@KPKKNEAH@?$AAp?$AAa?$AA?9?$AAI?$AAN@ 000000018005c2a8     libcpmt:winapinls.obj
 0002:000042b8       ??_C@_1M@PJGPPBOG@?$AAg?$AAu?$AA?9?$AAI?$AAN@ 000000018005c2b8     libcpmt:winapinls.obj
 0002:000042c8       ??_C@_1M@KMKMOPHI@?$AAt?$AAa?$AA?9?$AAI?$AAN@ 000000018005c2c8     libcpmt:winapinls.obj
 0002:000042d8       ??_C@_1M@KFEHEPAC@?$AAt?$AAe?$AA?9?$AAI?$AAN@ 000000018005c2d8     libcpmt:winapinls.obj
 0002:000042e8       ??_C@_1M@CDCLMGHI@?$AAk?$AAn?$AA?9?$AAI?$AAN@ 000000018005c2e8     libcpmt:winapinls.obj
 0002:000042f8       ??_C@_1M@MIODLDKF@?$AAm?$AAl?$AA?9?$AAI?$AAN@ 000000018005c2f8     libcpmt:winapinls.obj
 0002:00004308       ??_C@_1M@PBIEACPO@?$AAm?$AAr?$AA?9?$AAI?$AAN@ 000000018005c308     libcpmt:winapinls.obj
 0002:00004318       ??_C@_1M@NIDEAGPH@?$AAs?$AAa?$AA?9?$AAI?$AAN@ 000000018005c318     libcpmt:winapinls.obj
 0002:00004328       ??_C@_1M@FHIHCBIO@?$AAm?$AAn?$AA?9?$AAM?$AAN@ 000000018005c328     libcpmt:winapinls.obj
 0002:00004338       ??_C@_1M@JAIJPENP@?$AAc?$AAy?$AA?9?$AAG?$AAB@ 000000018005c338     libcpmt:winapinls.obj
 0002:00004348       ??_C@_1M@PHGFBEPN@?$AAg?$AAl?$AA?9?$AAE?$AAS@ 000000018005c348     libcpmt:winapinls.obj
 0002:00004358       ??_C@_1O@KPIPDNCP@?$AAk?$AAo?$AAk?$AA?9?$AAI?$AAN@ 000000018005c358     libcpmt:winapinls.obj
 0002:00004368       ??_C@_1O@KNHJLDJA@?$AAs?$AAy?$AAr?$AA?9?$AAS?$AAY@ 000000018005c368     libcpmt:winapinls.obj
 0002:00004378       ??_C@_1O@MKEKBLAH@?$AAd?$AAi?$AAv?$AA?9?$AAM?$AAV@ 000000018005c378     libcpmt:winapinls.obj
 0002:00004388       ??_C@_1O@OHDCKDDF@?$AAq?$AAu?$AAz?$AA?9?$AAB?$AAO@ 000000018005c388     libcpmt:winapinls.obj
 0002:00004398       ??_C@_1M@LEPJNLFD@?$AAn?$AAs?$AA?9?$AAZ?$AAA@ 000000018005c398     libcpmt:winapinls.obj
 0002:000043a8       ??_C@_1M@OMLEIIJB@?$AAm?$AAi?$AA?9?$AAN?$AAZ@ 000000018005c3a8     libcpmt:winapinls.obj
 0002:000043b8       ??_C@_1M@PMPEAILG@?$AAa?$AAr?$AA?9?$AAI?$AAQ@ 000000018005c3b8     libcpmt:winapinls.obj
 0002:000043c8       ??_C@_1M@BIBDDEMK@?$AAz?$AAh?$AA?9?$AAC?$AAN@ 000000018005c3c8     libcpmt:winapinls.obj
 0002:000043d8       ??_C@_1M@CNKPNOEE@?$AAd?$AAe?$AA?9?$AAC?$AAH@ 000000018005c3d8     libcpmt:winapinls.obj
 0002:000043e8       ??_C@_1M@LKMGMLKO@?$AAe?$AAn?$AA?9?$AAG?$AAB@ 000000018005c3e8     libcpmt:winapinls.obj
 0002:000043f8       ??_C@_1M@PGKJFFGL@?$AAe?$AAs?$AA?9?$AAM?$AAX@ 000000018005c3f8     libcpmt:winapinls.obj
 0002:00004408       ??_C@_1M@DNNANBDC@?$AAf?$AAr?$AA?9?$AAB?$AAE@ 000000018005c408     libcpmt:winapinls.obj
 0002:00004418       ??_C@_1M@HLGMDFHM@?$AAi?$AAt?$AA?9?$AAC?$AAH@ 000000018005c418     libcpmt:winapinls.obj
 0002:00004428       ??_C@_1M@CLLBGJH@?$AAn?$AAl?$AA?9?$AAB?$AAE@ 000000018005c428     libcpmt:winapinls.obj
 0002:00004438       ??_C@_1M@BODBOGLF@?$AAn?$AAn?$AA?9?$AAN?$AAO@ 000000018005c438     libcpmt:winapinls.obj
 0002:00004448       ??_C@_1M@HFFAHKAD@?$AAp?$AAt?$AA?9?$AAP?$AAT@ 000000018005c448     libcpmt:winapinls.obj
 0002:00004458       ??_C@_1BG@LNOAKHIE@?$AAs?$AAr?$AA?9?$AAS?$AAP?$AA?9?$AAL?$AAa?$AAt?$AAn@ 000000018005c458     libcpmt:winapinls.obj
 0002:00004470       ??_C@_1M@HBMHBGAK@?$AAs?$AAv?$AA?9?$AAF?$AAI@ 000000018005c470     libcpmt:winapinls.obj
 0002:00004480       ??_C@_1BG@DGCJGJBE@?$AAa?$AAz?$AA?9?$AAA?$AAZ?$AA?9?$AAC?$AAy?$AAr?$AAl@ 000000018005c480     libcpmt:winapinls.obj
 0002:00004498       ??_C@_1M@KEJDAAHB@?$AAs?$AAe?$AA?9?$AAS?$AAE@ 000000018005c498     libcpmt:winapinls.obj
 0002:000044a8       ??_C@_1M@HEIBJJAD@?$AAm?$AAs?$AA?9?$AAB?$AAN@ 000000018005c4a8     libcpmt:winapinls.obj
 0002:000044b8       ??_C@_1BG@PBGJMCEM@?$AAu?$AAz?$AA?9?$AAU?$AAZ?$AA?9?$AAC?$AAy?$AAr?$AAl@ 000000018005c4b8     libcpmt:winapinls.obj
 0002:000044d0       ??_C@_1O@LAOBCMDF@?$AAq?$AAu?$AAz?$AA?9?$AAE?$AAC@ 000000018005c4d0     libcpmt:winapinls.obj
 0002:000044e0       ??_C@_1M@POEEMAIO@?$AAa?$AAr?$AA?9?$AAE?$AAG@ 000000018005c4e0     libcpmt:winapinls.obj
 0002:000044f0       ??_C@_1M@EFAKDEDL@?$AAz?$AAh?$AA?9?$AAH?$AAK@ 000000018005c4f0     libcpmt:winapinls.obj
 0002:00004500       ??_C@_1M@HKKIJHGI@?$AAd?$AAe?$AA?9?$AAA?$AAT@ 000000018005c500     libcpmt:winapinls.obj
 0002:00004510       ??_C@_1M@KBFBEHJF@?$AAe?$AAn?$AA?9?$AAA?$AAU@ 000000018005c510     libcpmt:winapinls.obj
 0002:00004520       ??_C@_1M@MNPLFAAH@?$AAe?$AAs?$AA?9?$AAE?$AAS@ 000000018005c520     libcpmt:winapinls.obj
 0002:00004530       ??_C@_1M@HJOOJFMA@?$AAf?$AAr?$AA?9?$AAC?$AAA@ 000000018005c530     libcpmt:winapinls.obj
 0002:00004540       ??_C@_1BG@JPOFPNAB@?$AAs?$AAr?$AA?9?$AAS?$AAP?$AA?9?$AAC?$AAy?$AAr?$AAl@ 000000018005c540     libcpmt:winapinls.obj
 0002:00004558       ??_C@_1M@LNFOCMOB@?$AAs?$AAe?$AA?9?$AAF?$AAI@ 000000018005c558     libcpmt:winapinls.obj
 0002:00004568       ??_C@_1O@MGJBOAMB@?$AAq?$AAu?$AAz?$AA?9?$AAP?$AAE@ 000000018005c568     libcpmt:winapinls.obj
 0002:00004578       ??_C@_1M@GJINLBOK@?$AAa?$AAr?$AA?9?$AAL?$AAY@ 000000018005c578     libcpmt:winapinls.obj
 0002:00004588       ??_C@_1M@GGMNHJNL@?$AAz?$AAh?$AA?9?$AAS?$AAG@ 000000018005c588     libcpmt:winapinls.obj
 0002:00004598       ??_C@_1M@HOIKODND@?$AAd?$AAe?$AA?9?$AAL?$AAU@ 000000018005c598     libcpmt:winapinls.obj
 0002:000045a8       ??_C@_1M@DDOCCGFG@?$AAe?$AAn?$AA?9?$AAC?$AAA@ 000000018005c5a8     libcpmt:winapinls.obj
 0002:000045b8       ??_C@_1M@BNOEMJLF@?$AAe?$AAs?$AA?9?$AAG?$AAT@ 000000018005c5b8     libcpmt:winapinls.obj
 0002:000045c8       ??_C@_1M@EOGNKEK@?$AAf?$AAr?$AA?9?$AAC?$AAH@ 000000018005c5c8     libcpmt:winapinls.obj
 0002:000045d8       ??_C@_1M@FLIDJFHL@?$AAh?$AAr?$AA?9?$AAB?$AAA@ 000000018005c5d8     libcpmt:winapinls.obj
 0002:000045e8       ??_C@_1O@FMCELNAJ@?$AAs?$AAm?$AAj?$AA?9?$AAN?$AAO@ 000000018005c5e8     libcpmt:winapinls.obj
 0002:000045f8       ??_C@_1M@JHGLJMGJ@?$AAa?$AAr?$AA?9?$AAD?$AAZ@ 000000018005c5f8     libcpmt:winapinls.obj
 0002:00004608       ??_C@_1M@JKKFDCNP@?$AAz?$AAh?$AA?9?$AAM?$AAO@ 000000018005c608     libcpmt:winapinls.obj
 0002:00004618       ??_C@_1M@GEEFALPE@?$AAd?$AAe?$AA?9?$AAL?$AAI@ 000000018005c618     libcpmt:winapinls.obj
 0002:00004628       ??_C@_1M@IGEOFBG@?$AAe?$AAn?$AA?9?$AAN?$AAZ@ 000000018005c628     libcpmt:winapinls.obj
 0002:00004638       ??_C@_1M@KDBONEHP@?$AAe?$AAs?$AA?9?$AAC?$AAR@ 000000018005c638     libcpmt:winapinls.obj
 0002:00004648       ??_C@_1M@FHMDOHNN@?$AAf?$AAr?$AA?9?$AAL?$AAU@ 000000018005c648     libcpmt:winapinls.obj
 0002:00004658       ??_C@_1BG@NFKKMAFG@?$AAb?$AAs?$AA?9?$AAB?$AAA?$AA?9?$AAL?$AAa?$AAt?$AAn@ 000000018005c658     libcpmt:winapinls.obj
 0002:00004670       ??_C@_1O@IMNBEMCI@?$AAs?$AAm?$AAj?$AA?9?$AAS?$AAE@ 000000018005c670     libcpmt:winapinls.obj
 0002:00004680       ??_C@_1M@DHHMBNDP@?$AAa?$AAr?$AA?9?$AAM?$AAA@ 000000018005c680     libcpmt:winapinls.obj
 0002:00004690       ??_C@_1M@BNBLJCGH@?$AAe?$AAn?$AA?9?$AAI?$AAE@ 000000018005c690     libcpmt:winapinls.obj
 0002:000046a0       ??_C@_1M@GEPAFMDL@?$AAe?$AAs?$AA?9?$AAP?$AAA@ 000000018005c6a0     libcpmt:winapinls.obj
 0002:000046b0       ??_C@_1M@OJONDMDL@?$AAf?$AAr?$AA?9?$AAM?$AAC@ 000000018005c6b0     libcpmt:winapinls.obj
 0002:000046c0       ??_C@_1BG@OBCNFJB@?$AAs?$AAr?$AA?9?$AAB?$AAA?$AA?9?$AAL?$AAa?$AAt?$AAn@ 000000018005c6c0     libcpmt:winapinls.obj
 0002:000046d8       ??_C@_1O@KEMEEGPO@?$AAs?$AAm?$AAa?$AA?9?$AAN?$AAO@ 000000018005c6d8     libcpmt:winapinls.obj
 0002:000046e8       ??_C@_1M@ELMGFODK@?$AAa?$AAr?$AA?9?$AAT?$AAN@ 000000018005c6e8     libcpmt:winapinls.obj
 0002:000046f8       ??_C@_1M@BHDLHFAF@?$AAe?$AAn?$AA?9?$AAZ?$AAA@ 000000018005c6f8     libcpmt:winapinls.obj
 0002:00004708       ??_C@_1M@BMGIGLIF@?$AAe?$AAs?$AA?9?$AAD?$AAO@ 000000018005c708     libcpmt:winapinls.obj
 0002:00004718       ??_C@_1BG@CMBHIPBE@?$AAs?$AAr?$AA?9?$AAB?$AAA?$AA?9?$AAC?$AAy?$AAr?$AAl@ 000000018005c718     libcpmt:winapinls.obj
 0002:00004730       ??_C@_1O@HEDBLHNP@?$AAs?$AAm?$AAa?$AA?9?$AAS?$AAE@ 000000018005c730     libcpmt:winapinls.obj
 0002:00004740       ??_C@_1M@DAGCADIM@?$AAa?$AAr?$AA?9?$AAO?$AAM@ 000000018005c740     libcpmt:winapinls.obj
 0002:00004750       ??_C@_1M@FODLMICG@?$AAe?$AAn?$AA?9?$AAJ?$AAM@ 000000018005c750     libcpmt:winapinls.obj
 0002:00004760       ??_C@_1M@DNMLCIHB@?$AAe?$AAs?$AA?9?$AAV?$AAE@ 000000018005c760     libcpmt:winapinls.obj
 0002:00004770       ??_C@_1O@EOKHMKJK@?$AAs?$AAm?$AAs?$AA?9?$AAF?$AAI@ 000000018005c770     libcpmt:winapinls.obj
 0002:00004780       ??_C@_1M@CAFJMKOF@?$AAa?$AAr?$AA?9?$AAY?$AAE@ 000000018005c780     libcpmt:winapinls.obj
 0002:00004790       ??_C@_1M@CBFHIJLI@?$AAe?$AAn?$AA?9?$AAC?$AAB@ 000000018005c790     libcpmt:winapinls.obj
 0002:000047a0       ??_C@_1M@BGNFLDN@?$AAe?$AAs?$AA?9?$AAC?$AAO@ 000000018005c7a0     libcpmt:winapinls.obj
 0002:000047b0       ??_C@_1O@JMPHMAMC@?$AAs?$AAm?$AAn?$AA?9?$AAF?$AAI@ 000000018005c7b0     libcpmt:winapinls.obj
 0002:000047c0       ??_C@_1M@JLANABKE@?$AAa?$AAr?$AA?9?$AAS?$AAY@ 000000018005c7c0     libcpmt:winapinls.obj
 0002:000047d0       ??_C@_1M@HPKGCFGN@?$AAe?$AAn?$AA?9?$AAB?$AAZ@ 000000018005c7d0     libcpmt:winapinls.obj
 0002:000047e0       ??_C@_1M@OLJCMLGM@?$AAe?$AAs?$AA?9?$AAP?$AAE@ 000000018005c7e0     libcpmt:winapinls.obj
 0002:000047f0       ??_C@_1M@MKKGFKLE@?$AAa?$AAr?$AA?9?$AAJ?$AAO@ 000000018005c7f0     libcpmt:winapinls.obj
 0002:00004800       ??_C@_1M@EKPGLDNI@?$AAe?$AAn?$AA?9?$AAT?$AAT@ 000000018005c800     libcpmt:winapinls.obj
 0002:00004810       ??_C@_1M@OONGHFHE@?$AAe?$AAs?$AA?9?$AAA?$AAR@ 000000018005c810     libcpmt:winapinls.obj
 0002:00004820       ??_C@_1M@OOJFGBHE@?$AAa?$AAr?$AA?9?$AAL?$AAB@ 000000018005c820     libcpmt:winapinls.obj
 0002:00004830       ??_C@_1M@GCEJHNEG@?$AAe?$AAn?$AA?9?$AAZ?$AAW@ 000000018005c830     libcpmt:winapinls.obj
 0002:00004840       ??_C@_1M@JNOCAHJI@?$AAe?$AAs?$AA?9?$AAE?$AAC@ 000000018005c840     libcpmt:winapinls.obj
 0002:00004850       ??_C@_1M@JEFHPGGB@?$AAa?$AAr?$AA?9?$AAK?$AAW@ 000000018005c850     libcpmt:winapinls.obj
 0002:00004860       ??_C@_1M@MLKIBJOJ@?$AAe?$AAn?$AA?9?$AAP?$AAH@ 000000018005c860     libcpmt:winapinls.obj
 0002:00004870       ??_C@_1M@BDNIPEND@?$AAe?$AAs?$AA?9?$AAC?$AAL@ 000000018005c870     libcpmt:winapinls.obj
 0002:00004880       ??_C@_1M@MPNMEKBD@?$AAa?$AAr?$AA?9?$AAA?$AAE@ 000000018005c880     libcpmt:winapinls.obj
 0002:00004890       ??_C@_1M@KBJALCPI@?$AAe?$AAs?$AA?9?$AAU?$AAY@ 000000018005c890     libcpmt:winapinls.obj
 0002:000048a0       ??_C@_1M@LLCCOAGA@?$AAa?$AAr?$AA?9?$AAB?$AAH@ 000000018005c8a0     libcpmt:winapinls.obj
 0002:000048b0       ??_C@_1M@PBFNCDEL@?$AAe?$AAs?$AA?9?$AAP?$AAY@ 000000018005c8b0     libcpmt:winapinls.obj
 0002:000048c0       ??_C@_1M@EDGINPNP@?$AAa?$AAr?$AA?9?$AAQ?$AAA@ 000000018005c8c0     libcpmt:winapinls.obj
 0002:000048d0       ??_C@_1M@MKDBIIJI@?$AAe?$AAs?$AA?9?$AAB?$AAO@ 000000018005c8d0     libcpmt:winapinls.obj
 0002:000048e0       ??_C@_1M@CPKKEBLD@?$AAe?$AAs?$AA?9?$AAS?$AAV@ 000000018005c8e0     libcpmt:winapinls.obj
 0002:000048f0       ??_C@_1M@NDBGMMJL@?$AAe?$AAs?$AA?9?$AAH?$AAN@ 000000018005c8f0     libcpmt:winapinls.obj
 0002:00004900       ??_C@_1M@JIJIBHDP@?$AAe?$AAs?$AA?9?$AAN?$AAI@ 000000018005c900     libcpmt:winapinls.obj
 0002:00004910       ??_C@_1M@CGFMKEEK@?$AAe?$AAs?$AA?9?$AAP?$AAR@ 000000018005c910     libcpmt:winapinls.obj
 0002:00004920       ??_C@_1O@ICJHKIIK@?$AAz?$AAh?$AA?9?$AAC?$AAH?$AAT@ 000000018005c920     libcpmt:winapinls.obj
 0002:00004930       ??_C@_15CLNEJCE@?$AAs?$AAr@ 000000018005c930     libcpmt:winapinls.obj
 0002:00004938       ??_C@_1M@KAHEKEIG@?$AAa?$AAf?$AA?9?$AAz?$AAa@ 000000018005c938     libcpmt:winapinls.obj
 0002:00004948       ??_C@_1M@GIECOABL@?$AAa?$AAr?$AA?9?$AAa?$AAe@ 000000018005c948     libcpmt:winapinls.obj
 0002:00004958       ??_C@_1M@BMLMEKGI@?$AAa?$AAr?$AA?9?$AAb?$AAh@ 000000018005c958     libcpmt:winapinls.obj
 0002:00004968       ??_C@_1M@DAPFDGGB@?$AAa?$AAr?$AA?9?$AAd?$AAz@ 000000018005c968     libcpmt:winapinls.obj
 0002:00004978       ??_C@_1M@FJNKGKIG@?$AAa?$AAr?$AA?9?$AAe?$AAg@ 000000018005c978     libcpmt:winapinls.obj
 0002:00004988       ??_C@_1M@FLGKKCLO@?$AAa?$AAr?$AA?9?$AAi?$AAq@ 000000018005c988     libcpmt:winapinls.obj
 0002:00004998       ??_C@_1M@GNDIPALM@?$AAa?$AAr?$AA?9?$AAj?$AAo@ 000000018005c998     libcpmt:winapinls.obj
 0002:000049a8       ??_C@_1M@DDMJFMGJ@?$AAa?$AAr?$AA?9?$AAk?$AAw@ 000000018005c9a8     libcpmt:winapinls.obj
 0002:000049b8       ??_C@_1M@EJALMLHM@?$AAa?$AAr?$AA?9?$AAl?$AAb@ 000000018005c9b8     libcpmt:winapinls.obj
 0002:000049c8       ??_C@_1M@MOBDBLOC@?$AAa?$AAr?$AA?9?$AAl?$AAy@ 000000018005c9c8     libcpmt:winapinls.obj
 0002:000049d8       ??_C@_1M@JAOCLHDH@?$AAa?$AAr?$AA?9?$AAm?$AAa@ 000000018005c9d8     libcpmt:winapinls.obj
 0002:000049e8       ??_C@_1M@JHPMKJIE@?$AAa?$AAr?$AA?9?$AAo?$AAm@ 000000018005c9e8     libcpmt:winapinls.obj
 0002:000049f8       ??_C@_1M@OEPGHFNH@?$AAa?$AAr?$AA?9?$AAq?$AAa@ 000000018005c9f8     libcpmt:winapinls.obj
 0002:00004a08       ??_C@_1M@KJDONENM@?$AAa?$AAr?$AA?9?$AAs?$AAa@ 000000018005ca08     libcpmt:winapinls.obj
 0002:00004a18       ??_C@_1M@DMJDKLKM@?$AAa?$AAr?$AA?9?$AAs?$AAy@ 000000018005ca18     libcpmt:winapinls.obj
 0002:00004a28       ??_C@_1M@OMFIPEDC@?$AAa?$AAr?$AA?9?$AAt?$AAn@ 000000018005ca28     libcpmt:winapinls.obj
 0002:00004a38       ??_C@_1M@IHMHGAON@?$AAa?$AAr?$AA?9?$AAy?$AAe@ 000000018005ca38     libcpmt:winapinls.obj
 0002:00004a48       ??_C@_1BG@KDCPGJGB@?$AAa?$AAz?$AA?9?$AAa?$AAz?$AA?9?$AAc?$AAy?$AAr?$AAl@ 000000018005ca48     libcpmt:winapinls.obj
 0002:00004a60       ??_C@_1BG@IBCKDDOE@?$AAa?$AAz?$AA?9?$AAa?$AAz?$AA?9?$AAl?$AAa?$AAt?$AAn@ 000000018005ca60     libcpmt:winapinls.obj
 0002:00004a78       ??_C@_1M@EGPFDCPD@?$AAb?$AAe?$AA?9?$AAb?$AAy@ 000000018005ca78     libcpmt:winapinls.obj
 0002:00004a88       ??_C@_1M@PCMGMCGC@?$AAb?$AAg?$AA?9?$AAb?$AAg@ 000000018005ca88     libcpmt:winapinls.obj
 0002:00004a98       ??_C@_1M@BJBMFGOB@?$AAb?$AAn?$AA?9?$AAi?$AAn@ 000000018005ca98     libcpmt:winapinls.obj
 0002:00004aa8       ??_C@_1BG@EAKMMACD@?$AAb?$AAs?$AA?9?$AAb?$AAa?$AA?9?$AAl?$AAa?$AAt?$AAn@ 000000018005caa8     libcpmt:winapinls.obj
 0002:00004ac0       ??_C@_1M@KGADAODK@?$AAc?$AAa?$AA?9?$AAe?$AAs@ 000000018005cac0     libcpmt:winapinls.obj
 0002:00004ad0       ??_C@_1M@COAJPDHI@?$AAc?$AAs?$AA?9?$AAc?$AAz@ 000000018005cad0     libcpmt:winapinls.obj
 0002:00004ae0       ??_C@_1M@DHBHFONH@?$AAc?$AAy?$AA?9?$AAg?$AAb@ 000000018005cae0     libcpmt:winapinls.obj
 0002:00004af0       ??_C@_1M@IMGKELGA@?$AAd?$AAa?$AA?9?$AAd?$AAk@ 000000018005caf0     libcpmt:winapinls.obj
 0002:00004b00       ??_C@_1M@NNDGDNGA@?$AAd?$AAe?$AA?9?$AAa?$AAt@ 000000018005cb00     libcpmt:winapinls.obj
 0002:00004b10       ??_C@_1M@IKDBHEEM@?$AAd?$AAe?$AA?9?$AAc?$AAh@ 000000018005cb10     libcpmt:winapinls.obj
 0002:00004b20       ??_C@_1M@GFFOJMCJ@?$AAd?$AAe?$AA?9?$AAd?$AAe@ 000000018005cb20     libcpmt:winapinls.obj
 0002:00004b30       ??_C@_1M@MDNLKBPM@?$AAd?$AAe?$AA?9?$AAl?$AAi@ 000000018005cb30     libcpmt:winapinls.obj
 0002:00004b40       ??_C@_1M@NJBEEJNL@?$AAd?$AAe?$AA?9?$AAl?$AAu@ 000000018005cb40     libcpmt:winapinls.obj
 0002:00004b50       ??_C@_1O@GNNELBAP@?$AAd?$AAi?$AAv?$AA?9?$AAm?$AAv@ 000000018005cb50     libcpmt:winapinls.obj
 0002:00004b60       ??_C@_1M@EJLEOGAE@?$AAe?$AAl?$AA?9?$AAg?$AAr@ 000000018005cb60     libcpmt:winapinls.obj
 0002:00004b70       ??_C@_1M@GMPONJN@?$AAe?$AAn?$AA?9?$AAa?$AAu@ 000000018005cb70     libcpmt:winapinls.obj
 0002:00004b80       ??_C@_1M@NIDIIPGF@?$AAe?$AAn?$AA?9?$AAb?$AAz@ 000000018005cb80     libcpmt:winapinls.obj
 0002:00004b90       ??_C@_1M@JEHMIMFO@?$AAe?$AAn?$AA?9?$AAc?$AAa@ 000000018005cb90     libcpmt:winapinls.obj
 0002:00004ba0       ??_C@_1M@IGMJCDLA@?$AAe?$AAn?$AA?9?$AAc?$AAb@ 000000018005cba0     libcpmt:winapinls.obj
 0002:00004bb0       ??_C@_1M@BNFIGBKG@?$AAe?$AAn?$AA?9?$AAg?$AAb@ 000000018005cbb0     libcpmt:winapinls.obj
 0002:00004bc0       ??_C@_1M@LKIFDIGP@?$AAe?$AAn?$AA?9?$AAi?$AAe@ 000000018005cbc0     libcpmt:winapinls.obj
 0002:00004bd0       ??_C@_1M@PJKFGCCO@?$AAe?$AAn?$AA?9?$AAj?$AAm@ 000000018005cbd0     libcpmt:winapinls.obj
 0002:00004be0       ??_C@_1M@KPPKEPBO@?$AAe?$AAn?$AA?9?$AAn?$AAz@ 000000018005cbe0     libcpmt:winapinls.obj
 0002:00004bf0       ??_C@_1M@GMDGLDOB@?$AAe?$AAn?$AA?9?$AAp?$AAh@ 000000018005cbf0     libcpmt:winapinls.obj
 0002:00004c00       ??_C@_1M@ONGIBJNA@?$AAe?$AAn?$AA?9?$AAt?$AAt@ 000000018005cc00     libcpmt:winapinls.obj
 0002:00004c10       ??_C@_1M@LLODPCMM@?$AAe?$AAn?$AA?9?$AAu?$AAs@ 000000018005cc10     libcpmt:winapinls.obj
 0002:00004c20       ??_C@_1M@LAKFNPAN@?$AAe?$AAn?$AA?9?$AAz?$AAa@ 000000018005cc20     libcpmt:winapinls.obj
 0002:00004c30       ??_C@_1M@MFNHNHEO@?$AAe?$AAn?$AA?9?$AAz?$AAw@ 000000018005cc30     libcpmt:winapinls.obj
 0002:00004c40       ??_C@_1M@EJEINPHM@?$AAe?$AAs?$AA?9?$AAa?$AAr@ 000000018005cc40     libcpmt:winapinls.obj
 0002:00004c50       ??_C@_1M@GNKPCCJA@?$AAe?$AAs?$AA?9?$AAb?$AAo@ 000000018005cc50     libcpmt:winapinls.obj
 0002:00004c60       ??_C@_1M@LEEGFONL@?$AAe?$AAs?$AA?9?$AAc?$AAl@ 000000018005cc60     libcpmt:winapinls.obj
 0002:00004c70       ??_C@_1M@KGPDPBDF@?$AAe?$AAs?$AA?9?$AAc?$AAo@ 000000018005cc70     libcpmt:winapinls.obj
 0002:00004c80       ??_C@_1M@EIAHOHH@?$AAe?$AAs?$AA?9?$AAc?$AAr@ 000000018005cc80     libcpmt:winapinls.obj
 0002:00004c90       ??_C@_1M@LLPGMBIN@?$AAe?$AAs?$AA?9?$AAd?$AAo@ 000000018005cc90     libcpmt:winapinls.obj
 0002:00004ca0       ??_C@_1M@DKHMKNJA@?$AAe?$AAs?$AA?9?$AAe?$AAc@ 000000018005cca0     libcpmt:winapinls.obj
 0002:00004cb0       ??_C@_1M@GKGFPKAP@?$AAe?$AAs?$AA?9?$AAe?$AAs@ 000000018005ccb0     libcpmt:winapinls.obj
 0002:00004cc0       ??_C@_1M@LKHKGDLN@?$AAe?$AAs?$AA?9?$AAg?$AAt@ 000000018005ccc0     libcpmt:winapinls.obj
 0002:00004cd0       ??_C@_1M@HEIIGGJD@?$AAe?$AAs?$AA?9?$AAh?$AAn@ 000000018005ccd0     libcpmt:winapinls.obj
 0002:00004ce0       ??_C@_1M@FBDHPPGD@?$AAe?$AAs?$AA?9?$AAm?$AAx@ 000000018005cce0     libcpmt:winapinls.obj
 0002:00004cf0       ??_C@_1M@DPAGLNDH@?$AAe?$AAs?$AA?9?$AAn?$AAi@ 000000018005ccf0     libcpmt:winapinls.obj
 0002:00004d00       ??_C@_1M@MDGOPGDD@?$AAe?$AAs?$AA?9?$AAp?$AAa@ 000000018005cd00     libcpmt:winapinls.obj
 0002:00004d10       ??_C@_1M@EMAMGBGE@?$AAe?$AAs?$AA?9?$AAp?$AAe@ 000000018005cd10     libcpmt:winapinls.obj
 0002:00004d20       ??_C@_1M@IBMCAOEC@?$AAe?$AAs?$AA?9?$AAp?$AAr@ 000000018005cd20     libcpmt:winapinls.obj
 0002:00004d30       ??_C@_1M@FGMDIJED@?$AAe?$AAs?$AA?9?$AAp?$AAy@ 000000018005cd30     libcpmt:winapinls.obj
 0002:00004d40       ??_C@_1M@IIDEOLLL@?$AAe?$AAs?$AA?9?$AAs?$AAv@ 000000018005cd40     libcpmt:winapinls.obj
 0002:00004d50       ??_C@_1M@GAOBIPA@?$AAe?$AAs?$AA?9?$AAu?$AAy@ 000000018005cd50     libcpmt:winapinls.obj
 0002:00004d60       ??_C@_1M@JKFFICHJ@?$AAe?$AAs?$AA?9?$AAv?$AAe@ 000000018005cd60     libcpmt:winapinls.obj
 0002:00004d70       ??_C@_1M@PNMLOJDF@?$AAe?$AAt?$AA?9?$AAe?$AAe@ 000000018005cd70     libcpmt:winapinls.obj
 0002:00004d80       ??_C@_1M@GHHLIKEI@?$AAe?$AAu?$AA?9?$AAe?$AAs@ 000000018005cd80     libcpmt:winapinls.obj
 0002:00004d90       ??_C@_1M@PBNONODE@?$AAf?$AAa?$AA?9?$AAi?$AAr@ 000000018005cd90     libcpmt:winapinls.obj
 0002:00004da0       ??_C@_1M@JEEHPMIL@?$AAf?$AAi?$AA?9?$AAf?$AAi@ 000000018005cda0     libcpmt:winapinls.obj
 0002:00004db0       ??_C@_1M@LMDCNDBA@?$AAf?$AAo?$AA?9?$AAf?$AAo@ 000000018005cdb0     libcpmt:winapinls.obj
 0002:00004dc0       ??_C@_1M@JKEOHLDK@?$AAf?$AAr?$AA?9?$AAb?$AAe@ 000000018005cdc0     libcpmt:winapinls.obj
 0002:00004dd0       ??_C@_1M@NOHADPMI@?$AAf?$AAr?$AA?9?$AAc?$AAa@ 000000018005cdd0     libcpmt:winapinls.obj
 0002:00004de0       ??_C@_1M@KDHIHAEC@?$AAf?$AAr?$AA?9?$AAc?$AAh@ 000000018005cde0     libcpmt:winapinls.obj
 0002:00004df0       ??_C@_1M@MMBBFGAK@?$AAf?$AAr?$AA?9?$AAf?$AAr@ 000000018005cdf0     libcpmt:winapinls.obj
 0002:00004e00       ??_C@_1M@PAFNENNF@?$AAf?$AAr?$AA?9?$AAl?$AAu@ 000000018005ce00     libcpmt:winapinls.obj
 0002:00004e10       ??_C@_1M@EOHDJGDD@?$AAf?$AAr?$AA?9?$AAm?$AAc@ 000000018005ce10     libcpmt:winapinls.obj
 0002:00004e20       ??_C@_1M@FAPLLOPF@?$AAg?$AAl?$AA?9?$AAe?$AAs@ 000000018005ce20     libcpmt:winapinls.obj
 0002:00004e30       ??_C@_1M@FOPBFLOO@?$AAg?$AAu?$AA?9?$AAi?$AAn@ 000000018005ce30     libcpmt:winapinls.obj
 0002:00004e40       ??_C@_1M@KBMCINPM@?$AAh?$AAe?$AA?9?$AAi?$AAl@ 000000018005ce40     libcpmt:winapinls.obj
 0002:00004e50       ??_C@_1M@BBPHKFPJ@?$AAh?$AAi?$AA?9?$AAi?$AAn@ 000000018005ce50     libcpmt:winapinls.obj
 0002:00004e60       ??_C@_1M@PMBNDPHD@?$AAh?$AAr?$AA?9?$AAb?$AAa@ 000000018005ce60     libcpmt:winapinls.obj
 0002:00004e70       ??_C@_1M@BPCKOEGE@?$AAh?$AAr?$AA?9?$AAh?$AAr@ 000000018005ce70     libcpmt:winapinls.obj
 0002:00004e80       ??_C@_1M@GACBMHKE@?$AAh?$AAu?$AA?9?$AAh?$AAu@ 000000018005ce80     libcpmt:winapinls.obj
 0002:00004e90       ??_C@_1M@MILPAJJC@?$AAh?$AAy?$AA?9?$AAa?$AAm@ 000000018005ce90     libcpmt:winapinls.obj
 0002:00004ea0       ??_C@_1M@BABBICEC@?$AAi?$AAd?$AA?9?$AAi?$AAd@ 000000018005cea0     libcpmt:winapinls.obj
 0002:00004eb0       ??_C@_1M@BIKNHHPF@?$AAi?$AAs?$AA?9?$AAi?$AAs@ 000000018005ceb0     libcpmt:winapinls.obj
 0002:00004ec0       ??_C@_1M@NMPCJPHE@?$AAi?$AAt?$AA?9?$AAc?$AAh@ 000000018005cec0     libcpmt:winapinls.obj
 0002:00004ed0       ??_C@_1M@GHKGFEDF@?$AAi?$AAt?$AA?9?$AAi?$AAt@ 000000018005ced0     libcpmt:winapinls.obj
 0002:00004ee0       ??_C@_1M@NIEJCJJA@?$AAj?$AAa?$AA?9?$AAj?$AAp@ 000000018005cee0     libcpmt:winapinls.obj
 0002:00004ef0       ??_C@_1M@JILFNBIM@?$AAk?$AAa?$AA?9?$AAg?$AAe@ 000000018005cef0     libcpmt:winapinls.obj
 0002:00004f00       ??_C@_1M@PACPMGPH@?$AAk?$AAk?$AA?9?$AAk?$AAz@ 000000018005cf00     libcpmt:winapinls.obj
 0002:00004f10       ??_C@_1M@IELFGMHA@?$AAk?$AAn?$AA?9?$AAi?$AAn@ 000000018005cf10     libcpmt:winapinls.obj
 0002:00004f20       ??_C@_1M@DMHAEOGC@?$AAk?$AAo?$AA?9?$AAk?$AAr@ 000000018005cf20     libcpmt:winapinls.obj
 0002:00004f30       ??_C@_1O@IBBJHCH@?$AAk?$AAo?$AAk?$AA?9?$AAi?$AAn@ 000000018005cf30     libcpmt:winapinls.obj
 0002:00004f40       ??_C@_1M@HBAHBIGA@?$AAk?$AAy?$AA?9?$AAk?$AAg@ 000000018005cf40     libcpmt:winapinls.obj
 0002:00004f50       ??_C@_1M@KPMILCJG@?$AAl?$AAt?$AA?9?$AAl?$AAt@ 000000018005cf50     libcpmt:winapinls.obj
 0002:00004f60       ??_C@_1M@BDEKKCA@?$AAl?$AAv?$AA?9?$AAl?$AAv@ 000000018005cf60     libcpmt:winapinls.obj
 0002:00004f70       ??_C@_1M@ELCKCCJJ@?$AAm?$AAi?$AA?9?$AAn?$AAz@ 000000018005cf70     libcpmt:winapinls.obj
 0002:00004f80       ??_C@_1M@CBOOLAPA@?$AAm?$AAk?$AA?9?$AAm?$AAk@ 000000018005cf80     libcpmt:winapinls.obj
 0002:00004f90       ??_C@_1M@GPHNBJKN@?$AAm?$AAl?$AA?9?$AAi?$AAn@ 000000018005cf90     libcpmt:winapinls.obj
 0002:00004fa0       ??_C@_1M@PABJILIG@?$AAm?$AAn?$AA?9?$AAm?$AAn@ 000000018005cfa0     libcpmt:winapinls.obj
 0002:00004fb0       ??_C@_1M@FGBKKIPG@?$AAm?$AAr?$AA?9?$AAi?$AAn@ 000000018005cfb0     libcpmt:winapinls.obj
 0002:00004fc0       ??_C@_1M@NDBPDDAL@?$AAm?$AAs?$AA?9?$AAb?$AAn@ 000000018005cfc0     libcpmt:winapinls.obj
 0002:00004fd0       ??_C@_1M@OPIHOOPI@?$AAm?$AAs?$AA?9?$AAm?$AAy@ 000000018005cfd0     libcpmt:winapinls.obj
 0002:00004fe0       ??_C@_1M@PPDBCNFM@?$AAm?$AAt?$AA?9?$AAm?$AAt@ 000000018005cfe0     libcpmt:winapinls.obj
 0002:00004ff0       ??_C@_1M@KDJDKMDD@?$AAn?$AAb?$AA?9?$AAn?$AAo@ 000000018005cff0     libcpmt:winapinls.obj
 0002:00005000       ??_C@_1M@KFCFLMJP@?$AAn?$AAl?$AA?9?$AAb?$AAe@ 000000018005d000     libcpmt:winapinls.obj
 0002:00005010       ??_C@_1M@KPOPDDGO@?$AAn?$AAl?$AA?9?$AAn?$AAl@ 000000018005d010     libcpmt:winapinls.obj
 0002:00005020       ??_C@_1M@LJKPEMLN@?$AAn?$AAn?$AA?9?$AAn?$AAo@ 000000018005d020     libcpmt:winapinls.obj
 0002:00005030       ??_C@_1M@BDGHHBFL@?$AAn?$AAs?$AA?9?$AAz?$AAa@ 000000018005d030     libcpmt:winapinls.obj
 0002:00005040       ??_C@_1M@IDEHOAP@?$AAp?$AAa?$AA?9?$AAi?$AAn@ 000000018005d040     libcpmt:winapinls.obj
 0002:00005050       ??_C@_1M@HDBKGOGH@?$AAp?$AAl?$AA?9?$AAp?$AAl@ 000000018005d050     libcpmt:winapinls.obj
 0002:00005060       ??_C@_1M@LJLLCMEH@?$AAp?$AAt?$AA?9?$AAb?$AAr@ 000000018005d060     libcpmt:winapinls.obj
 0002:00005070       ??_C@_1M@NCMONAAL@?$AAp?$AAt?$AA?9?$AAp?$AAt@ 000000018005d070     libcpmt:winapinls.obj
 0002:00005080       ??_C@_1O@EAKMAJDN@?$AAq?$AAu?$AAz?$AA?9?$AAb?$AAo@ 000000018005d080     libcpmt:winapinls.obj
 0002:00005090       ??_C@_1O@BHHPIGDN@?$AAq?$AAu?$AAz?$AA?9?$AAe?$AAc@ 000000018005d090     libcpmt:winapinls.obj
 0002:000050a0       ??_C@_1O@GBAPEKMJ@?$AAq?$AAu?$AAz?$AA?9?$AAp?$AAe@ 000000018005d0a0     libcpmt:winapinls.obj
 0002:000050b0       ??_C@_1M@CLGLEFBO@?$AAr?$AAo?$AA?9?$AAr?$AAo@ 000000018005d0b0     libcpmt:winapinls.obj
 0002:000050c0       ??_C@_1M@CEEDODME@?$AAr?$AAu?$AA?9?$AAr?$AAu@ 000000018005d0c0     libcpmt:winapinls.obj
 0002:000050d0       ??_C@_1M@HPKKKMPP@?$AAs?$AAa?$AA?9?$AAi?$AAn@ 000000018005d0d0     libcpmt:winapinls.obj
 0002:000050e0       ??_C@_1M@BKMAIGOJ@?$AAs?$AAe?$AA?9?$AAf?$AAi@ 000000018005d0e0     libcpmt:winapinls.obj
 0002:000050f0       ??_C@_1M@NDPIFLFI@?$AAs?$AAe?$AA?9?$AAn?$AAo@ 000000018005d0f0     libcpmt:winapinls.obj
 0002:00005100       ??_C@_1M@DANKKHJ@?$AAs?$AAe?$AA?9?$AAs?$AAe@ 000000018005d100     libcpmt:winapinls.obj
 0002:00005110       ??_C@_1M@PNBLONPJ@?$AAs?$AAk?$AA?9?$AAs?$AAk@ 000000018005d110     libcpmt:winapinls.obj
 0002:00005120       ??_C@_1M@LFMODOAL@?$AAs?$AAl?$AA?9?$AAs?$AAi@ 000000018005d120     libcpmt:winapinls.obj
 0002:00005130       ??_C@_1O@DFKOMPG@?$AAs?$AAm?$AAa?$AA?9?$AAn?$AAo@ 000000018005d130     libcpmt:winapinls.obj
 0002:00005140       ??_C@_1O@NDKPBNNH@?$AAs?$AAm?$AAa?$AA?9?$AAs?$AAe@ 000000018005d140     libcpmt:winapinls.obj
 0002:00005150       ??_C@_1O@PLLKBHAB@?$AAs?$AAm?$AAj?$AA?9?$AAn?$AAo@ 000000018005d150     libcpmt:winapinls.obj
 0002:00005160       ??_C@_1O@CLEPOGCA@?$AAs?$AAm?$AAj?$AA?9?$AAs?$AAe@ 000000018005d160     libcpmt:winapinls.obj
 0002:00005170       ??_C@_1O@DLGJGKMK@?$AAs?$AAm?$AAn?$AA?9?$AAf?$AAi@ 000000018005d170     libcpmt:winapinls.obj
 0002:00005180       ??_C@_1O@OJDJGAJC@?$AAs?$AAm?$AAs?$AA?9?$AAf?$AAi@ 000000018005d180     libcpmt:winapinls.obj
 0002:00005190       ??_C@_1M@BOFOGHPB@?$AAs?$AAq?$AA?9?$AAa?$AAl@ 000000018005d190     libcpmt:winapinls.obj
 0002:000051a0       ??_C@_1BG@LJBBIPGB@?$AAs?$AAr?$AA?9?$AAb?$AAa?$AA?9?$AAc?$AAy?$AAr?$AAl@ 000000018005d1a0     libcpmt:winapinls.obj
 0002:000051b8       ??_C@_1BG@JLBENFOE@?$AAs?$AAr?$AA?9?$AAb?$AAa?$AA?9?$AAl?$AAa?$AAt?$AAn@ 000000018005d1b8     libcpmt:winapinls.obj
 0002:000051d0       ??_C@_1BG@KODPNHE@?$AAs?$AAr?$AA?9?$AAs?$AAp?$AA?9?$AAc?$AAy?$AAr?$AAl@ 000000018005d1d0     libcpmt:winapinls.obj
 0002:000051e8       ??_C@_1BG@CIOGKHPB@?$AAs?$AAr?$AA?9?$AAs?$AAp?$AA?9?$AAl?$AAa?$AAt?$AAn@ 000000018005d1e8     libcpmt:winapinls.obj
 0002:00005200       ??_C@_1M@NGFJLMAC@?$AAs?$AAv?$AA?9?$AAf?$AAi@ 000000018005d200     libcpmt:winapinls.obj
 0002:00005210       ??_C@_1M@MPJEJAJC@?$AAs?$AAv?$AA?9?$AAs?$AAe@ 000000018005d210     libcpmt:winapinls.obj
 0002:00005220       ??_C@_1M@MPNDHLFK@?$AAs?$AAw?$AA?9?$AAk?$AAe@ 000000018005d220     libcpmt:winapinls.obj
 0002:00005230       ??_C@_1O@KOHBJJI@?$AAs?$AAy?$AAr?$AA?9?$AAs?$AAy@ 000000018005d230     libcpmt:winapinls.obj
 0002:00005240       ??_C@_1M@LDCEFHA@?$AAt?$AAa?$AA?9?$AAi?$AAn@ 000000018005d240     libcpmt:winapinls.obj
 0002:00005250       ??_C@_1M@CNJOFAK@?$AAt?$AAe?$AA?9?$AAi?$AAn@ 000000018005d250     libcpmt:winapinls.obj
 0002:00005260       ??_C@_1M@GNAECACD@?$AAt?$AAh?$AA?9?$AAt?$AAh@ 000000018005d260     libcpmt:winapinls.obj
 0002:00005270       ??_C@_1M@CHBIHOJO@?$AAt?$AAn?$AA?9?$AAz?$AAa@ 000000018005d270     libcpmt:winapinls.obj
 0002:00005280       ??_C@_1M@GCCMIGPJ@?$AAt?$AAr?$AA?9?$AAt?$AAr@ 000000018005d280     libcpmt:winapinls.obj
 0002:00005290       ??_C@_1M@CELMCNBK@?$AAt?$AAt?$AA?9?$AAr?$AAu@ 000000018005d290     libcpmt:winapinls.obj
 0002:000052a0       ??_C@_1M@KLMCELGA@?$AAu?$AAk?$AA?9?$AAu?$AAa@ 000000018005d2a0     libcpmt:winapinls.obj
 0002:000052b0       ??_C@_1M@EPAJJAJF@?$AAu?$AAr?$AA?9?$AAp?$AAk@ 000000018005d2b0     libcpmt:winapinls.obj
 0002:000052c0       ??_C@_1BG@GEGPMCDJ@?$AAu?$AAz?$AA?9?$AAu?$AAz?$AA?9?$AAc?$AAy?$AAr?$AAl@ 000000018005d2c0     libcpmt:winapinls.obj
 0002:000052d8       ??_C@_1BG@EGGKJILM@?$AAu?$AAz?$AA?9?$AAu?$AAz?$AA?9?$AAl?$AAa?$AAt?$AAn@ 000000018005d2d8     libcpmt:winapinls.obj
 0002:000052f0       ??_C@_1M@GFOCLFF@?$AAv?$AAi?$AA?9?$AAv?$AAn@ 000000018005d2f0     libcpmt:winapinls.obj
 0002:00005300       ??_C@_1M@CPAMEDFI@?$AAx?$AAh?$AA?9?$AAz?$AAa@ 000000018005d300     libcpmt:winapinls.obj
 0002:00005310       ??_C@_1O@EBKIFIGN@?$AAz?$AAh?$AA?9?$AAc?$AAh?$AAs@ 000000018005d310     libcpmt:winapinls.obj
 0002:00005320       ??_C@_1O@NMHPGANE@?$AAz?$AAh?$AA?9?$AAc?$AAh?$AAt@ 000000018005d320     libcpmt:winapinls.obj
 0002:00005330       ??_C@_1M@LPINJOMC@?$AAz?$AAh?$AA?9?$AAc?$AAn@ 000000018005d330     libcpmt:winapinls.obj
 0002:00005340       ??_C@_1M@OCJEJODD@?$AAz?$AAh?$AA?9?$AAh?$AAk@ 000000018005d340     libcpmt:winapinls.obj
 0002:00005350       ??_C@_1M@DNDLJINH@?$AAz?$AAh?$AA?9?$AAm?$AAo@ 000000018005d350     libcpmt:winapinls.obj
 0002:00005360       ??_C@_1M@MBFDNDND@?$AAz?$AAh?$AA?9?$AAs?$AAg@ 000000018005d360     libcpmt:winapinls.obj
 0002:00005370       ??_C@_1M@IMEPLEPE@?$AAz?$AAh?$AA?9?$AAt?$AAw@ 000000018005d370     libcpmt:winapinls.obj
 0002:00005380       ??_C@_1M@BBGHNHJP@?$AAz?$AAu?$AA?9?$AAz?$AAa@ 000000018005d380     libcpmt:winapinls.obj
 0002:00005390       __xmm@ffffffffffffffffffffffffffffffff 000000018005d390     LIBCMT:utility.obj
 0002:000053a8       ??_7type_info@@6B@         000000018005d3a8     LIBCMT:std_type_info_static.obj
 0002:000053b0       _pDefaultRawDllMain        000000018005d3b0     LIBCMT:dll_dllmain.obj
 0002:000053b0       _pRawDllMain               000000018005d3b0     LIBCMT:dll_dllmain.obj
 0002:000053c8       ?s_negLengthTab@FH4@@3QBCB 000000018005d3c8     libvcruntime:risctrnsctrl.obj
 0002:000053d8       ?s_shiftTab@FH4@@3QBEB     000000018005d3d8     libvcruntime:risctrnsctrl.obj
 0002:00005528       _pDestructExceptionObject  000000018005d528     libvcruntime:ehhelpers.obj
 0002:00005538       ??_7bad_exception@std@@6B@ 000000018005d538     libvcruntime:frame.obj
 0002:00005548       ??_C@_0O@DPKOEFFH@bad?5exception@ 000000018005d548     libvcruntime:frame.obj
 0002:00005c60       ??_C@_08EHJDFFNH@__based?$CI@ 000000018005dc60     libvcruntime:undname.obj
 0002:00005c70       ??_C@_07KOLFKCDI@__cdecl@  000000018005dc70     libvcruntime:undname.obj
 0002:00005c78       ??_C@_08GHMPAG@__pascal@   000000018005dc78     libvcruntime:undname.obj
 0002:00005c88       ??_C@_09IFJBGAPI@__stdcall@ 000000018005dc88     libvcruntime:undname.obj
 0002:00005c98       ??_C@_0L@NPHFGOKO@__thiscall@ 000000018005dc98     libvcruntime:undname.obj
 0002:00005ca8       ??_C@_0L@JMKHOMEK@__fastcall@ 000000018005dca8     libvcruntime:undname.obj
 0002:00005cb8       ??_C@_0N@BCKKPABJ@__vectorcall@ 000000018005dcb8     libvcruntime:undname.obj
 0002:00005cc8       ??_C@_09HIJEGCPM@__clrcall@ 000000018005dcc8     libvcruntime:undname.obj
 0002:00005cd4       ??_C@_06GHPCKEAG@__eabi@   000000018005dcd4     libvcruntime:undname.obj
 0002:00005ce0       ??_C@_09IOPIDJLG@__swift_1@ 000000018005dce0     libvcruntime:undname.obj
 0002:00005cf0       ??_C@_09KFNFGKHF@__swift_2@ 000000018005dcf0     libvcruntime:undname.obj
 0002:00005d00       ??_C@_07JOMMBBKO@__ptr64@  000000018005dd00     libvcruntime:undname.obj
 0002:00005d08       ??_C@_0L@PILCLIHE@__restrict@ 000000018005dd08     libvcruntime:undname.obj
 0002:00005d18       ??_C@_0M@GFIIJFMG@__unaligned@ 000000018005dd18     libvcruntime:undname.obj
 0002:00005d28       ??_C@_09DHDLOLLB@restrict?$CI@ 000000018005dd28     libvcruntime:undname.obj
 0002:00005d34       ??_C@_04NIHEBCM@?5new@     000000018005dd34     libvcruntime:undname.obj
 0002:00005d40       ??_C@_07FPCDHGMM@?5delete@ 000000018005dd40     libvcruntime:undname.obj
 0002:00005d48       ??_C@_01NEMOKFLO@?$DN@     000000018005dd48     libvcruntime:undname.obj
 0002:00005d4c       ??_C@_02GPIOPFAK@?$DO?$DO@ 000000018005dd4c     libvcruntime:undname.obj
 0002:00005d50       ??_C@_02FODMEDOG@?$DM?$DM@ 000000018005dd50     libvcruntime:undname.obj
 0002:00005d54       ??_C@_01DCLJPIOD@?$CB@     000000018005dd54     libvcruntime:undname.obj
 0002:00005d58       ??_C@_02EGOFBIJA@?$DN?$DN@ 000000018005dd58     libvcruntime:undname.obj
 0002:00005d5c       ??_C@_02FDNJECIE@?$CB?$DN@ 000000018005dd5c     libvcruntime:undname.obj
 0002:00005d60       ??_C@_02GPECMEKF@?$FL?$FN@ 000000018005dd60     libvcruntime:undname.obj
 0002:00005d68       ??_C@_08LHJFAFGD@operator@ 000000018005dd68     libvcruntime:undname.obj
 0002:00005d74       ??_C@_02HBOOOICD@?9?$DO@   000000018005dd74     libvcruntime:undname.obj
 0002:00005d78       ??_C@_02ECNGHCIF@?$CL?$CL@ 000000018005dd78     libvcruntime:undname.obj
 0002:00005d7c       ??_C@_02BAABKJLB@?9?9@     000000018005dd7c     libvcruntime:undname.obj
 0002:00005d80       ??_C@_01MIFGBAGJ@?$CL@     000000018005dd80     libvcruntime:undname.obj
 0002:00005d84       ??_C@_01HNPIGOCE@?$CG@     000000018005dd84     libvcruntime:undname.obj
 0002:00005d88       ??_C@_03MNHNFDLC@?9?$DO?$CK@ 000000018005dd88     libvcruntime:undname.obj
 0002:00005d8c       ??_C@_01KMDKNFGN@?1@       000000018005dd8c     libvcruntime:undname.obj
 0002:00005d90       ??_C@_01FGNFDNOH@?$CF@     000000018005dd90     libvcruntime:undname.obj
 0002:00005d94       ??_C@_01MNNFJEPP@?$DM@     000000018005dd94     libvcruntime:undname.obj
 0002:00005d98       ??_C@_02EHCHHCKH@?$DM?$DN@ 000000018005dd98     libvcruntime:undname.obj
 0002:00005d9c       ??_C@_01PPODPGHN@?$DO@     000000018005dd9c     libvcruntime:undname.obj
 0002:00005da0       ??_C@_02EEKDKGMJ@?$DO?$DN@ 000000018005dda0     libvcruntime:undname.obj
 0002:00005da4       ??_C@_01IHBHIGKO@?0@       000000018005dda4     libvcruntime:undname.obj
 0002:00005da8       ??_C@_02HCKGKOFO@?$CI?$CJ@ 000000018005dda8     libvcruntime:undname.obj
 0002:00005dac       ??_C@_01PJKLJHI@?$HO@      000000018005ddac     libvcruntime:undname.obj
 0002:00005db0       ??_C@_01JKBOJNNK@?$FO@     000000018005ddb0     libvcruntime:undname.obj
 0002:00005db4       ??_C@_01DNKMNLPK@?$HM@     000000018005ddb4     libvcruntime:undname.obj
 0002:00005db8       ??_C@_02PPKAJPJL@?$CG?$CG@ 000000018005ddb8     libvcruntime:undname.obj
 0002:00005dbc       ??_C@_02NONPIBCD@?$HM?$HM@ 000000018005ddbc     libvcruntime:undname.obj
 0002:00005dc0       ??_C@_02FPIMKNGF@?$CK?$DN@ 000000018005ddc0     libvcruntime:undname.obj
 0002:00005dc4       ??_C@_02FOEOMHFC@?$CL?$DN@ 000000018005ddc4     libvcruntime:undname.obj
 0002:00005dc8       ??_C@_02FKMDLLOA@?9?$DN@   000000018005ddc8     libvcruntime:undname.obj
 0002:00005dcc       ??_C@_02FJEHGPIO@?1?$DN@   000000018005ddcc     libvcruntime:undname.obj
 0002:00005dd0       ??_C@_02FENAOKFI@?$CF?$DN@ 000000018005ddd0     libvcruntime:undname.obj
 0002:00005dd4       ??_C@_03IKFCCPFF@?$DO?$DO?$DN@ 000000018005ddd4     libvcruntime:undname.obj
 0002:00005dd8       ??_C@_03CDNPDDLA@?$DM?$DM?$DN@ 000000018005ddd8     libvcruntime:undname.obj
 0002:00005ddc       ??_C@_02FGJGFEAB@?$CG?$DN@ 000000018005dddc     libvcruntime:undname.obj
 0002:00005de0       ??_C@_02DHLNPPGH@?$HM?$DN@ 000000018005dde0     libvcruntime:undname.obj
 0002:00005de4       ??_C@_02MHEGNOJ@?$FO?$DN@  000000018005dde4     libvcruntime:undname.obj
 0002:00005de8       ??_C@_09IFPLHPGF@?$GAvftable?8@ 000000018005dde8     libvcruntime:undname.obj
 0002:00005df8       ??_C@_09BLBHBJP@?$GAvbtable?8@ 000000018005ddf8     libvcruntime:undname.obj
 0002:00005e08       ??_C@_07FEEIOKP@?$GAvcall?8@ 000000018005de08     libvcruntime:undname.obj
 0002:00005e10       ??_C@_08LLFFHHDJ@?$GAtypeof?8@ 000000018005de10     libvcruntime:undname.obj
 0002:00005e20       ??_C@_0BF@KDPPACIK@?$GAlocal?5static?5guard?8@ 000000018005de20     libvcruntime:undname.obj
 0002:00005e38       ??_C@_08OBABFOLI@?$GAstring?8@ 000000018005de38     libvcruntime:undname.obj
 0002:00005e48       ??_C@_0BD@JDLKDPAB@?$GAvbase?5destructor?8@ 000000018005de48     libvcruntime:undname.obj
 0002:00005e60       ??_C@_0BN@DEGPLNFK@?$GAvector?5deleting?5destructor?8@ 000000018005de60     libvcruntime:undname.obj
 0002:00005e80       ??_C@_0BO@OBMKPJIG@?$GAdefault?5constructor?5closure?8@ 000000018005de80     libvcruntime:undname.obj
 0002:00005ea0       ??_C@_0BN@IMDCHIKM@?$GAscalar?5deleting?5destructor?8@ 000000018005dea0     libvcruntime:undname.obj
 0002:00005ec0       ??_C@_0BO@PFGOCPJJ@?$GAvector?5constructor?5iterator?8@ 000000018005dec0     libvcruntime:undname.obj
 0002:00005ee0       ??_C@_0BN@LFPFMEDL@?$GAvector?5destructor?5iterator?8@ 000000018005dee0     libvcruntime:undname.obj
 0002:00005f00       ??_C@_0CE@IKBNEHA@?$GAvector?5vbase?5constructor?5itera@ 000000018005df00     libvcruntime:undname.obj
 0002:00005f28       ??_C@_0BL@NILFHHPC@?$GAvirtual?5displacement?5map?8@ 000000018005df28     libvcruntime:undname.obj
 0002:00005f48       ??_C@_0CB@JONCMFFK@?$GAeh?5vector?5constructor?5iterator@ 000000018005df48     libvcruntime:undname.obj
 0002:00005f70       ??_C@_0CA@GCEOPDGL@?$GAeh?5vector?5destructor?5iterator?8@ 000000018005df70     libvcruntime:undname.obj
 0002:00005f90       ??_C@_0CH@OOJPLCPH@?$GAeh?5vector?5vbase?5constructor?5it@ 000000018005df90     libvcruntime:undname.obj
 0002:00005fb8       ??_C@_0BL@LLKPOHJI@?$GAcopy?5constructor?5closure?8@ 000000018005dfb8     libvcruntime:undname.obj
 0002:00005fd8       ??_C@_0BA@KBCDOMBN@?$GAudt?5returning?8@ 000000018005dfd8     libvcruntime:undname.obj
 0002:00005fe8       ??_C@_03KLGMFNMG@?$GAEH@   000000018005dfe8     libvcruntime:undname.obj
 0002:00005fec       ??_C@_05KHLCHHI@?$GARTTI@  000000018005dfec     libvcruntime:undname.obj
 0002:00005ff8       ??_C@_0BA@KKLDJDLB@?$GAlocal?5vftable?8@ 000000018005dff8     libvcruntime:undname.obj
 0002:00006008       ??_C@_0CE@IIHCMGGL@?$GAlocal?5vftable?5constructor?5clos@ 000000018005e008     libvcruntime:undname.obj
 0002:0000602c       ??_C@_06FHBGPFGH@?5new?$FL?$FN@ 000000018005e02c     libvcruntime:undname.obj
 0002:00006038       ??_C@_09LBNFPBCA@?5delete?$FL?$FN@ 000000018005e038     libvcruntime:undname.obj
 0002:00006048       ??_C@_0P@HJKNJFNN@?$GAomni?5callsig?8@ 000000018005e048     libvcruntime:undname.obj
 0002:00006058       ??_C@_0BL@CNOONJFP@?$GAplacement?5delete?5closure?8@ 000000018005e058     libvcruntime:undname.obj
 0002:00006078       ??_C@_0BN@CKNJLHMB@?$GAplacement?5delete?$FL?$FN?5closure?8@ 000000018005e078     libvcruntime:undname.obj
 0002:00006098       ??_C@_0CG@CFDHKGGD@?$GAmanaged?5vector?5constructor?5ite@ 000000018005e098     libvcruntime:undname.obj
 0002:000060c0       ??_C@_0CF@IMGKMJNO@?$GAmanaged?5vector?5destructor?5iter@ 000000018005e0c0     libvcruntime:undname.obj
 0002:000060e8       ??_C@_0CG@HLDDJMAG@?$GAeh?5vector?5copy?5constructor?5ite@ 000000018005e0e8     libvcruntime:undname.obj
 0002:00006110       ??_C@_0CM@FCBBDIGB@?$GAeh?5vector?5vbase?5copy?5construct@ 000000018005e110     libvcruntime:undname.obj
 0002:00006140       ??_C@_0BL@CLIPGLGB@?$GAdynamic?5initializer?5for?5?8@ 000000018005e140     libvcruntime:undname.obj
 0002:00006160       ??_C@_0CB@PDBIFEP@?$GAdynamic?5atexit?5destructor?5for?5@ 000000018005e160     libvcruntime:undname.obj
 0002:00006188       ??_C@_0CD@CGAJBKEJ@?$GAvector?5copy?5constructor?5iterat@ 000000018005e188     libvcruntime:undname.obj
 0002:000061b0       ??_C@_0CJ@GJELGAMM@?$GAvector?5vbase?5copy?5constructor?5@ 000000018005e1b0     libvcruntime:undname.obj
 0002:000061e0       ??_C@_0CL@FGIJHLCE@?$GAmanaged?5vector?5copy?5constructo@ 000000018005e1e0     libvcruntime:undname.obj
 0002:00006210       ??_C@_0BM@PMGGMLDN@?$GAlocal?5static?5thread?5guard?8@ 000000018005e210     libvcruntime:undname.obj
 0002:00006230       ??_C@_0N@BDNMDMOL@operator?5?$CC?$CC?5@ 000000018005e230     libvcruntime:undname.obj
 0002:00006240       ??_C@_0BC@GGEBGALA@operator?5co_await@ 000000018005e240     libvcruntime:undname.obj
 0002:00006258       ??_C@_0M@GAAIMMOH@operator?$DM?$DN?$DO@ 000000018005e258     libvcruntime:undname.obj
 0002:00006268       ??_C@_0BC@DAFEJGAK@?5Type?5Descriptor?8@ 000000018005e268     libvcruntime:undname.obj
 0002:00006280       ??_C@_0BM@LDKODKLH@?5Base?5Class?5Descriptor?5at?5?$CI@ 000000018005e280     libvcruntime:undname.obj
 0002:000062a0       ??_C@_0BD@LGICGFMM@?5Base?5Class?5Array?8@ 000000018005e2a0     libvcruntime:undname.obj
 0002:000062b8       ??_C@_0BN@MECKDCOJ@?5Class?5Hierarchy?5Descriptor?8@ 000000018005e2b8     libvcruntime:undname.obj
 0002:000062d8       ??_C@_0BK@CFCOFLF@?5Complete?5Object?5Locator?8@ 000000018005e2d8     libvcruntime:undname.obj
 0002:000062f8       ??_C@_0BG@JNJLAMPM@?$GAanonymous?5namespace?8@ 000000018005e2f8     libvcruntime:undname.obj
 0002:00006328       ??_C@_1DM@KHCHBNEB@?$AAa?$AAp?$AAi?$AA?9?$AAm?$AAs?$AA?9?$AAw?$AAi?$AAn?$AA?9?$AAc?$AAo?$AAr?$AAe@ 000000018005e328     libvcruntime:winapi_downlevel.obj
 0002:00006368       ??_C@_1DK@LPPGFMPP@?$AAa?$AAp?$AAi?$AA?9?$AAm?$AAs?$AA?9?$AAw?$AAi?$AAn?$AA?9?$AAc?$AAo?$AAr?$AAe@ 000000018005e368     libvcruntime:winapi_downlevel.obj
 0002:000063a8       ??_C@_1BC@GDMECMAK@?$AAk?$AAe?$AAr?$AAn?$AAe?$AAl?$AA3?$AA2@ 000000018005e3a8     libvcruntime:winapi_downlevel.obj
 0002:000063c0       ??_C@_1BA@PFFKHIOG@?$AAa?$AAp?$AAi?$AA?9?$AAm?$AAs?$AA?9@ 000000018005e3c0     libvcruntime:winapi_downlevel.obj
 0002:00006400       ??_C@_1FE@LHBLIKM@?$AAA?$AAs?$AAs?$AAe?$AAr?$AAt?$AAi?$AAo?$AAn?$AA?5?$AAf?$AAa?$AAi?$AAl?$AAe@ 000000018005e400     libucrt:assert.obj
 0002:00006460       ??_C@_1EK@MBDPDCGA@?$AAM?$AAi?$AAc?$AAr?$AAo?$AAs?$AAo?$AAf?$AAt?$AA?5?$AAV?$AAi?$AAs?$AAu?$AAa@ 000000018005e460     libucrt:assert.obj
 0002:000064b0       ??_C@_1CE@OJBNHDMO@?$AAA?$AAs?$AAs?$AAe?$AAr?$AAt?$AAi?$AAo?$AAn?$AA?5?$AAf?$AAa?$AAi?$AAl?$AAe@ 000000018005e4b0     libucrt:assert.obj
 0002:000064d8       ??_C@_1BE@PHKBBGE@?$AAP?$AAr?$AAo?$AAg?$AAr?$AAa?$AAm?$AA?3?$AA?5@ 000000018005e4d8     libucrt:assert.obj
 0002:000064f0       ??_C@_1O@HEMHKNDC@?$AAF?$AAi?$AAl?$AAe?$AA?3?$AA?5@ 000000018005e4f0     libucrt:assert.obj
 0002:00006500       ??_C@_1O@KCAFKHJE@?$AAL?$AAi?$AAn?$AAe?$AA?3?$AA?5@ 000000018005e500     libucrt:assert.obj
 0002:00006510       ??_C@_1BK@PEDCIPMA@?$AAE?$AAx?$AAp?$AAr?$AAe?$AAs?$AAs?$AAi?$AAo?$AAn?$AA?3?$AA?5@ 000000018005e510     libucrt:assert.obj
 0002:00006530       ??_C@_1OA@EGMLFBHJ@?$AAF?$AAo?$AAr?$AA?5?$AAi?$AAn?$AAf?$AAo?$AAr?$AAm?$AAa?$AAt?$AAi?$AAo?$AAn@ 000000018005e530     libucrt:assert.obj
 0002:00006610       ??_C@_1HK@POCJMFGK@?$AA?$CI?$AAP?$AAr?$AAe?$AAs?$AAs?$AA?5?$AAR?$AAe?$AAt?$AAr?$AAy?$AA?5?$AAt?$AAo@ 000000018005e610     libucrt:assert.obj
 0002:00006690       ??_C@_17LGKOMLJ@?$AA?4?$AA?4?$AA?4@ 000000018005e690     libucrt:assert.obj
 0002:00006698       ??_C@_13LBAGMAIH@?$AA?6@   000000018005e698     libucrt:assert.obj
 0002:0000669c       ??_C@_15IABLJNFO@?$AA?6?$AA?6@ 000000018005e69c     libucrt:assert.obj
 0002:000066a8       ??_C@_1CO@EAEJAADC@?$AA?$DM?$AAp?$AAr?$AAo?$AAg?$AAr?$AAa?$AAm?$AA?5?$AAn?$AAa?$AAm?$AAe?$AA?5?$AAu@ 000000018005e6a8     libucrt:assert.obj
 0002:000066e0       ?standard_lookup_table_spectre@__crt_stdio_output@@3V?$spectre_mitigated_lookup_table@Ustate_transition_pair@__crt_stdio_output@@$0IA@@1@B 000000018005e6e0     libucrt:output.obj
 0002:00006ae0       ??_C@_1O@CEDCILHN@?$AA?$CI?$AAn?$AAu?$AAl?$AAl?$AA?$CJ@ 000000018005eae0     libucrt:output.obj
 0002:00006af0       ??_C@_06OJHGLDPL@?$CInull?$CJ@ 000000018005eaf0     libucrt:output.obj
 0002:00006c68       ??_C@_19DOGDICKI@?$AA?4?$AAe?$AAx?$AAe@ 000000018005ec68     libucrt:stat.obj
 0002:00006c78       ??_C@_19BDKLHPGC@?$AA?4?$AAc?$AAm?$AAd@ 000000018005ec78     libucrt:stat.obj
 0002:00006c88       ??_C@_19PINKOIBI@?$AA?4?$AAb?$AAa?$AAt@ 000000018005ec88     libucrt:stat.obj
 0002:00006c98       ??_C@_19CDGLJBOD@?$AA?4?$AAc?$AAo?$AAm@ 000000018005ec98     libucrt:stat.obj
 0002:00006cb0       __newctype                 000000018005ecb0     libucrt:ctype.obj
 0002:00006fb0       __newclmap                 000000018005efb0     libucrt:ctype.obj
 0002:00007130       __newcumap                 000000018005f130     libucrt:ctype.obj
 0002:000072b0       _wctype                    000000018005f2b0     libucrt:ctype.obj
 0002:000074c0       ?large_power_data@?1??multiply_by_power_of_ten@__crt_strtox@@YA_NAEAUbig_integer@2@I@Z@4QBIB 000000018005f4c0     libucrt:strtod.obj
 0002:00007dd0       ?large_power_indices@?1??multiply_by_power_of_ten@__crt_strtox@@YA_NAEAUbig_integer@2@I@Z@4QBUunpack_index@?1??12@YA_N0I@Z@B 000000018005fdd0     libucrt:strtod.obj
 0002:00007e68       ?small_powers_of_ten@?1??multiply_by_power_of_ten@__crt_strtox@@YA_NAEAUbig_integer@2@I@Z@4QBIB 000000018005fe68     libucrt:strtod.obj
 0002:00009b38       ??_C@_1M@PBPMMENC@?$AAa?$AAm?$AA?1?$AAp?$AAm@ 0000000180061b38     libucrt:wcsftime.obj
 0002:00009b48       ??_C@_17BLFJJHMM@?$AAa?$AA?1?$AAp@ 0000000180061b48     libucrt:wcsftime.obj
 0002:00009b50       ??_C@_13HOIJIPNN@?$AA?5@   0000000180061b50     libucrt:wcsftime.obj
 0002:00009b54       ??_C@_13CGOKJPIL@?$AA?1@   0000000180061b54     libucrt:wcsftime.obj
 0002:00009b58       ??_C@_13EBCNDICG@?$AA?3@   0000000180061b58     libucrt:wcsftime.obj
 0002:00009b5c       ??_C@_13KDLDGPGJ@?$AA?7@   0000000180061b5c     libucrt:wcsftime.obj
 0002:00009b60       ??_C@_13KJIIAINM@?$AA?$CL@ 0000000180061b60     libucrt:wcsftime.obj
 0002:00009b64       ??_C@_13EJFHHPOP@?$AA?$CF@ 0000000180061b64     libucrt:wcsftime.obj
 0002:00009b70       __acrt_exception_action_table 0000000180061b70     libucrt:exception_filter.obj
 0002:00009c30       __acrt_signal_action_table_count 0000000180061c30     libucrt:exception_filter.obj
 0002:00009c38       __acrt_signal_action_first_fpe_index 0000000180061c38     libucrt:exception_filter.obj
 0002:00009c40       __acrt_signal_action_fpe_count 0000000180061c40     libucrt:exception_filter.obj
 0002:00009c48       ??_C@_1BI@BGOHAHKC@?$AAm?$AAs?$AAc?$AAo?$AAr?$AAe?$AAe?$AA?4?$AAd?$AAl?$AAl@ 0000000180061c48     libucrt:exit.obj
 0002:00009c60       ??_C@_0P@MIGLKIOC@CorExitProcess@ 0000000180061c60     libucrt:exit.obj
 0002:00009df0       __lc_category              0000000180061df0     libucrt:wsetlocale.obj
 0002:00009e80       ??_C@_1O@GIFLHMA@?$AAL?$AAC?$AA_?$AAA?$AAL?$AAL@ 0000000180061e80     libucrt:wsetlocale.obj
 0002:00009e90       ??_C@_1BG@PPOMIBNJ@?$AAL?$AAC?$AA_?$AAC?$AAO?$AAL?$AAL?$AAA?$AAT?$AAE@ 0000000180061e90     libucrt:wsetlocale.obj
 0002:00009ea8       ??_C@_1BC@FFJGAPJM@?$AAL?$AAC?$AA_?$AAC?$AAT?$AAY?$AAP?$AAE@ 0000000180061ea8     libucrt:wsetlocale.obj
 0002:00009ec0       ??_C@_1BI@PCKFNJFB@?$AAL?$AAC?$AA_?$AAM?$AAO?$AAN?$AAE?$AAT?$AAA?$AAR?$AAY@ 0000000180061ec0     libucrt:wsetlocale.obj
 0002:00009ed8       ??_C@_1BG@ENIEDKID@?$AAL?$AAC?$AA_?$AAN?$AAU?$AAM?$AAE?$AAR?$AAI?$AAC@ 0000000180061ed8     libucrt:wsetlocale.obj
 0002:00009ef0       ??_C@_1BA@HAAOMIIG@?$AAL?$AAC?$AA_?$AAT?$AAI?$AAM?$AAE@ 0000000180061ef0     libucrt:wsetlocale.obj
 0002:00009f00       ??_C@_15NBPDDFIP@?$AA?$DN?$AA?$DL@ 0000000180061f00     libucrt:wsetlocale.obj
 0002:00009f08       ??_C@_13PJJBFPED@?$AA?$DL@ 0000000180061f08     libucrt:wsetlocale.obj
 0002:00009f0c       ??_C@_13NMPKAAJP@?$AA?$DN@ 0000000180061f0c     libucrt:wsetlocale.obj
 0002:00009f10       ??_C@_17EFJLDFDO@?$AA?9?$AA_?$AA?4@ 0000000180061f10     libucrt:wsetlocale.obj
 0002:00009f18       ??_C@_13FHBKNHDA@?$AAC@    0000000180061f18     libucrt:wsetlocale.obj
 0002:00009f20       ??_C@_17MBJJLFDM@?$AA_?$AA?4?$AA?0@ 0000000180061f20     libucrt:wsetlocale.obj
 0002:00009f28       ??_C@_13ENNFDPBH@?$AA_@    0000000180061f28     libucrt:wsetlocale.obj
 0002:00009f2c       ??_C@_13JOFGPIOO@?$AA?4@   0000000180061f2c     libucrt:wsetlocale.obj
 0002:00009f30       __lc_time_c                0000000180061f30     libucrt:nlsdata.obj
 0002:0000a1f0       ??_C@_03KOEHGMDN@Sun@      00000001800621f0     libucrt:nlsdata.obj
 0002:0000a1f4       ??_C@_03PDAGKDH@Mon@       00000001800621f4     libucrt:nlsdata.obj
 0002:0000a1f8       ??_C@_03NAGEINEP@Tue@      00000001800621f8     libucrt:nlsdata.obj
 0002:0000a1fc       ??_C@_03MHOMLAJA@Wed@      00000001800621fc     libucrt:nlsdata.obj
 0002:0000a200       ??_C@_03IOFIKPDN@Thu@      0000000180062200     libucrt:nlsdata.obj
 0002:0000a204       ??_C@_03IDIOELNC@Fri@      0000000180062204     libucrt:nlsdata.obj
 0002:0000a208       ??_C@_03FEFJNEK@Sat@       0000000180062208     libucrt:nlsdata.obj
 0002:0000a20c       ??_C@_06OOPIFAJ@Sunday@    000000018006220c     libucrt:nlsdata.obj
 0002:0000a214       ??_C@_06JLEDEDGH@Monday@   0000000180062214     libucrt:nlsdata.obj
 0002:0000a220       ??_C@_07BAAGCFCM@Tuesday@  0000000180062220     libucrt:nlsdata.obj
 0002:0000a228       ??_C@_09DLIGFAKA@Wednesday@ 0000000180062228     libucrt:nlsdata.obj
 0002:0000a238       ??_C@_08HACCIKIA@Thursday@ 0000000180062238     libucrt:nlsdata.obj
 0002:0000a244       ??_C@_06JECMNKMI@Friday@   0000000180062244     libucrt:nlsdata.obj
 0002:0000a250       ??_C@_08INBOOONO@Saturday@ 0000000180062250     libucrt:nlsdata.obj
 0002:0000a25c       ??_C@_03JIHJHPIE@Jan@      000000018006225c     libucrt:nlsdata.obj
 0002:0000a260       ??_C@_03HJBDCHOM@Feb@      0000000180062260     libucrt:nlsdata.obj
 0002:0000a264       ??_C@_03ODNJBKGA@Mar@      0000000180062264     libucrt:nlsdata.obj
 0002:0000a268       ??_C@_03LEOLGMJP@Apr@      0000000180062268     libucrt:nlsdata.obj
 0002:0000a26c       ??_C@_03CNMDKL@May@        000000018006226c     libucrt:nlsdata.obj
 0002:0000a270       ??_C@_03IDFGHECI@Jun@      0000000180062270     libucrt:nlsdata.obj
 0002:0000a274       ??_C@_03LBGABGKK@Jul@      0000000180062274     libucrt:nlsdata.obj
 0002:0000a278       ??_C@_03IFJFEIGA@Aug@      0000000180062278     libucrt:nlsdata.obj
 0002:0000a27c       ??_C@_03GGCAPAJC@Sep@      000000018006227c     libucrt:nlsdata.obj
 0002:0000a280       ??_C@_03BMAOKBAD@Oct@      0000000180062280     libucrt:nlsdata.obj
 0002:0000a284       ??_C@_03JPJOFNIA@Nov@      0000000180062284     libucrt:nlsdata.obj
 0002:0000a288       ??_C@_03MKABNOCG@Dec@      0000000180062288     libucrt:nlsdata.obj
 0002:0000a290       ??_C@_07CGJPFGJA@January@  0000000180062290     libucrt:nlsdata.obj
 0002:0000a298       ??_C@_08GNJGEPFN@February@ 0000000180062298     libucrt:nlsdata.obj
 0002:0000a2a4       ??_C@_05HPCKOFNC@March@    00000001800622a4     libucrt:nlsdata.obj
 0002:0000a2ac       ??_C@_05DMJDNLEJ@April@    00000001800622ac     libucrt:nlsdata.obj
 0002:0000a2b4       ??_C@_04CNLMGBGM@June@     00000001800622b4     libucrt:nlsdata.obj
 0002:0000a2bc       ??_C@_04MIEPOIFP@July@     00000001800622bc     libucrt:nlsdata.obj
 0002:0000a2c4       ??_C@_06LBBHFDDG@August@   00000001800622c4     libucrt:nlsdata.obj
 0002:0000a2d0       ??_C@_09BHHEALKD@September@ 00000001800622d0     libucrt:nlsdata.obj
 0002:0000a2e0       ??_C@_07JJNFCEND@October@  00000001800622e0     libucrt:nlsdata.obj
 0002:0000a2e8       ??_C@_08HCHEGEOA@November@ 00000001800622e8     libucrt:nlsdata.obj
 0002:0000a2f8       ??_C@_08EDHMEBNP@December@ 00000001800622f8     libucrt:nlsdata.obj
 0002:0000a304       ??_C@_02DEDBPAFC@AM@       0000000180062304     libucrt:nlsdata.obj
 0002:0000a308       ??_C@_02CJNFDJBF@PM@       0000000180062308     libucrt:nlsdata.obj
 0002:0000a310       ??_C@_08BPBNCDIB@MM?1dd?1yy@ 0000000180062310     libucrt:nlsdata.obj
 0002:0000a320       ??_C@_0BE@CKGJFCPC@dddd?0?5MMMM?5dd?0?5yyyy@ 0000000180062320     libucrt:nlsdata.obj
 0002:0000a338       ??_C@_08JCCMCCIL@HH?3mm?3ss@ 0000000180062338     libucrt:nlsdata.obj
 0002:0000a348       ??_C@_17MBGCMIPB@?$AAS?$AAu?$AAn@ 0000000180062348     libucrt:nlsdata.obj
 0002:0000a350       ??_C@_17KBOMKBF@?$AAM?$AAo?$AAn@ 0000000180062350     libucrt:nlsdata.obj
 0002:0000a358       ??_C@_17BMKGEGOJ@?$AAT?$AAu?$AAe@ 0000000180062358     libucrt:nlsdata.obj
 0002:0000a360       ??_C@_17CJEDCEPE@?$AAW?$AAe?$AAd@ 0000000180062360     libucrt:nlsdata.obj
 0002:0000a368       ??_C@_17PDPHAADD@?$AAT?$AAh?$AAu@ 0000000180062368     libucrt:nlsdata.obj
 0002:0000a370       ??_C@_17HFOLPPLP@?$AAF?$AAr?$AAi@ 0000000180062370     libucrt:nlsdata.obj
 0002:0000a378       ??_C@_17GGIBDPIH@?$AAS?$AAa?$AAt@ 0000000180062378     libucrt:nlsdata.obj
 0002:0000a380       ??_C@_1O@IHNHDHPB@?$AAS?$AAu?$AAn?$AAd?$AAa?$AAy@ 0000000180062380     libucrt:nlsdata.obj
 0002:0000a390       ??_C@_1O@MMNBFLIA@?$AAM?$AAo?$AAn?$AAd?$AAa?$AAy@ 0000000180062390     libucrt:nlsdata.obj
 0002:0000a3a0       ??_C@_1BA@ENFBFFEK@?$AAT?$AAu?$AAe?$AAs?$AAd?$AAa?$AAy@ 00000001800623a0     libucrt:nlsdata.obj
 0002:0000a3b0       ??_C@_1BE@EBOGMDOH@?$AAW?$AAe?$AAd?$AAn?$AAe?$AAs?$AAd?$AAa?$AAy@ 00000001800623b0     libucrt:nlsdata.obj
 0002:0000a3c8       ??_C@_1BC@HHMNLIHE@?$AAT?$AAh?$AAu?$AAr?$AAs?$AAd?$AAa?$AAy@ 00000001800623c8     libucrt:nlsdata.obj
 0002:0000a3e0       ??_C@_1O@PDICJHAG@?$AAF?$AAr?$AAi?$AAd?$AAa?$AAy@ 00000001800623e0     libucrt:nlsdata.obj
 0002:0000a3f0       ??_C@_1BC@ENMNNPAJ@?$AAS?$AAa?$AAt?$AAu?$AAr?$AAd?$AAa?$AAy@ 00000001800623f0     libucrt:nlsdata.obj
 0002:0000a408       ??_C@_17DKNBKCHM@?$AAJ?$AAa?$AAn@ 0000000180062408     libucrt:nlsdata.obj
 0002:0000a410       ??_C@_17LMDJEKJN@?$AAF?$AAe?$AAb@ 0000000180062410     libucrt:nlsdata.obj
 0002:0000a418       ??_C@_17CKNLEDEC@?$AAM?$AAa?$AAr@ 0000000180062418     libucrt:nlsdata.obj
 0002:0000a420       ??_C@_17LFPOIHDD@?$AAA?$AAp?$AAr@ 0000000180062420     libucrt:nlsdata.obj
 0002:0000a428       ??_C@_17PNNKMEED@?$AAM?$AAa?$AAy@ 0000000180062428     libucrt:nlsdata.obj
 0002:0000a430       ??_C@_17KCJGOCPB@?$AAJ?$AAu?$AAn@ 0000000180062430     libucrt:nlsdata.obj
 0002:0000a438       ??_C@_17IJPCKHK@?$AAJ?$AAu?$AAl@ 0000000180062438     libucrt:nlsdata.obj
 0002:0000a440       ??_C@_17ICPELBCN@?$AAA?$AAu?$AAg@ 0000000180062440     libucrt:nlsdata.obj
 0002:0000a448       ??_C@_17HCHCOKMG@?$AAS?$AAe?$AAp@ 0000000180062448     libucrt:nlsdata.obj
 0002:0000a450       ??_C@_17FNLKOI@?$AAO?$AAc?$AAt@ 0000000180062450     libucrt:nlsdata.obj
 0002:0000a458       ??_C@_17BBDMLCIG@?$AAN?$AAo?$AAv@ 0000000180062458     libucrt:nlsdata.obj
 0002:0000a460       ??_C@_17EGKACKIF@?$AAD?$AAe?$AAc@ 0000000180062460     libucrt:nlsdata.obj
 0002:0000a468       ??_C@_1BA@EFMEIEBA@?$AAJ?$AAa?$AAn?$AAu?$AAa?$AAr?$AAy@ 0000000180062468     libucrt:nlsdata.obj
 0002:0000a478       ??_C@_1BC@JGDDFFAM@?$AAF?$AAe?$AAb?$AAr?$AAu?$AAa?$AAr?$AAy@ 0000000180062478     libucrt:nlsdata.obj
 0002:0000a490       ??_C@_1M@IKEENEDF@?$AAM?$AAa?$AAr?$AAc?$AAh@ 0000000180062490     libucrt:nlsdata.obj
 0002:0000a4a0       ??_C@_1M@GJNLMHFD@?$AAA?$AAp?$AAr?$AAi?$AAl@ 00000001800624a0     libucrt:nlsdata.obj
 0002:0000a4b0       ??_C@_19EPFLPGAP@?$AAJ?$AAu?$AAn?$AAe@ 00000001800624b0     libucrt:nlsdata.obj
 0002:0000a4c0       ??_C@_19BIFMLPCD@?$AAJ?$AAu?$AAl?$AAy@ 00000001800624c0     libucrt:nlsdata.obj
 0002:0000a4d0       ??_C@_1O@PAHLKOAC@?$AAA?$AAu?$AAg?$AAu?$AAs?$AAt@ 00000001800624d0     libucrt:nlsdata.obj
 0002:0000a4e0       ??_C@_1BE@DKAAMBJL@?$AAS?$AAe?$AAp?$AAt?$AAe?$AAm?$AAb?$AAe?$AAr@ 00000001800624e0     libucrt:nlsdata.obj
 0002:0000a4f8       ??_C@_1BA@EPANDLNG@?$AAO?$AAc?$AAt?$AAo?$AAb?$AAe?$AAr@ 00000001800624f8     libucrt:nlsdata.obj
 0002:0000a508       ??_C@_1BC@BGLIFPF@?$AAN?$AAo?$AAv?$AAe?$AAm?$AAb?$AAe?$AAr@ 0000000180062508     libucrt:nlsdata.obj
 0002:0000a520       ??_C@_1BC@FEMKIFH@?$AAD?$AAe?$AAc?$AAe?$AAm?$AAb?$AAe?$AAr@ 0000000180062520     libucrt:nlsdata.obj
 0002:0000a534       ??_C@_15ODEHAHHF@?$AAA?$AAM@ 0000000180062534     libucrt:nlsdata.obj
 0002:0000a53c       ??_C@_15CLMNNGEL@?$AAP?$AAM@ 000000018006253c     libucrt:nlsdata.obj
 0002:0000a548       ??_C@_1BC@IEBCMHCM@?$AAM?$AAM?$AA?1?$AAd?$AAd?$AA?1?$AAy?$AAy@ 0000000180062548     libucrt:nlsdata.obj
 0002:0000a560       ??_C@_1CI@KNAKOEBC@?$AAd?$AAd?$AAd?$AAd?$AA?0?$AA?5?$AAM?$AAM?$AAM?$AAM?$AA?5?$AAd?$AAd?$AA?0?$AA?5@ 0000000180062560     libucrt:nlsdata.obj
 0002:0000a588       ??_C@_1BC@GDGBMEMK@?$AAH?$AAH?$AA?3?$AAm?$AAm?$AA?3?$AAs?$AAs@ 0000000180062588     libucrt:nlsdata.obj
 0002:0000a5a0       _days                      00000001800625a0     libucrt:days.obj
 0002:0000a5d8       _lpdays                    00000001800625d8     libucrt:days.obj
 0002:0000a6f0       ??_C@_1EA@JGEFHKEI@?$AAa?$AAp?$AAi?$AA?9?$AAm?$AAs?$AA?9?$AAw?$AAi?$AAn?$AA?9?$AAc?$AAo?$AAr?$AAe@ 00000001800626f0     libucrt:winapi_thunks.obj
 0002:0000a730       ??_C@_1DI@IJCEHOCB@?$AAa?$AAp?$AAi?$AA?9?$AAm?$AAs?$AA?9?$AAw?$AAi?$AAn?$AA?9?$AAc?$AAo?$AAr?$AAe@ 0000000180062730     libucrt:winapi_thunks.obj
 0002:0000a770       ??_C@_1EI@MPIAOHOC@?$AAa?$AAp?$AAi?$AA?9?$AAm?$AAs?$AA?9?$AAw?$AAi?$AAn?$AA?9?$AAc?$AAo?$AAr?$AAe@ 0000000180062770     libucrt:winapi_thunks.obj
 0002:0000a7c0       ??_C@_1FK@FPHCKFIE@?$AAa?$AAp?$AAi?$AA?9?$AAm?$AAs?$AA?9?$AAw?$AAi?$AAn?$AA?9?$AAc?$AAo?$AAr?$AAe@ 00000001800627c0     libucrt:winapi_thunks.obj
 0002:0000a820       ??_C@_1EM@DILCGIIO@?$AAa?$AAp?$AAi?$AA?9?$AAm?$AAs?$AA?9?$AAw?$AAi?$AAn?$AA?9?$AAc?$AAo?$AAr?$AAe@ 0000000180062820     libucrt:winapi_thunks.obj
 0002:0000a870       ??_C@_1DM@LNCGDDPN@?$AAa?$AAp?$AAi?$AA?9?$AAm?$AAs?$AA?9?$AAw?$AAi?$AAn?$AA?9?$AAc?$AAo?$AAr?$AAe@ 0000000180062870     libucrt:winapi_thunks.obj
 0002:0000a8b0       ??_C@_1DO@FPAPJEMD@?$AAa?$AAp?$AAi?$AA?9?$AAm?$AAs?$AA?9?$AAw?$AAi?$AAn?$AA?9?$AAc?$AAo?$AAr?$AAe@ 00000001800628b0     libucrt:winapi_thunks.obj
 0002:0000a8f0       ??_C@_1DK@NDHNAHIO@?$AAa?$AAp?$AAi?$AA?9?$AAm?$AAs?$AA?9?$AAw?$AAi?$AAn?$AA?9?$AAc?$AAo?$AAr?$AAe@ 00000001800628f0     libucrt:winapi_thunks.obj
 0002:0000a930       ??_C@_1DM@KGHDGBCM@?$AAa?$AAp?$AAi?$AA?9?$AAm?$AAs?$AA?9?$AAw?$AAi?$AAn?$AA?9?$AAc?$AAo?$AAr?$AAe@ 0000000180062930     libucrt:winapi_thunks.obj
 0002:0000a970       ??_C@_1EO@IJIOEFOH@?$AAa?$AAp?$AAi?$AA?9?$AAm?$AAs?$AA?9?$AAw?$AAi?$AAn?$AA?9?$AAr?$AAt?$AAc?$AAo@ 0000000180062970     libucrt:winapi_thunks.obj
 0002:0000a9c0       ??_C@_1FG@HHGEKANL@?$AAa?$AAp?$AAi?$AA?9?$AAm?$AAs?$AA?9?$AAw?$AAi?$AAn?$AA?9?$AAs?$AAe?$AAc?$AAu@ 00000001800629c0     libucrt:winapi_thunks.obj
 0002:0000aa20       ??_C@_1EG@DBIOJECG@?$AAe?$AAx?$AAt?$AA?9?$AAm?$AAs?$AA?9?$AAw?$AAi?$AAn?$AA?9?$AAn?$AAt?$AAu?$AAs@ 0000000180062a20     libucrt:winapi_thunks.obj
 0002:0000aa70       ??_C@_1EO@FIHMJCLF@?$AAe?$AAx?$AAt?$AA?9?$AAm?$AAs?$AA?9?$AAw?$AAi?$AAn?$AA?9?$AAn?$AAt?$AAu?$AAs@ 0000000180062a70     libucrt:winapi_thunks.obj
 0002:0000aac0       ??_C@_1BC@DNHGCMLG@?$AAa?$AAd?$AAv?$AAa?$AAp?$AAi?$AA3?$AA2@ 0000000180062ac0     libucrt:winapi_thunks.obj
 0002:0000aad8       ??_C@_1M@OAIMIKLP@?$AAn?$AAt?$AAd?$AAl?$AAl@ 0000000180062ad8     libucrt:winapi_thunks.obj
 0002:0000aaf0       ??_C@_1EG@DPGNFKGC@?$AAa?$AAp?$AAi?$AA?9?$AAm?$AAs?$AA?9?$AAw?$AAi?$AAn?$AA?9?$AAa?$AAp?$AAp?$AAm@ 0000000180062af0     libucrt:winapi_thunks.obj
 0002:0000ab38       ??_C@_1O@BCCLBEOE@?$AAu?$AAs?$AAe?$AAr?$AA3?$AA2@ 0000000180062b38     libucrt:winapi_thunks.obj
 0002:0000ab48       ??_C@_1BA@IAIFMGEF@?$AAe?$AAx?$AAt?$AA?9?$AAm?$AAs?$AA?9@ 0000000180062b48     libucrt:winapi_thunks.obj
 0002:0000ab60       ??_C@_0BA@FHFNEAED@AreFileApisANSI@ 0000000180062b60     libucrt:winapi_thunks.obj
 0002:0000ab80       ??_C@_0BE@LJANKFHF@EnumSystemLocalesEx@ 0000000180062b80     libucrt:winapi_thunks.obj
 0002:0000abc0       ??_C@_0BA@HNOPNCHB@GetActiveWindow@ 0000000180062bc0     libucrt:winapi_thunks.obj
 0002:0000abd8       ??_C@_0BA@EPCJIIPD@GetDateFormatEx@ 0000000180062bd8     libucrt:winapi_thunks.obj
 0002:0000abf0       ??_C@_0BD@HHGDFDBJ@GetLastActivePopup@ 0000000180062bf0     libucrt:winapi_thunks.obj
 0002:0000ac18       ??_C@_0BI@DFKBFLJE@GetProcessWindowStation@ 0000000180062c18     libucrt:winapi_thunks.obj
 0002:0000ac38       ??_C@_0BA@CIJJKCJJ@GetTimeFormatEx@ 0000000180062c38     libucrt:winapi_thunks.obj
 0002:0000ac50       ??_C@_0BJ@PBCCBIPI@GetUserDefaultLocaleName@ 0000000180062c50     libucrt:winapi_thunks.obj
 0002:0000ac78       ??_C@_0BK@DEKFELLI@GetUserObjectInformationW@ 0000000180062c78     libucrt:winapi_thunks.obj
 0002:0000aca8       ??_C@_0BC@CELBKLLA@IsValidLocaleName@ 0000000180062ca8     libucrt:winapi_thunks.obj
 0002:0000acd0       ??_C@_0BB@CDHDDLLP@LCIDToLocaleName@ 0000000180062cd0     libucrt:winapi_thunks.obj
 0002:0000acf0       ??_C@_0BB@HBDEELFH@LocaleNameToLCID@ 0000000180062cf0     libucrt:winapi_thunks.obj
 0002:0000ad10       ??_C@_0M@CHKKJDAI@MessageBoxA@ 0000000180062d10     libucrt:winapi_thunks.obj
 0002:0000ad28       ??_C@_0M@DLDCCGNP@MessageBoxW@ 0000000180062d28     libucrt:winapi_thunks.obj
 0002:0000ad38       ??_C@_0CF@OJOFEIGO@AppPolicyGetProcessTerminationM@ 0000000180062d38     libucrt:winapi_thunks.obj
 0002:0000ad68       ??_C@_0CE@OICFMIKE@AppPolicyGetShowDeveloperDiagno@ 0000000180062d68     libucrt:winapi_thunks.obj
 0002:0000ad90       ??_C@_0BL@ODDJNEDA@AppPolicyGetWindowingModel@ 0000000180062d90     libucrt:winapi_thunks.obj
 0002:0000ae30       ??_C@_03OEIAHPBN@INF@      0000000180062e30     libucrt:cvt.obj
 0002:0000ae34       ??_C@_03OJHLLCGB@inf@      0000000180062e34     libucrt:cvt.obj
 0002:0000ae38       ??_C@_03LKNCIKJB@NAN@      0000000180062e38     libucrt:cvt.obj
 0002:0000ae3c       ??_C@_03LHCJEHON@nan@      0000000180062e3c     libucrt:cvt.obj
 0002:0000ae40       ??_C@_09OFJJIMPC@NAN?$CISNAN?$CJ@ 0000000180062e40     libucrt:cvt.obj
 0002:0000ae50       ??_C@_09IPFBKMDL@nan?$CIsnan?$CJ@ 0000000180062e50     libucrt:cvt.obj
 0002:0000ae60       ??_C@_08IKHNHAJ@NAN?$CIIND?$CJ@ 0000000180062e60     libucrt:cvt.obj
 0002:0000ae70       ??_C@_08OFCDMILK@nan?$CIind?$CJ@ 0000000180062e70     libucrt:cvt.obj
 0002:0000ae7c       ??_C@_05KLBDPFGC@e?$CL000@ 0000000180062e7c     libucrt:cvt.obj
 0002:0000ae84       ?ccs@?1???$__acrt_stdio_parse_mode@D@@YA?AU__acrt_stdio_stream_mode@@QEBD@Z@4QBDB 0000000180062e84     libucrt:openfile.obj
 0002:0000ae88       ?utf8_encoding@?1???$__acrt_stdio_parse_mode@D@@YA?AU__acrt_stdio_stream_mode@@QEBD@Z@4QBDB 0000000180062e88     libucrt:openfile.obj
 0002:0000ae90       ?utf16_encoding@?1???$__acrt_stdio_parse_mode@D@@YA?AU__acrt_stdio_stream_mode@@QEBD@Z@4QBDB 0000000180062e90     libucrt:openfile.obj
 0002:0000ae98       ?unicode_encoding@?1???$__acrt_stdio_parse_mode@D@@YA?AU__acrt_stdio_stream_mode@@QEBD@Z@4QBDB 0000000180062e98     libucrt:openfile.obj
 0002:0000aec8       ??_C@_03JGHBODFD@pow@      0000000180062ec8     libucrt:fpexcept.obj
 0002:0000aecc       ??_C@_05HGHHAHAP@log10@    0000000180062ecc     libucrt:fpexcept.obj
 0002:0000aed4       ??_C@_04PDIFKINK@acos@     0000000180062ed4     libucrt:fpexcept.obj
 0002:0000aedc       ??_C@_04EIAKFFMI@sqrt@     0000000180062edc     libucrt:fpexcept.obj
 0002:0000aef0       __log_256_lead             0000000180062ef0     libucrt:log_256_lead_tail_table.obj
 0002:0000b700       __log_256_tail             0000000180063700     libucrt:log_256_lead_tail_table.obj
 0002:0000bf10       __two_to_jby64_head_table  0000000180063f10     libucrt:two_to_jby64_head_tail_table.obj
 0002:0000c110       __two_to_jby64_tail_table  0000000180064110     libucrt:two_to_jby64_head_tail_table.obj
 0002:0000c310       ??_C@_04MBFDLNIM@powf@     0000000180064310     libucrt:pow_special.obj
 0002:0000c320       __two_to_jby64_table       0000000180064320     libucrt:two_to_jby64_table.obj
 0002:0000c520       __log_F_inv_qword          0000000180064520     libucrt:log_f_inv_qword_table.obj
 0002:0000cd30       ??_C@_15HNJCPLHL@?$AAT?$AAZ@ 0000000180064d30     libucrt:tzset.obj
 0002:0000cd60       __acrt_rg_language         0000000180064d60     libucrt:get_qualified_locale.obj
 0002:0000d170       __acrt_rg_language_count   0000000180065170     libucrt:get_qualified_locale.obj
 0002:0000d180       __acrt_rg_country          0000000180065180     libucrt:get_qualified_locale.obj
 0002:0000d2f0       __acrt_rg_country_count    00000001800652f0     libucrt:get_qualified_locale.obj
 0002:0000d2f8       ??_C@_1BC@LLOKLNP@?$AAa?$AAm?$AAe?$AAr?$AAi?$AAc?$AAa?$AAn@ 00000001800652f8     libucrt:get_qualified_locale.obj
 0002:0000d310       ??_C@_1CC@HEIGCDGG@?$AAa?$AAm?$AAe?$AAr?$AAi?$AAc?$AAa?$AAn?$AA?5?$AAe?$AAn?$AAg?$AAl?$AAi?$AAs@ 0000000180065310     libucrt:get_qualified_locale.obj
 0002:0000d338       ??_C@_1CC@IHCNOMIN@?$AAa?$AAm?$AAe?$AAr?$AAi?$AAc?$AAa?$AAn?$AA?9?$AAe?$AAn?$AAg?$AAl?$AAi?$AAs@ 0000000180065338     libucrt:get_qualified_locale.obj
 0002:0000d360       ??_C@_1BG@GKAGPCGG@?$AAa?$AAu?$AAs?$AAt?$AAr?$AAa?$AAl?$AAi?$AAa?$AAn@ 0000000180065360     libucrt:get_qualified_locale.obj
 0002:0000d378       ??_C@_1BA@GMENCENF@?$AAb?$AAe?$AAl?$AAg?$AAi?$AAa?$AAn@ 0000000180065378     libucrt:get_qualified_locale.obj
 0002:0000d388       ??_C@_1BC@PJMIIAAN@?$AAc?$AAa?$AAn?$AAa?$AAd?$AAi?$AAa?$AAn@ 0000000180065388     libucrt:get_qualified_locale.obj
 0002:0000d3a0       ??_C@_17NOIMNFBF@?$AAc?$AAh?$AAh@ 00000001800653a0     libucrt:get_qualified_locale.obj
 0002:0000d3a8       ??_C@_17GGDALCHA@?$AAc?$AAh?$AAi@ 00000001800653a8     libucrt:get_qualified_locale.obj
 0002:0000d3b0       ??_C@_1BA@NPNJKIBL@?$AAc?$AAh?$AAi?$AAn?$AAe?$AAs?$AAe@ 00000001800653b0     libucrt:get_qualified_locale.obj
 0002:0000d3c0       ??_C@_1CC@DINBAMMJ@?$AAc?$AAh?$AAi?$AAn?$AAe?$AAs?$AAe?$AA?9?$AAh?$AAo?$AAn?$AAg?$AAk?$AAo?$AAn@ 00000001800653c0     libucrt:get_qualified_locale.obj
 0002:0000d3e8       ??_C@_1CG@IOBJPACO@?$AAc?$AAh?$AAi?$AAn?$AAe?$AAs?$AAe?$AA?9?$AAs?$AAi?$AAm?$AAp?$AAl?$AAi?$AAf@ 00000001800653e8     libucrt:get_qualified_locale.obj
 0002:0000d410       ??_C@_1CE@GAJNDCKG@?$AAc?$AAh?$AAi?$AAn?$AAe?$AAs?$AAe?$AA?9?$AAs?$AAi?$AAn?$AAg?$AAa?$AAp?$AAo@ 0000000180065410     libucrt:get_qualified_locale.obj
 0002:0000d438       ??_C@_1CI@PAJPIOOD@?$AAc?$AAh?$AAi?$AAn?$AAe?$AAs?$AAe?$AA?9?$AAt?$AAr?$AAa?$AAd?$AAi?$AAt?$AAi@ 0000000180065438     libucrt:get_qualified_locale.obj
 0002:0000d460       ??_C@_1BM@NILJBMMD@?$AAd?$AAu?$AAt?$AAc?$AAh?$AA?9?$AAb?$AAe?$AAl?$AAg?$AAi?$AAa?$AAn@ 0000000180065460     libucrt:get_qualified_locale.obj
 0002:0000d480       ??_C@_1CC@OOJPJNEJ@?$AAe?$AAn?$AAg?$AAl?$AAi?$AAs?$AAh?$AA?9?$AAa?$AAm?$AAe?$AAr?$AAi?$AAc?$AAa@ 0000000180065480     libucrt:get_qualified_locale.obj
 0002:0000d4a8       ??_C@_1BI@IOLFEEM@?$AAe?$AAn?$AAg?$AAl?$AAi?$AAs?$AAh?$AA?9?$AAa?$AAu?$AAs@ 00000001800654a8     libucrt:get_qualified_locale.obj
 0002:0000d4c0       ??_C@_1BO@HFFNLENJ@?$AAe?$AAn?$AAg?$AAl?$AAi?$AAs?$AAh?$AA?9?$AAb?$AAe?$AAl?$AAi?$AAz?$AAe@ 00000001800654c0     libucrt:get_qualified_locale.obj
 0002:0000d4e0       ??_C@_1BI@HAPKJMPO@?$AAe?$AAn?$AAg?$AAl?$AAi?$AAs?$AAh?$AA?9?$AAc?$AAa?$AAn@ 00000001800654e0     libucrt:get_qualified_locale.obj
 0002:0000d4f8       ??_C@_1CE@HLNDMIOJ@?$AAe?$AAn?$AAg?$AAl?$AAi?$AAs?$AAh?$AA?9?$AAc?$AAa?$AAr?$AAi?$AAb?$AAb?$AAe@ 00000001800654f8     libucrt:get_qualified_locale.obj
 0002:0000d520       ??_C@_1BI@LDHJHHAC@?$AAe?$AAn?$AAg?$AAl?$AAi?$AAs?$AAh?$AA?9?$AAi?$AAr?$AAe@ 0000000180065520     libucrt:get_qualified_locale.obj
 0002:0000d538       ??_C@_1CA@NJMMCFOC@?$AAe?$AAn?$AAg?$AAl?$AAi?$AAs?$AAh?$AA?9?$AAj?$AAa?$AAm?$AAa?$AAi?$AAc?$AAa@ 0000000180065538     libucrt:get_qualified_locale.obj
 0002:0000d558       ??_C@_1BG@BHJEBBGG@?$AAe?$AAn?$AAg?$AAl?$AAi?$AAs?$AAh?$AA?9?$AAn?$AAz@ 0000000180065558     libucrt:get_qualified_locale.obj
 0002:0000d570       ??_C@_1CK@FGOEJJCO@?$AAe?$AAn?$AAg?$AAl?$AAi?$AAs?$AAh?$AA?9?$AAs?$AAo?$AAu?$AAt?$AAh?$AA?5?$AAa@ 0000000180065570     libucrt:get_qualified_locale.obj
 0002:0000d5a0       ??_C@_1DE@PDBJPCJ@?$AAe?$AAn?$AAg?$AAl?$AAi?$AAs?$AAh?$AA?9?$AAt?$AAr?$AAi?$AAn?$AAi?$AAd?$AAa@ 00000001800655a0     libucrt:get_qualified_locale.obj
 0002:0000d5d8       ??_C@_1BG@JGCANDME@?$AAe?$AAn?$AAg?$AAl?$AAi?$AAs?$AAh?$AA?9?$AAu?$AAk@ 00000001800655d8     libucrt:get_qualified_locale.obj
 0002:0000d5f0       ??_C@_1BG@DINKMLE@?$AAe?$AAn?$AAg?$AAl?$AAi?$AAs?$AAh?$AA?9?$AAu?$AAs@ 00000001800655f0     libucrt:get_qualified_locale.obj
 0002:0000d608       ??_C@_1BI@NMFDBHJE@?$AAe?$AAn?$AAg?$AAl?$AAi?$AAs?$AAh?$AA?9?$AAu?$AAs?$AAa@ 0000000180065608     libucrt:get_qualified_locale.obj
 0002:0000d620       ??_C@_1BO@OIHKJKII@?$AAf?$AAr?$AAe?$AAn?$AAc?$AAh?$AA?9?$AAb?$AAe?$AAl?$AAg?$AAi?$AAa?$AAn@ 0000000180065620     libucrt:get_qualified_locale.obj
 0002:0000d640       ??_C@_1CA@NKAELJKI@?$AAf?$AAr?$AAe?$AAn?$AAc?$AAh?$AA?9?$AAc?$AAa?$AAn?$AAa?$AAd?$AAi?$AAa?$AAn@ 0000000180065640     libucrt:get_qualified_locale.obj
 0002:0000d660       ??_C@_1CE@MGKCNLGN@?$AAf?$AAr?$AAe?$AAn?$AAc?$AAh?$AA?9?$AAl?$AAu?$AAx?$AAe?$AAm?$AAb?$AAo?$AAu@ 0000000180065660     libucrt:get_qualified_locale.obj
 0002:0000d688       ??_C@_1BK@CEGEAILM@?$AAf?$AAr?$AAe?$AAn?$AAc?$AAh?$AA?9?$AAs?$AAw?$AAi?$AAs?$AAs@ 0000000180065688     libucrt:get_qualified_locale.obj
 0002:0000d6a8       ??_C@_1CA@PAFKEOCC@?$AAg?$AAe?$AAr?$AAm?$AAa?$AAn?$AA?9?$AAa?$AAu?$AAs?$AAt?$AAr?$AAi?$AAa?$AAn@ 00000001800656a8     libucrt:get_qualified_locale.obj
 0002:0000d6c8       ??_C@_1CI@HCFHGOFD@?$AAg?$AAe?$AAr?$AAm?$AAa?$AAn?$AA?9?$AAl?$AAi?$AAc?$AAh?$AAt?$AAe?$AAn?$AAs@ 00000001800656c8     libucrt:get_qualified_locale.obj
 0002:0000d6f0       ??_C@_1CE@FEDDNPDG@?$AAg?$AAe?$AAr?$AAm?$AAa?$AAn?$AA?9?$AAl?$AAu?$AAx?$AAe?$AAm?$AAb?$AAo?$AAu@ 00000001800656f0     libucrt:get_qualified_locale.obj
 0002:0000d718       ??_C@_1BK@LIMINNMN@?$AAg?$AAe?$AAr?$AAm?$AAa?$AAn?$AA?9?$AAs?$AAw?$AAi?$AAs?$AAs@ 0000000180065718     libucrt:get_qualified_locale.obj
 0002:0000d738       ??_C@_1BM@LGMDBEPD@?$AAi?$AAr?$AAi?$AAs?$AAh?$AA?9?$AAe?$AAn?$AAg?$AAl?$AAi?$AAs?$AAh@ 0000000180065738     libucrt:get_qualified_locale.obj
 0002:0000d758       ??_C@_1BM@NNCFBAEE@?$AAi?$AAt?$AAa?$AAl?$AAi?$AAa?$AAn?$AA?9?$AAs?$AAw?$AAi?$AAs?$AAs@ 0000000180065758     libucrt:get_qualified_locale.obj
 0002:0000d778       ??_C@_1BE@FEDJNPIB@?$AAn?$AAo?$AAr?$AAw?$AAe?$AAg?$AAi?$AAa?$AAn@ 0000000180065778     libucrt:get_qualified_locale.obj
 0002:0000d790       ??_C@_1CC@CILKDEIE@?$AAn?$AAo?$AAr?$AAw?$AAe?$AAg?$AAi?$AAa?$AAn?$AA?9?$AAb?$AAo?$AAk?$AAm?$AAa@ 0000000180065790     libucrt:get_qualified_locale.obj
 0002:0000d7b8       ??_C@_1CE@DHMMHEPL@?$AAn?$AAo?$AAr?$AAw?$AAe?$AAg?$AAi?$AAa?$AAn?$AA?9?$AAn?$AAy?$AAn?$AAo?$AAr@ 00000001800657b8     libucrt:get_qualified_locale.obj
 0002:0000d7e0       ??_C@_1CK@OPNMHECD@?$AAp?$AAo?$AAr?$AAt?$AAu?$AAg?$AAu?$AAe?$AAs?$AAe?$AA?9?$AAb?$AAr?$AAa?$AAz@ 00000001800657e0     libucrt:get_qualified_locale.obj
 0002:0000d810       ??_C@_1CE@KEEHCDB@?$AAs?$AAp?$AAa?$AAn?$AAi?$AAs?$AAh?$AA?9?$AAa?$AAr?$AAg?$AAe?$AAn?$AAt?$AAi@ 0000000180065810     libucrt:get_qualified_locale.obj
 0002:0000d838       ??_C@_1CA@GIAOLHJD@?$AAs?$AAp?$AAa?$AAn?$AAi?$AAs?$AAh?$AA?9?$AAb?$AAo?$AAl?$AAi?$AAv?$AAi?$AAa@ 0000000180065838     libucrt:get_qualified_locale.obj
 0002:0000d858       ??_C@_1BM@OJNDFNPD@?$AAs?$AAp?$AAa?$AAn?$AAi?$AAs?$AAh?$AA?9?$AAc?$AAh?$AAi?$AAl?$AAe@ 0000000180065858     libucrt:get_qualified_locale.obj
 0002:0000d878       ??_C@_1CC@OCOLPALL@?$AAs?$AAp?$AAa?$AAn?$AAi?$AAs?$AAh?$AA?9?$AAc?$AAo?$AAl?$AAo?$AAm?$AAb?$AAi@ 0000000180065878     libucrt:get_qualified_locale.obj
 0002:0000d8a0       ??_C@_1CG@BPOFMKBB@?$AAs?$AAp?$AAa?$AAn?$AAi?$AAs?$AAh?$AA?9?$AAc?$AAo?$AAs?$AAt?$AAa?$AA?5?$AAr@ 00000001800658a0     libucrt:get_qualified_locale.obj
 0002:0000d8c8       ??_C@_1DG@IGOBAPBB@?$AAs?$AAp?$AAa?$AAn?$AAi?$AAs?$AAh?$AA?9?$AAd?$AAo?$AAm?$AAi?$AAn?$AAi?$AAc@ 00000001800658c8     libucrt:get_qualified_locale.obj
 0002:0000d900       ??_C@_1CA@JHAPGEGI@?$AAs?$AAp?$AAa?$AAn?$AAi?$AAs?$AAh?$AA?9?$AAe?$AAc?$AAu?$AAa?$AAd?$AAo?$AAr@ 0000000180065900     libucrt:get_qualified_locale.obj
 0002:0000d920       ??_C@_1CI@LAPALJPP@?$AAs?$AAp?$AAa?$AAn?$AAi?$AAs?$AAh?$AA?9?$AAe?$AAl?$AA?5?$AAs?$AAa?$AAl?$AAv@ 0000000180065920     libucrt:get_qualified_locale.obj
 0002:0000d948       ??_C@_1CE@PDGBOFOM@?$AAs?$AAp?$AAa?$AAn?$AAi?$AAs?$AAh?$AA?9?$AAg?$AAu?$AAa?$AAt?$AAe?$AAm?$AAa@ 0000000180065948     libucrt:get_qualified_locale.obj
 0002:0000d970       ??_C@_1CC@NBEBAODI@?$AAs?$AAp?$AAa?$AAn?$AAi?$AAs?$AAh?$AA?9?$AAh?$AAo?$AAn?$AAd?$AAu?$AAr?$AAa@ 0000000180065970     libucrt:get_qualified_locale.obj
 0002:0000d998       ??_C@_1CA@LLKGHBMF@?$AAs?$AAp?$AAa?$AAn?$AAi?$AAs?$AAh?$AA?9?$AAm?$AAe?$AAx?$AAi?$AAc?$AAa?$AAn@ 0000000180065998     libucrt:get_qualified_locale.obj
 0002:0000d9b8       ??_C@_1BO@LKNDOIGD@?$AAs?$AAp?$AAa?$AAn?$AAi?$AAs?$AAh?$AA?9?$AAm?$AAo?$AAd?$AAe?$AAr?$AAn@ 00000001800659b8     libucrt:get_qualified_locale.obj
 0002:0000d9d8       ??_C@_1CE@NMDMOEEB@?$AAs?$AAp?$AAa?$AAn?$AAi?$AAs?$AAh?$AA?9?$AAn?$AAi?$AAc?$AAa?$AAr?$AAa?$AAg@ 00000001800659d8     libucrt:get_qualified_locale.obj
 0002:0000da00       ??_C@_1BO@LLCBEJGB@?$AAs?$AAp?$AAa?$AAn?$AAi?$AAs?$AAh?$AA?9?$AAp?$AAa?$AAn?$AAa?$AAm?$AAa@ 0000000180065a00     libucrt:get_qualified_locale.obj
 0002:0000da20       ??_C@_1CC@FKPGGIHO@?$AAs?$AAp?$AAa?$AAn?$AAi?$AAs?$AAh?$AA?9?$AAp?$AAa?$AAr?$AAa?$AAg?$AAu?$AAa@ 0000000180065a20     libucrt:get_qualified_locale.obj
 0002:0000da48       ??_C@_1BK@CDEIHOOP@?$AAs?$AAp?$AAa?$AAn?$AAi?$AAs?$AAh?$AA?9?$AAp?$AAe?$AAr?$AAu@ 0000000180065a48     libucrt:get_qualified_locale.obj
 0002:0000da68       ??_C@_1CI@GAHAKKGP@?$AAs?$AAp?$AAa?$AAn?$AAi?$AAs?$AAh?$AA?9?$AAp?$AAu?$AAe?$AAr?$AAt?$AAo?$AA?5@ 0000000180065a68     libucrt:get_qualified_locale.obj
 0002:0000da90       ??_C@_1CA@NKJBCAGP@?$AAs?$AAp?$AAa?$AAn?$AAi?$AAs?$AAh?$AA?9?$AAu?$AAr?$AAu?$AAg?$AAu?$AAa?$AAy@ 0000000180065a90     libucrt:get_qualified_locale.obj
 0002:0000dab0       ??_C@_1CE@ODILCONM@?$AAs?$AAp?$AAa?$AAn?$AAi?$AAs?$AAh?$AA?9?$AAv?$AAe?$AAn?$AAe?$AAz?$AAu?$AAe@ 0000000180065ab0     libucrt:get_qualified_locale.obj
 0002:0000dad8       ??_C@_1CA@OBNMCGFO@?$AAs?$AAw?$AAe?$AAd?$AAi?$AAs?$AAh?$AA?9?$AAf?$AAi?$AAn?$AAl?$AAa?$AAn?$AAd@ 0000000180065ad8     libucrt:get_qualified_locale.obj
 0002:0000daf8       ??_C@_1M@PIPDDPPI@?$AAs?$AAw?$AAi?$AAs?$AAs@ 0000000180065af8     libucrt:get_qualified_locale.obj
 0002:0000db04       ??_C@_15GMFIMNFM@?$AAu?$AAs@ 0000000180065b04     libucrt:get_qualified_locale.obj
 0002:0000db10       ??_C@_17HAEBFAGL@?$AAu?$AAs?$AAa@ 0000000180065b10     libucrt:get_qualified_locale.obj
 0002:0000db18       ??_C@_1BA@DPFJEPHB@?$AAa?$AAm?$AAe?$AAr?$AAi?$AAc?$AAa@ 0000000180065b18     libucrt:get_qualified_locale.obj
 0002:0000db28       ??_C@_1BA@ELOGGFK@?$AAb?$AAr?$AAi?$AAt?$AAa?$AAi?$AAn@ 0000000180065b28     libucrt:get_qualified_locale.obj
 0002:0000db38       ??_C@_1M@GHBGIGDA@?$AAc?$AAh?$AAi?$AAn?$AAa@ 0000000180065b38     libucrt:get_qualified_locale.obj
 0002:0000db48       ??_C@_1M@NCHEJOPO@?$AAc?$AAz?$AAe?$AAc?$AAh@ 0000000180065b48     libucrt:get_qualified_locale.obj
 0002:0000db58       ??_C@_1BA@BKPAPBLA@?$AAe?$AAn?$AAg?$AAl?$AAa?$AAn?$AAd@ 0000000180065b58     libucrt:get_qualified_locale.obj
 0002:0000db68       ??_C@_1BM@HKBCKIPC@?$AAg?$AAr?$AAe?$AAa?$AAt?$AA?5?$AAb?$AAr?$AAi?$AAt?$AAa?$AAi?$AAn@ 0000000180065b68     libucrt:get_qualified_locale.obj
 0002:0000db88       ??_C@_1BA@PPCHPGJB@?$AAh?$AAo?$AAl?$AAl?$AAa?$AAn?$AAd@ 0000000180065b88     libucrt:get_qualified_locale.obj
 0002:0000db98       ??_C@_1BE@JBMPEGDG@?$AAh?$AAo?$AAn?$AAg?$AA?9?$AAk?$AAo?$AAn?$AAg@ 0000000180065b98     libucrt:get_qualified_locale.obj
 0002:0000dbb0       ??_C@_1BI@KOELBBPJ@?$AAn?$AAe?$AAw?$AA?9?$AAz?$AAe?$AAa?$AAl?$AAa?$AAn?$AAd@ 0000000180065bb0     libucrt:get_qualified_locale.obj
 0002:0000dbc8       ??_C@_15HIEBHAIO@?$AAn?$AAz@ 0000000180065bc8     libucrt:get_qualified_locale.obj
 0002:0000dbd0       ??_C@_1BC@CHBCPFPI@?$AAp?$AAr?$AA?5?$AAc?$AAh?$AAi?$AAn?$AAa@ 0000000180065bd0     libucrt:get_qualified_locale.obj
 0002:0000dbe8       ??_C@_1BC@JAOIIFKD@?$AAp?$AAr?$AA?9?$AAc?$AAh?$AAi?$AAn?$AAa@ 0000000180065be8     libucrt:get_qualified_locale.obj
 0002:0000dc00       ??_C@_1BI@BEHPPHKC@?$AAp?$AAu?$AAe?$AAr?$AAt?$AAo?$AA?9?$AAr?$AAi?$AAc?$AAo@ 0000000180065c00     libucrt:get_qualified_locale.obj
 0002:0000dc18       ??_C@_1O@PAEOFKDI@?$AAs?$AAl?$AAo?$AAv?$AAa?$AAk@ 0000000180065c18     libucrt:get_qualified_locale.obj
 0002:0000dc28       ??_C@_1BK@FIHMCKAM@?$AAs?$AAo?$AAu?$AAt?$AAh?$AA?5?$AAa?$AAf?$AAr?$AAi?$AAc?$AAa@ 0000000180065c28     libucrt:get_qualified_locale.obj
 0002:0000dc48       ??_C@_1BI@NAEOODKB@?$AAs?$AAo?$AAu?$AAt?$AAh?$AA?5?$AAk?$AAo?$AAr?$AAe?$AAa@ 0000000180065c48     libucrt:get_qualified_locale.obj
 0002:0000dc60       ??_C@_1BK@FBDGGIFF@?$AAs?$AAo?$AAu?$AAt?$AAh?$AA?9?$AAa?$AAf?$AAr?$AAi?$AAc?$AAa@ 0000000180065c60     libucrt:get_qualified_locale.obj
 0002:0000dc80       ??_C@_1BI@GHLEJDPK@?$AAs?$AAo?$AAu?$AAt?$AAh?$AA?9?$AAk?$AAo?$AAr?$AAe?$AAa@ 0000000180065c80     libucrt:get_qualified_locale.obj
 0002:0000dc98       ??_C@_1CE@PLHLOMJF@?$AAt?$AAr?$AAi?$AAn?$AAi?$AAd?$AAa?$AAd?$AA?5?$AA?$CG?$AA?5?$AAt?$AAo?$AAb?$AAa@ 0000000180065c98     libucrt:get_qualified_locale.obj
 0002:0000dcc0       ??_C@_1BO@MODIMHHI@?$AAu?$AAn?$AAi?$AAt?$AAe?$AAd?$AA?9?$AAk?$AAi?$AAn?$AAg?$AAd?$AAo?$AAm@ 0000000180065cc0     libucrt:get_qualified_locale.obj
 0002:0000dce0       ??_C@_1BM@FFHJONBJ@?$AAu?$AAn?$AAi?$AAt?$AAe?$AAd?$AA?9?$AAs?$AAt?$AAa?$AAt?$AAe?$AAs@ 0000000180065ce0     libucrt:get_qualified_locale.obj
 0002:0000dd00       ??_C@_19MPDNHKDG@?$AAu?$AAt?$AAf?$AA8@ 0000000180065d00     libucrt:get_qualified_locale.obj
 0002:0000dd10       ??_C@_17DNCLJFIF@?$AAA?$AAC?$AAP@ 0000000180065d10     libucrt:get_qualified_locale.obj
 0002:0000dd18       ??_C@_1M@FPEIIFAM@?$AAu?$AAt?$AAf?$AA?9?$AA8@ 0000000180065d18     libucrt:get_qualified_locale.obj
 0002:0000dd28       ??_C@_17CIKBIHLH@?$AAO?$AAC?$AAP@ 0000000180065d28     libucrt:get_qualified_locale.obj
 0002:0000dd30       __rglangidNotDefault       0000000180065d30     libucrt:getqloc_downlevel.obj
 0002:0000f9d0       ??_C@_01GBGANLPD@0@        00000001800679d0     libucrt:cfout.obj
 0002:0000f9d4       ??_C@_05DNEBIAHO@1?$CDINF@ 00000001800679d4     libucrt:cfout.obj
 0002:0000f9dc       ??_C@_06IMKFLFPG@1?$CDQNAN@ 00000001800679dc     libucrt:cfout.obj
 0002:0000f9e4       ??_C@_06PGGFOGJG@1?$CDSNAN@ 00000001800679e4     libucrt:cfout.obj
 0002:0000f9ec       ??_C@_05PHHOCPM@1?$CDIND@  00000001800679ec     libucrt:cfout.obj
 0002:0000fc60       ??_C@_1BA@BALFACEM@?$AAC?$AAO?$AAN?$AAO?$AAU?$AAT?$AA$@ 0000000180067c60     libucrt:initcon.obj
 0002:0000fc70       __log10_256_lead           0000000180067c70     libucrt:log10_256_lead_tail_table.obj
 0002:00010480       __log10_256_tail           0000000180068480     libucrt:log10_256_lead_tail_table.obj
 0002:00010c88       ??_C@_1BK@DBDEIDLH@?$AAK?$AAE?$AAR?$AAN?$AAE?$AAL?$AA3?$AA2?$AA?4?$AAD?$AAL?$AAL@ 0000000180068c88     DelayImp:delayhlp.obj
 0002:00010ca8       __pfnDliFailureHook2       0000000180068ca8     DelayImp:delayhk1.obj
 0002:00010cb0       _load_config_used          0000000180068cb0     LIBCMT:loadcfg.obj
 0002:00010de8       ??_C@_0BC@BDKFLDHL@unknown?5exception@ 0000000180068de8     Backend.obj
 0002:00010e00       ??_C@_0BF@KINCDENJ@bad?5array?5new?5length@ 0000000180068e00     Backend.obj
 0002:00010e18       ??_C@_07CIFAGBMG@unknown@  0000000180068e18     Backend.obj
 0002:00010e20       ??_C@_0BA@JFNIOLAK@string?5too?5long@ 0000000180068e20     Backend.obj
 0002:00010e30       ??_C@_1CO@EGNPJLKI@?$AAp?$AAe?$AAr?$AAs?$AAi?$AAs?$AAt?$AAe?$AAn?$AAt?$AA?$CI?$AA?$CJ?$AA?4?$AAI?$AAs@ 0000000180068e30     Backend.obj
 0002:00010e60       ??_C@_1DA@FBGAEOIO@?$AA?$CB?$AAp?$AAe?$AAr?$AAs?$AAi?$AAs?$AAt?$AAe?$AAn?$AAt?$AA?$CI?$AA?$CJ?$AA?4?$AAI@ 0000000180068e60     Backend.obj
 0002:00010e90       ??_C@_1CO@JCKLEFMA@?$AA?$CB?$AAp?$AAe?$AAr?$AAs?$AAi?$AAs?$AAt?$AAe?$AAn?$AAt?$AA?$CI?$AA?$CJ?$AA?4?$AAI@ 0000000180068e90     Backend.obj
 0002:00010ec0       ??_C@_1BE@GMLLOIPJ@?$AAr?$AAe?$AAf?$AAs?$AA_?$AA?5?$AA?$DO?$AA?5?$AA0@ 0000000180068ec0     Backend.obj
 0002:00010ed8       ??_C@_1CC@GBFLAAPF@?$AAw?$AAr?$AAa?$AAp?$AA?9?$AA?$DO?$AAr?$AAe?$AAf?$AAs?$AA_?$AA?5?$AA?$DN?$AA?$DN?$AA?5@ 0000000180068ed8     Backend.obj
 0002:00010f00       ??_C@_1IA@CCIFDHFH@?$AAD?$AA?3?$AA?2?$AAa?$AA?2?$AAn?$AAo?$AAd?$AAe?$AA?9?$AAc?$AAa?$AAn?$AAv?$AAa@ 0000000180068f00     Backend.obj
 0002:00010f80       ??_C@_1EC@MGGLMBLC@?$AAo?$AAb?$AAj?$AAe?$AAc?$AAt?$AA?9?$AA?$DO?$AAI?$AAn?$AAt?$AAe?$AAr?$AAn?$AAa@ 0000000180068f80     Backend.obj
 0002:00010fc8       ??_7Backend@@6B@           0000000180068fc8     Backend.obj
 0002:00011010       ??_7exception@stdext@@6B@  0000000180069010     Backend.obj
 0002:00011028       ??_7ObjectWrap@Nan@@6B@    0000000180069028     Backend.obj
 0002:00011040       ??_7bad_array_new_length@stdext@@6B@ 0000000180069040     Backend.obj
 0002:00011058       ??_C@_05NGOMGBBD@image@    0000000180069058     ImageBackend.obj
 0002:00011060       ??_C@_1HC@GFEOMEAF@?$AAD?$AA?3?$AA?2?$AAa?$AA?2?$AAn?$AAo?$AAd?$AAe?$AA?9?$AAc?$AAa?$AAn?$AAv?$AAa@ 0000000180069060     ImageBackend.obj
 0002:000110d8       ??_C@_1BC@DIMDFFBM@?$AA?$CB?$AAs?$AAu?$AAr?$AAf?$AAa?$AAc?$AAe@ 00000001800690d8     ImageBackend.obj
 0002:000110f0       ??_C@_1BA@BHHNPNF@?$AAs?$AAu?$AAr?$AAf?$AAa?$AAc?$AAe@ 00000001800690f0     ImageBackend.obj
 0002:00011100       ??_C@_0N@KBCACLBD@ImageBackend@ 0000000180069100     ImageBackend.obj
 0002:00011110       ??_7ImageBackend@@6B@      0000000180069110     ImageBackend.obj
 0002:00011158       ??_C@_03MJPNCPKC@pdf@      0000000180069158     PdfBackend.obj
 0002:00011160       ??_C@_0L@HCGIDJMC@PdfBackend@ 0000000180069160     PdfBackend.obj
 0002:00011170       ??_C@_0BA@FOIKENOD@vector?5too?5long@ 0000000180069170     PdfBackend.obj
 0002:00011180       ??_7PdfBackend@@6B@        0000000180069180     PdfBackend.obj
 0002:000111c8       ??_C@_03NNPBMGBD@svg@      00000001800691c8     SvgBackend.obj
 0002:000111d0       ??_C@_1GO@EKGNLMIA@?$AAD?$AA?3?$AA?2?$AAa?$AA?2?$AAn?$AAo?$AAd?$AAe?$AA?9?$AAc?$AAa?$AAn?$AAv?$AAa@ 00000001800691d0     SvgBackend.obj
 0002:00011240       ??_C@_1BE@LCFLFJLD@?$AA?$CB?$AA_?$AAc?$AAl?$AAo?$AAs?$AAu?$AAr?$AAe@ 0000000180069240     SvgBackend.obj
 0002:00011258       ??_C@_0L@NPKKBKFF@SvgBackend@ 0000000180069258     SvgBackend.obj
 0002:00011268       ??_7SvgBackend@@6B@        0000000180069268     SvgBackend.obj
 0002:000112b0       ??_C@_1GE@FJOIPOPI@?$AAD?$AA?3?$AA?2?$AAa?$AA?2?$AAn?$AAo?$AAd?$AAe?$AA?9?$AAc?$AAa?$AAn?$AAv?$AAa@ 00000001800692b0     BMPParser.obj
 0002:00011318       ??_C@_1DA@GJKBCAIL@?$AAs?$AAt?$AAa?$AAt?$AAu?$AAs?$AA?5?$AA?$DN?$AA?$DN?$AA?5?$AAS?$AAt?$AAa?$AAt?$AAu@ 0000000180069318     BMPParser.obj
 0002:00011348       ??_C@_0M@OPOGKKPL@file?5header@ 0000000180069348     BMPParser.obj
 0002:00011358       ??_C@_0BG@JPBAHECP@file?5header?5signature@ 0000000180069358     BMPParser.obj
 0002:00011370       ??_C@_02JKMCABAH@BA@       0000000180069370     BMPParser.obj
 0002:00011374       ??_C@_05BFGHBGGP@?5?$CCBA?$CC@ 0000000180069374     BMPParser.obj
 0002:0001137c       ??_C@_02FDNJOBDI@CI@       000000018006937c     BMPParser.obj
 0002:00011380       ??_C@_05KDMICALC@?5?$CCCI?$CC@ 0000000180069380     BMPParser.obj
 0002:00011388       ??_C@_02MINJEICA@CP@       0000000180069388     BMPParser.obj
 0002:0001138c       ??_C@_05LADPLIEN@?5?$CCCP?$CC@ 000000018006938c     BMPParser.obj
 0002:00011394       ??_C@_02KEKBIMGE@IC@       0000000180069394     BMPParser.obj
 0002:00011398       ??_C@_05MBOCEFAA@?5?$CCIC?$CC@ 0000000180069398     BMPParser.obj
 0002:000113a0       ??_C@_02LCNFJAAN@PT@       00000001800693a0     BMPParser.obj
 0002:000113a4       ??_C@_05PFJKOIOA@?5?$CCPT?$CC@ 00000001800693a4     BMPParser.obj
 0002:000113ac       ??_C@_02DGHHEOAL@BM@       00000001800693ac     BMPParser.obj
 0002:000113b0       ??_C@_0BH@PGODKMKI@inconsistent?5file?5size@ 00000001800693b0     BMPParser.obj
 0002:000113c8       ??_C@_0L@DKDHPBLO@DIB?5header@ 00000001800693c8     BMPParser.obj
 0002:000113d8       ??_C@_0BF@JGAMBPJ@?5?$CCOS22XBITMAPHEADER?$CC@ 00000001800693d8     BMPParser.obj
 0002:000113f0       ??_C@_0BB@GLFIFBPJ@image?5width?5is?50@ 00000001800693f0     BMPParser.obj
 0002:00011408       ??_C@_0BF@PICPCPNH@negative?5image?5width@ 0000000180069408     BMPParser.obj
 0002:00011420       ??_C@_0BG@DIENJMKE@too?5large?5image?5width@ 0000000180069420     BMPParser.obj
 0002:00011438       ??_C@_0BC@BPGKCLEL@image?5height?5is?50@ 0000000180069438     BMPParser.obj
 0002:00011450       ??_C@_0BH@MGLIIGAD@too?5large?5image?5height@ 0000000180069450     BMPParser.obj
 0002:00011468       ??_C@_0CB@EHNMIHLN@number?5of?5color?5planes?5must?5be?5@ 0000000180069468     BMPParser.obj
 0002:00011490       ??_C@_0M@CGFHNEKC@color?5depth@ 0000000180069490     BMPParser.obj
 0002:000114a0       ??_C@_0BB@JGEMFNKM@compression?5type@ 00000001800694a0     BMPParser.obj
 0002:000114b8       ??_C@_0L@LHCCDPID@?5?$CCBI_RLE8?$CC@ 00000001800694b8     BMPParser.obj
 0002:000114c8       ??_C@_0L@LODIMGOH@?5?$CCBI_RLE4?$CC@ 00000001800694c8     BMPParser.obj
 0002:000114d8       ??_C@_0L@KCBKOKJL@?5?$CCBI_JPEG?$CC@ 00000001800694d8     BMPParser.obj
 0002:000114e8       ??_C@_09CJGDEMME@?5?$CCBI_PNG?$CC@ 00000001800694e8     BMPParser.obj
 0002:000114f8       ??_C@_0BF@IIABODNP@?5?$CCBI_ALPHABITFIELDS?$CC@ 00000001800694f8     BMPParser.obj
 0002:00011510       ??_C@_0L@OLAPJCD@?5?$CCBI_CMYK?$CC@ 0000000180069510     BMPParser.obj
 0002:00011520       ??_C@_0P@LMMOCJLO@?5?$CCBI_CMYKRLE8?$CC@ 0000000180069520     BMPParser.obj
 0002:00011530       ??_C@_0P@LFNENANK@?5?$CCBI_CMYKRLE4?$CC@ 0000000180069530     BMPParser.obj
 0002:00011540       ??_C@_0EN@COPDNOCO@compression?5BI_BITFIELDS?5can?5be@ 0000000180069540     BMPParser.obj
 0002:00011590       ??_C@_0CI@DAENBHLK@color?5palette?5and?5bit?5depth?5com@ 0000000180069590     BMPParser.obj
 0002:000115b8       ??_C@_04CCANGBDI@Win?5@    00000001800695b8     BMPParser.obj
 0002:000115c0       ??_C@_04FBDBODBG@sRGB@     00000001800695c0     BMPParser.obj
 0002:000115c8       ??_C@_01BJJEKLCA@?$CC@     00000001800695c8     BMPParser.obj
 0002:000115d0       ??_C@_0O@CJMICHBL@color?5space?5?$CC@ 00000001800695d0     BMPParser.obj
 0002:000115e0       ??_C@_0CL@BAIMHKPA@image?5data?5overlaps?5with?5anothe@ 00000001800695e0     BMPParser.obj
 0002:00011610       ??_C@_0L@BENKOINO@image?5data@ 0000000180069610     BMPParser.obj
 0002:00011620       ??_C@_0BI@IFJLKLBA@missing?5image?5data?5size@ 0000000180069620     BMPParser.obj
 0002:00011638       ??_C@_0BI@PFLPMPIG@invalid?5image?5data?5size@ 0000000180069638     BMPParser.obj
 0002:00011650       ??_C@_0BG@MANBHLLD@not?5enough?5image?5data@ 0000000180069650     BMPParser.obj
 0002:00011668       ??_C@_0BK@KGDODFCD@unable?5to?5allocate?5memory@ 0000000180069668     BMPParser.obj
 0002:00011684       ??_C@_03NLJIHOMM@?5?9?5@   0000000180069684     BMPParser.obj
 0002:00011688       ??_C@_0BI@MNHGEGHJ@Error?5while?5processing?5@ 0000000180069688     BMPParser.obj
 0002:000116a0       ??_C@_0BH@CFIIDOJD@unexpected?5end?5of?5file@ 00000001800696a0     BMPParser.obj
 0002:000116b7       ??_C@_00CNPNBAHC@@         00000001800696b7     BMPParser.obj
 0002:000116b8       ??_C@_0BD@NNNHJFDD@invalid?5color?5mask@ 00000001800696b8     BMPParser.obj
 0002:000116d0       ??_C@_0N@FMIEHHDB@unsupported?5@ 00000001800696d0     BMPParser.obj
 0002:000116e0       ??_C@_08OHKLBDEG@unknown?5@ 00000001800696e0     BMPParser.obj
 0002:000116f0       ??_C@_08OMFJPINA@Backends@ 00000001800696f0     Backends.obj
 0002:00011700       ??_C@_1JE@JJMAAKOP@?$AAD?$AA?3?$AA?2?$AAa?$AA?2?$AAn?$AAo?$AAd?$AAe?$AA?9?$AAc?$AAa?$AAn?$AAv?$AAa@ 0000000180069700     Canvas.obj
 0002:000117a0       ??_C@_1FK@CBGIJHDF@?$AAv?$AAa?$AAl?$AAu?$AAe?$AA?4?$AAs?$AAi?$AAz?$AAe?$AA?$CI?$AA?$CJ?$AA?5?$AA?$DM?$AA?$DN@ 00000001800697a0     Canvas.obj
 0002:00011800       ??_C@_1GI@NMFKHHFO@?$AAD?$AA?3?$AA?2?$AAa?$AA?2?$AAn?$AAo?$AAd?$AAe?$AA?9?$AAc?$AAa?$AAn?$AAv?$AAa@ 0000000180069800     Canvas.obj
 0002:00011870       ??_C@_1GA@PFOOBIAG@?$AAl?$AAe?$AAn?$AAg?$AAt?$AAh?$AA?5?$AA?$DM?$AA?$DN?$AA?5?$AAi?$AAm?$AAp?$AA?3?$AA?3@ 0000000180069870     Canvas.obj
 0002:000118d0       ??_C@_1FM@LOELJOFK@?$AAs?$AAi?$AAz?$AAe?$AA?5?$AA?$DM?$AA?$DN?$AA?5?$AAi?$AAm?$AAp?$AA?3?$AA?3?$AAk?$AAM@ 00000001800698d0     Canvas.obj
 0002:00011930       ??_C@_1BO@OPFMAOCA@?$AAl?$AAe?$AAn?$AA?5?$AA?$DM?$AA?$DN?$AA?5?$AAI?$AAN?$AAT?$AA_?$AAM?$AAA?$AAX@ 0000000180069930     Canvas.obj
 0002:00011950       ??_C@_1BE@CKDJNAPC@?$AAs?$AAt?$AAr?$AA_?$AA?5?$AA?$CB?$AA?$DN?$AA?5?$AA0@ 0000000180069950     Canvas.obj
 0002:00011964       ??_C@_06IJIHIEPH@1?46?437@ 0000000180069964     Canvas.obj
 0002:0001196c       ??_C@_02LMMGGCAJ@?3?5@     000000018006996c     Canvas.obj
 0002:00011970       ??_C@_08LLGCOLLL@iostream@ 0000000180069970     Canvas.obj
 0002:00011980       ??_C@_0BA@ELKIONDK@bad?5locale?5name@ 0000000180069980     Canvas.obj
 0002:00011990       ??_C@_0BF@PHHKMMFD@ios_base?3?3badbit?5set@ 0000000180069990     Canvas.obj
 0002:000119a8       ??_C@_0BG@FMKFHCIL@ios_base?3?3failbit?5set@ 00000001800699a8     Canvas.obj
 0002:000119c0       ??_C@_0BF@OOHOMBOF@ios_base?3?3eofbit?5set@ 00000001800699c0     Canvas.obj
 0002:000119d8       ??_C@_0CD@BOHAHBFM@canvas?3empty_closure_output_buf@ 00000001800699d8     Canvas.obj
 0002:00011a00       ??_C@_0CA@PKBJJIPN@canvas?3term_closure_destination@ 0000000180069a00     Canvas.obj
 0002:00011a20       ??_C@_06PBIJCONE@Canvas@   0000000180069a20     Canvas.obj
 0002:00011a28       ??_C@_08GOCDALDA@toBuffer@ 0000000180069a28     Canvas.obj
 0002:00011a38       ??_C@_0O@IOKOGJGN@streamPNGSync@ 0000000180069a38     Canvas.obj
 0002:00011a48       ??_C@_0O@OBICOFIG@streamPDFSync@ 0000000180069a48     Canvas.obj
 0002:00011a58       ??_C@_0P@GMDNPKGK@streamJPEGSync@ 0000000180069a58     Canvas.obj
 0002:00011a68       ??_C@_04GPMDFGEJ@type@     0000000180069a68     Canvas.obj
 0002:00011a70       ??_C@_06LNMIFCNI@stride@   0000000180069a70     Canvas.obj
 0002:00011a78       ??_C@_05IGKADHGO@width@    0000000180069a78     Canvas.obj
 0002:00011a80       ??_C@_06LNLHEAAG@height@   0000000180069a80     Canvas.obj
 0002:00011a88       ??_C@_0P@DNOOAMCM@PNG_NO_FILTERS@ 0000000180069a88     Canvas.obj
 0002:00011a98       ??_C@_0BA@NECJFJGB@PNG_FILTER_NONE@ 0000000180069a98     Canvas.obj
 0002:00011aa8       ??_C@_0P@ILKINAJE@PNG_FILTER_SUB@ 0000000180069aa8     Canvas.obj
 0002:00011ab8       ??_C@_0O@PHEANGBB@PNG_FILTER_UP@ 0000000180069ab8     Canvas.obj
 0002:00011ac8       ??_C@_0P@OIJAFJM@PNG_FILTER_AVG@ 0000000180069ac8     Canvas.obj
 0002:00011ad8       ??_C@_0BB@EOMICOFG@PNG_FILTER_PAETH@ 0000000180069ad8     Canvas.obj
 0002:00011af0       ??_C@_0BA@HBOOLNBH@PNG_ALL_FILTERS@ 0000000180069af0     Canvas.obj
 0002:00011b00       ??_C@_0O@KCCDDIBD@_registerFont@ 0000000180069b00     Canvas.obj
 0002:00011b10       ??_C@_0DD@NOKGMICM@Class?5constructors?5cannot?5be?5in@ 0000000180069b10     Canvas.obj
 0002:00011b48       ??_C@_0BC@PALKPJEA@Invalid?5arguments@ 0000000180069b48     Canvas.obj
 0002:00011b60       ??_C@_0BK@LEHHNKDG@canvas?3ToBufferAsyncAfter@ 0000000180069b60     Canvas.obj
 0002:00011b80       ??_C@_0BB@CHLGOGDL@compressionLevel@ 0000000180069b80     Canvas.obj
 0002:00011b98       ??_C@_0L@CAGNKJED@resolution@ 0000000180069b98     Canvas.obj
 0002:00011ba8       ??_C@_07LOIMJIII@filters@  0000000180069ba8     Canvas.obj
 0002:00011bb0       ??_C@_07JKIHKJOO@palette@  0000000180069bb0     Canvas.obj
 0002:00011bb8       ??_C@_0CI@BHLKFIE@Palette?5length?5must?5be?5a?5multip@ 0000000180069bb8     Canvas.obj
 0002:00011be0       ??_C@_0BA@IGMJCIAO@backgroundIndex@ 0000000180069be0     Canvas.obj
 0002:00011bf0       ??_C@_07DADGLCBN@quality@  0000000180069bf0     Canvas.obj
 0002:00011bf8       ??_C@_0BC@PBNJDFOD@chromaSubsampling@ 0000000180069bf8     Canvas.obj
 0002:00011c10       ??_C@_0M@BECHMDJA@progressive@ 0000000180069c10     Canvas.obj
 0002:00011c1c       ??_C@_06FHIJNKHO@?$CFFT?$CFTZ@ 0000000180069c1c     Canvas.obj
 0002:00011c24       ??_C@_05PHLGJONK@title@    0000000180069c24     Canvas.obj
 0002:00011c2c       ??_C@_06LIPPPFCI@author@   0000000180069c2c     Canvas.obj
 0002:00011c38       ??_C@_07JNNGEGGO@subject@  0000000180069c38     Canvas.obj
 0002:00011c40       ??_C@_08KBIEDDDE@keywords@ 0000000180069c40     Canvas.obj
 0002:00011c50       ??_C@_07PJPKCGHK@creator@  0000000180069c50     Canvas.obj
 0002:00011c58       ??_C@_0N@NMBFAPFM@creationDate@ 0000000180069c58     Canvas.obj
 0002:00011c68       ??_C@_07FKDDNFDN@modDate@  0000000180069c68     Canvas.obj
 0002:00011c70       ??_C@_03DGOGAGNC@raw@      0000000180069c70     Canvas.obj
 0002:00011c78       ??_C@_0CE@IOCECGHO@Data?5exceeds?5maximum?5buffer?5len@ 0000000180069c78     Canvas.obj
 0002:00011ca0       ??_C@_09NGJJJBGE@image?1png@ 0000000180069ca0     Canvas.obj
 0002:00011cb0       ??_C@_0L@PJKHLKFB@image?1jpeg@ 0000000180069cb0     Canvas.obj
 0002:00011cc0       ??_C@_0BB@BCHOLLGI@canvas?3StreamPNG@ 0000000180069cc0     Canvas.obj
 0002:00011cd8       ??_C@_0BL@NEPODJIN@callback?5function?5required@ 0000000180069cd8     Canvas.obj
 0002:00011cf8       ??_C@_0BB@GPCAPPP@canvas?3StreamPDF@ 0000000180069cf8     Canvas.obj
 0002:00011d10       ??_C@_0BC@FANAGBIP@wrong?5canvas?5type@ 0000000180069d10     Canvas.obj
 0002:00011d28       ??_C@_0BE@BPOGMHI@Wrong?5argument?5type@ 0000000180069d28     Canvas.obj
 0002:00011d40       ??_C@_0KD@OFKOCKPC@The?5second?5argument?5to?5register@ 0000000180069d40     Canvas.obj
 0002:00011de8       ??_C@_0BK@COFJPHCD@Could?5not?5parse?5font?5file@ 0000000180069de8     Canvas.obj
 0002:00011e04       ??_C@_06NBOBHOCP@family@   0000000180069e04     Canvas.obj
 0002:00011e0c       ??_C@_06CMCBKMCB@weight@   0000000180069e0c     Canvas.obj
 0002:00011e14       ??_C@_05IAKJCFIM@style@    0000000180069e14     Canvas.obj
 0002:00011e1c       ??_C@_06IKLLLDHL@normal@   0000000180069e1c     Canvas.obj
 0002:00011e28       ??_C@_0CO@PJJOAFFD@Could?5not?5load?5font?5to?5the?5syst@ 0000000180069e28     Canvas.obj
 0002:00011e58       ??_C@_06DAHKLION@italic@   0000000180069e58     Canvas.obj
 0002:00011e60       ??_C@_07PNBIOHPA@oblique@  0000000180069e60     Canvas.obj
 0002:00011e68       ??_C@_04PJDGFHHN@bold@     0000000180069e68     Canvas.obj
 0002:00011e70       ??_C@_03GNABGMEE@100@      0000000180069e70     Canvas.obj
 0002:00011e74       ??_C@_03HPLEMDKK@200@      0000000180069e74     Canvas.obj
 0002:00011e78       ??_C@_03MHAIKEMP@300@      0000000180069e78     Canvas.obj
 0002:00011e7c       ??_C@_03FKNPJMHG@400@      0000000180069e7c     Canvas.obj
 0002:00011e80       ??_C@_03OCGDPLBD@500@      0000000180069e80     Canvas.obj
 0002:00011e84       ??_C@_03PANGFEPN@600@      0000000180069e84     Canvas.obj
 0002:00011e88       ??_C@_03EIGKDDJI@700@      0000000180069e88     Canvas.obj
 0002:00011e8c       ??_C@_03BAAJCDMO@800@      0000000180069e8c     Canvas.obj
 0002:00011e90       ??_C@_03KILFEEKL@900@      0000000180069e90     Canvas.obj
 0002:00011e98       ??_C@_07JKKCBBMM@context@  0000000180069e98     Canvas.obj
 0002:00011ea0       ??_C@_1JA@PPNCFCKL@?$AAD?$AA?3?$AA?2?$AAa?$AA?2?$AAn?$AAo?$AAd?$AAe?$AA?9?$AAc?$AAa?$AAn?$AAv?$AAa@ 0000000180069ea0     Canvas.obj
 0002:00011f30       ??_C@_1GK@KNJIIFLH@?$AAr?$AAe?$AAi?$AAn?$AAt?$AAe?$AAr?$AAp?$AAr?$AAe?$AAt?$AA_?$AAc?$AAa?$AAs@ 0000000180069f30     Canvas.obj
 0002:00011fa0       ??_C@_1CE@LNAGEONJ@?$AA?$CB?$AAo?$AAb?$AAj?$AAe?$AAc?$AAt?$AA?4?$AAI?$AAs?$AAE?$AAm?$AAp?$AAt?$AAy@ 0000000180069fa0     Canvas.obj
 0002:00011fc8       ??_C@_0BL@GOIGLPKN@unordered_map?1set?5too?5long@ 0000000180069fc8     Canvas.obj
 0002:00011fe8       ??_C@_0BK@OGNNAFAB@invalid?5hash?5bucket?5count@ 0000000180069fe8     Canvas.obj
 0002:00012008       ??_7?$basic_streambuf@DU?$char_traits@D@std@@@std@@6B@ 000000018006a008     Canvas.obj
 0002:00012080       ??_7ios_base@std@@6B@      000000018006a080     Canvas.obj
 0002:00012088       ??_7?$basic_ios@DU?$char_traits@D@std@@@std@@6B@ 000000018006a088     Canvas.obj
 0002:00012090       ??_7?$basic_stringbuf@DU?$char_traits@D@std@@V?$allocator@D@2@@std@@6B@ 000000018006a090     Canvas.obj
 0002:00012108       ??_7_Iostream_error_category2@std@@6B@ 000000018006a108     Canvas.obj
 0002:00012138       ??_7_System_error@std@@6B@ 000000018006a138     Canvas.obj
 0002:00012138       ??_7system_error@std@@6B@  000000018006a138     Canvas.obj
 0002:00012138       ??_7failure@ios_base@std@@6B@ 000000018006a138     Canvas.obj
 0002:00012150       ??_7?$basic_istream@DU?$char_traits@D@std@@@std@@6B@ 000000018006a150     Canvas.obj
 0002:00012158       ??_7Canvas@@6B@            000000018006a158     Canvas.obj
 0002:00012170       ?_Iostream_error@?4??message@_Iostream_error_category2@std@@UEBA?AV?$basic_string@DU?$char_traits@D@std@@V?$allocator@D@2@@3@H@Z@4QBDB 000000018006a170     Canvas.obj
 0002:00012188       ??_8?$basic_istringstream@DU?$char_traits@D@std@@V?$allocator@D@2@@std@@7B@ 000000018006a188     Canvas.obj
 0002:00012190       ??_7?$basic_istringstream@DU?$char_traits@D@std@@V?$allocator@D@2@@std@@6B@ 000000018006a190     Canvas.obj
 0002:00012198       ??_C@_0P@CKNMLMDB@CanvasGradient@ 000000018006a198     CanvasGradient.obj
 0002:000121a8       ??_C@_0N@FFOKKILE@addColorStop@ 000000018006a1a8     CanvasGradient.obj
 0002:000121b8       ??_C@_0BC@KNPMEBHA@invalid?5arguments@ 000000018006a1b8     CanvasGradient.obj
 0002:000121d0       ??_C@_0BA@ELGKPKEI@offset?5required@ 000000018006a1d0     CanvasGradient.obj
 0002:000121e0       ??_C@_0BG@HHHCEBEM@color?5string?5required@ 000000018006a1e0     CanvasGradient.obj
 0002:000121f8       ??_C@_0BD@JKDEPLNJ@parse?5color?5failed@ 000000018006a1f8     CanvasGradient.obj
 0002:00012210       ??_7Gradient@@6B@          000000018006a210     CanvasGradient.obj
 0002:00012228       ??_C@_0O@KEPDKAFI@CanvasPattern@ 000000018006a228     CanvasPattern.obj
 0002:00012238       ??_C@_0CG@CKGIHBBA@Image?5given?5has?5not?5completed?5l@ 000000018006a238     CanvasPattern.obj
 0002:00012260       ??_C@_0BJ@NBALILEB@Image?5or?5Canvas?5expected@ 000000018006a260     CanvasPattern.obj
 0002:00012280       ??_C@_09OGFADPEI@no?9repeat@ 000000018006a280     CanvasPattern.obj
 0002:00012290       ??_C@_08HMIFKPGE@repeat?9x@ 000000018006a290     CanvasPattern.obj
 0002:000122a0       ??_C@_08GFJOJOCF@repeat?9y@ 000000018006a2a0     CanvasPattern.obj
 0002:000122b0       ??_7Pattern@@6B@           000000018006a2b0     CanvasPattern.obj
 0002:000122c8       ??_C@_03JBJLGPFL@end@      000000018006a2c8     CanvasRenderingContext2d.obj
 0002:000122d0       ??_C@_0BB@GCADKGJO@map?1set?5too?5long@ 000000018006a2d0     CanvasRenderingContext2d.obj
 0002:000122e8       ??_C@_0BJ@HOMNLOJF@CanvasRenderingContext2D@ 000000018006a2e8     CanvasRenderingContext2d.obj
 0002:00012308       ??_C@_09LANPKMCJ@drawImage@ 000000018006a308     CanvasRenderingContext2d.obj
 0002:00012318       ??_C@_0N@HMHAOANH@putImageData@ 000000018006a318     CanvasRenderingContext2d.obj
 0002:00012328       ??_C@_0N@LJBMKNKJ@getImageData@ 000000018006a328     CanvasRenderingContext2d.obj
 0002:00012338       ??_C@_0BA@LENOHGDH@createImageData@ 000000018006a338     CanvasRenderingContext2d.obj
 0002:00012348       ??_C@_07IEJLLIOD@addPage@  000000018006a348     CanvasRenderingContext2d.obj
 0002:00012350       ??_C@_04EMMDIJJL@save@     000000018006a350     CanvasRenderingContext2d.obj
 0002:00012358       ??_C@_07HICINA@restore@    000000018006a358     CanvasRenderingContext2d.obj
 0002:00012360       ??_C@_06CEHMNFAL@rotate@   000000018006a360     CanvasRenderingContext2d.obj
 0002:00012368       ??_C@_09ODNGOEIO@translate@ 000000018006a368     CanvasRenderingContext2d.obj
 0002:00012378       ??_C@_09IFONHNKG@transform@ 000000018006a378     CanvasRenderingContext2d.obj
 0002:00012388       ??_C@_0P@KBHJLFLN@resetTransform@ 000000018006a388     CanvasRenderingContext2d.obj
 0002:00012398       ??_C@_0N@NPHKHKKB@setTransform@ 000000018006a398     CanvasRenderingContext2d.obj
 0002:000123a8       ??_C@_0O@MDNHBEAB@isPointInPath@ 000000018006a3a8     CanvasRenderingContext2d.obj
 0002:000123b8       ??_C@_05MHMEBBGO@scale@    000000018006a3b8     CanvasRenderingContext2d.obj
 0002:000123c0       ??_C@_04POIGMEJN@clip@     000000018006a3c0     CanvasRenderingContext2d.obj
 0002:000123c8       ??_C@_04OBAECEGJ@fill@     000000018006a3c8     CanvasRenderingContext2d.obj
 0002:000123d0       ??_C@_06JDPPEKDJ@stroke@   000000018006a3d0     CanvasRenderingContext2d.obj
 0002:000123d8       ??_C@_08BKNBKKHP@fillText@ 000000018006a3d8     CanvasRenderingContext2d.obj
 0002:000123e8       ??_C@_0L@NKNGGLJB@strokeText@ 000000018006a3e8     CanvasRenderingContext2d.obj
 0002:000123f8       ??_C@_08IFOCBDEO@fillRect@ 000000018006a3f8     CanvasRenderingContext2d.obj
 0002:00012408       ??_C@_0L@EFOFNCKA@strokeRect@ 000000018006a408     CanvasRenderingContext2d.obj
 0002:00012418       ??_C@_09CADLENBP@clearRect@ 000000018006a418     CanvasRenderingContext2d.obj
 0002:00012424       ??_C@_04LHPFHFPH@rect@     000000018006a424     CanvasRenderingContext2d.obj
 0002:00012430       ??_C@_0M@PDPLNFGN@measureText@ 000000018006a430     CanvasRenderingContext2d.obj
 0002:0001243c       ??_C@_06ICOKFDHB@moveTo@   000000018006a43c     CanvasRenderingContext2d.obj
 0002:00012444       ??_C@_06KCFEGHJL@lineTo@   000000018006a444     CanvasRenderingContext2d.obj
 0002:00012450       ??_C@_0O@PAEGDEKM@bezierCurveTo@ 000000018006a450     CanvasRenderingContext2d.obj
 0002:00012460       ??_C@_0BB@NNCDNEFE@quadraticCurveTo@ 000000018006a460     CanvasRenderingContext2d.obj
 0002:00012478       ??_C@_09GMDIDHBP@beginPath@ 000000018006a478     CanvasRenderingContext2d.obj
 0002:00012488       ??_C@_09FFNFMCIM@closePath@ 000000018006a488     CanvasRenderingContext2d.obj
 0002:00012494       ??_C@_03EEIEDENP@arc@      000000018006a494     CanvasRenderingContext2d.obj
 0002:00012498       ??_C@_05KOMEJIOF@arcTo@    000000018006a498     CanvasRenderingContext2d.obj
 0002:000124a0       ??_C@_07IANGJLLC@ellipse@  000000018006a4a0     CanvasRenderingContext2d.obj
 0002:000124a8       ??_C@_0M@KIBHMOJH@setLineDash@ 000000018006a4a8     CanvasRenderingContext2d.obj
 0002:000124b8       ??_C@_0M@KHAJBIBE@getLineDash@ 000000018006a4b8     CanvasRenderingContext2d.obj
 0002:000124c8       ??_C@_0O@IIFIBGIF@createPattern@ 000000018006a4c8     CanvasRenderingContext2d.obj
 0002:000124d8       ??_C@_0BF@FLJOOEKA@createLinearGradient@ 000000018006a4d8     CanvasRenderingContext2d.obj
 0002:000124f0       ??_C@_0BF@MHOEOHFA@createRadialGradient@ 000000018006a4f0     CanvasRenderingContext2d.obj
 0002:00012508       ??_C@_0M@GJLGNIPC@pixelFormat@ 000000018006a508     CanvasRenderingContext2d.obj
 0002:00012518       ??_C@_0P@HGKACBEG@patternQuality@ 000000018006a518     CanvasRenderingContext2d.obj
 0002:00012528       ??_C@_0BG@NBHIGNIP@imageSmoothingEnabled@ 000000018006a528     CanvasRenderingContext2d.obj
 0002:00012540       ??_C@_0BJ@KOAEPHEF@globalCompositeOperation@ 000000018006a540     CanvasRenderingContext2d.obj
 0002:00012560       ??_C@_0M@EJNLOLOE@globalAlpha@ 000000018006a560     CanvasRenderingContext2d.obj
 0002:00012570       ??_C@_0M@JPJLLJDB@shadowColor@ 000000018006a570     CanvasRenderingContext2d.obj
 0002:00012580       ??_C@_0L@EFNIPLDK@miterLimit@ 000000018006a580     CanvasRenderingContext2d.obj
 0002:00012590       ??_C@_09PELAPJEH@lineWidth@ 000000018006a590     CanvasRenderingContext2d.obj
 0002:000125a0       ??_C@_07IPBACFHB@lineCap@  000000018006a5a0     CanvasRenderingContext2d.obj
 0002:000125a8       ??_C@_08CCMLJKBL@lineJoin@ 000000018006a5a8     CanvasRenderingContext2d.obj
 0002:000125b8       ??_C@_0P@NNEFDNMM@lineDashOffset@ 000000018006a5b8     CanvasRenderingContext2d.obj
 0002:000125c8       ??_C@_0O@FOAIOCIO@shadowOffsetX@ 000000018006a5c8     CanvasRenderingContext2d.obj
 0002:000125d8       ??_C@_0O@EHBDNDMP@shadowOffsetY@ 000000018006a5d8     CanvasRenderingContext2d.obj
 0002:000125e8       ??_C@_0L@FJBIPGOL@shadowBlur@ 000000018006a5e8     CanvasRenderingContext2d.obj
 0002:000125f8       ??_C@_09BEIGEBLF@antialias@ 000000018006a5f8     CanvasRenderingContext2d.obj
 0002:00012608       ??_C@_0BA@GALDJJKL@textDrawingMode@ 000000018006a608     CanvasRenderingContext2d.obj
 0002:00012618       ??_C@_0BB@FMAKGOMH@currentTransform@ 000000018006a618     CanvasRenderingContext2d.obj
 0002:00012630       ??_C@_09DCCGDJMC@fillStyle@ 000000018006a630     CanvasRenderingContext2d.obj
 0002:00012640       ??_C@_0M@HFFEPBHM@strokeStyle@ 000000018006a640     CanvasRenderingContext2d.obj
 0002:0001264c       ??_C@_04EFPADHIC@font@     000000018006a64c     CanvasRenderingContext2d.obj
 0002:00012658       ??_C@_0N@KIMHKGNF@textBaseline@ 000000018006a658     CanvasRenderingContext2d.obj
 0002:00012668       ??_C@_09PKLPGIBN@textAlign@ 000000018006a668     CanvasRenderingContext2d.obj
 0002:00012678       ??_C@_0BJ@OLEJJKDH@CanvasRenderingContext2d@ 000000018006a678     CanvasRenderingContext2d.obj
 0002:00012698       ??_C@_0BN@JFEMENH@CanvasRenderingContext2dInit@ 000000018006a698     CanvasRenderingContext2d.obj
 0002:000126b8       ??_C@_0L@NNKNDDLN@sans?5serif@ 000000018006a6b8     CanvasRenderingContext2d.obj
 0002:000126c8       ??_C@_0BJ@MMHEOABP@Unexpected?5gradient?5type@ 000000018006a6c8     CanvasRenderingContext2d.obj
 0002:000126e8       ??_C@_0BN@FEKPFJFP@Failed?5to?5initialize?5context@ 000000018006a6e8     CanvasRenderingContext2d.obj
 0002:00012708       ??_C@_07NOFPBGJH@evenodd@  000000018006a708     CanvasRenderingContext2d.obj
 0002:00012710       ??_C@_0BA@IBFIJLCO@Canvas?5expected@ 000000018006a710     CanvasRenderingContext2d.obj
 0002:00012720       ??_C@_06OECNJAC@RGBA32@    000000018006a720     CanvasRenderingContext2d.obj
 0002:00012728       ??_C@_05EIHACBEG@RGB24@    000000018006a728     CanvasRenderingContext2d.obj
 0002:00012730       ??_C@_02GGHJHNOB@A8@       000000018006a730     CanvasRenderingContext2d.obj
 0002:00012738       ??_C@_09FDIJCLOJ@RGB16_565@ 000000018006a738     CanvasRenderingContext2d.obj
 0002:00012744       ??_C@_02LHLLMGKI@A1@       000000018006a744     CanvasRenderingContext2d.obj
 0002:00012748       ??_C@_05IAEKHIAN@alpha@    000000018006a748     CanvasRenderingContext2d.obj
 0002:00012750       ??_C@_0CF@DPCLDGFG@only?5PDF?5canvases?5support?5?4addP@ 000000018006a750     CanvasRenderingContext2d.obj
 0002:00012778       ??_C@_0BD@DJPHEEKJ@ImageData?5expected@ 000000018006a778     CanvasRenderingContext2d.obj
 0002:00012790       ??_C@_0DJ@CKCCPANE@putImageData?5for?5CANVAS_FORMAT_@ 000000018006a790     CanvasRenderingContext2d.obj
 0002:000127d0       ??_C@_0BF@EKHJHFGA@Invalid?5pixel?5format@ 000000018006a7d0     CanvasRenderingContext2d.obj
 0002:000127e8       ??_C@_0CH@NDMGIAMG@IndexSizeError?3?5The?5source?5widt@ 000000018006a7e8     CanvasRenderingContext2d.obj
 0002:00012810       ??_C@_0CI@HDADGBDO@IndexSizeError?3?5The?5source?5heig@ 000000018006a810     CanvasRenderingContext2d.obj
 0002:00012838       ??_C@_0BC@GJDMJLID@Canvas?5width?5is?50@ 000000018006a838     CanvasRenderingContext2d.obj
 0002:00012850       ??_C@_0BD@KPLINHKD@Canvas?5height?5is?50@ 000000018006a850     CanvasRenderingContext2d.obj
 0002:00012868       ??_C@_0DJ@DCIKNENI@getImageData?5for?5CANVAS_FORMAT_@ 000000018006a868     CanvasRenderingContext2d.obj
 0002:000128a8       ??_C@_0CF@NIOBFMGH@The?5first?5argument?5must?5be?5an?5o@ 000000018006a8a8     CanvasRenderingContext2d.obj
 0002:000128d0       ??_C@_0M@OABMHCHE@source?9over@ 000000018006a8d0     CanvasRenderingContext2d.obj
 0002:000128dc       ??_C@_05MEHLAELG@clear@    000000018006a8dc     CanvasRenderingContext2d.obj
 0002:000128e4       ??_C@_04COAGEIMF@copy@     000000018006a8e4     CanvasRenderingContext2d.obj
 0002:000128f0       ??_C@_0M@BLMAJMLK@destination@ 000000018006a8f0     CanvasRenderingContext2d.obj
 0002:00012900       ??_C@_0BB@CIGJAIPI@destination?9over@ 000000018006a900     CanvasRenderingContext2d.obj
 0002:00012918       ??_C@_09CMAEPNDN@source?9in@ 000000018006a918     CanvasRenderingContext2d.obj
 0002:00012928       ??_C@_0P@GAHJLNBO@destination?9in@ 000000018006a928     CanvasRenderingContext2d.obj
 0002:00012938       ??_C@_0L@CGAPOHFD@source?9out@ 000000018006a938     CanvasRenderingContext2d.obj
 0002:00012948       ??_C@_0BA@IECEOLGB@destination?9out@ 000000018006a948     CanvasRenderingContext2d.obj
 0002:00012958       ??_C@_0M@MKIEODMK@source?9atop@ 000000018006a958     CanvasRenderingContext2d.obj
 0002:00012968       ??_C@_0BB@CPBJJEG@destination?9atop@ 000000018006a968     CanvasRenderingContext2d.obj
 0002:0001297c       ??_C@_03COLCDPPJ@xor@      000000018006a97c     CanvasRenderingContext2d.obj
 0002:00012980       ??_C@_07IEMLKEO@lighter@   000000018006a980     CanvasRenderingContext2d.obj
 0002:00012988       ??_C@_08MMOCDOEL@multiply@ 000000018006a988     CanvasRenderingContext2d.obj
 0002:00012994       ??_C@_06LPLGMLP@screen@    000000018006a994     CanvasRenderingContext2d.obj
 0002:000129a0       ??_C@_07BJNHBMF@overlay@   000000018006a9a0     CanvasRenderingContext2d.obj
 0002:000129a8       ??_C@_06EJFBIMH@darken@    000000018006a9a8     CanvasRenderingContext2d.obj
 0002:000129b0       ??_C@_07OODLOHBD@lighten@  000000018006a9b0     CanvasRenderingContext2d.obj
 0002:000129b8       ??_C@_0M@HJIFAOGP@color?9dodge@ 000000018006a9b8     CanvasRenderingContext2d.obj
 0002:000129c8       ??_C@_0L@BNODHIAO@color?9burn@ 000000018006a9c8     CanvasRenderingContext2d.obj
 0002:000129d8       ??_C@_0L@CEKGHIKD@hard?9light@ 000000018006a9d8     CanvasRenderingContext2d.obj
 0002:000129e8       ??_C@_0L@DKCPCJMJ@soft?9light@ 000000018006a9e8     CanvasRenderingContext2d.obj
 0002:000129f8       ??_C@_0L@CHCOIIBP@difference@ 000000018006a9f8     CanvasRenderingContext2d.obj
 0002:00012a08       ??_C@_09GJPEMMGJ@exclusion@ 000000018006aa08     CanvasRenderingContext2d.obj
 0002:00012a14       ??_C@_03GKJJMKFG@hue@      000000018006aa14     CanvasRenderingContext2d.obj
 0002:00012a18       ??_C@_0L@MOLEDBMN@saturation@ 000000018006aa18     CanvasRenderingContext2d.obj
 0002:00012a24       ??_C@_05PEENBMOG@color@    000000018006aa24     CanvasRenderingContext2d.obj
 0002:00012a30       ??_C@_0L@MLCMHDMB@luminosity@ 000000018006aa30     CanvasRenderingContext2d.obj
 0002:00012a40       ??_C@_08MEKLKAIJ@saturate@ 000000018006aa40     CanvasRenderingContext2d.obj
 0002:00012a4c       ??_C@_04LBNBHAJC@fast@     000000018006aa4c     CanvasRenderingContext2d.obj
 0002:00012a54       ??_C@_04DDJAGGFE@good@     000000018006aa54     CanvasRenderingContext2d.obj
 0002:00012a5c       ??_C@_04MLDDEBAF@best@     000000018006aa5c     CanvasRenderingContext2d.obj
 0002:00012a68       ??_C@_07NHJEPDMH@nearest@  000000018006aa68     CanvasRenderingContext2d.obj
 0002:00012a70       ??_C@_08LJMMPFJO@bilinear@ 000000018006aa70     CanvasRenderingContext2d.obj
 0002:00012a7c       ??_C@_04CGFJFPFD@none@     000000018006aa7c     CanvasRenderingContext2d.obj
 0002:00012a84       ??_C@_04GEBBKIAA@gray@     000000018006aa84     CanvasRenderingContext2d.obj
 0002:00012a90       ??_C@_08JOJOGLJH@subpixel@ 000000018006aa90     CanvasRenderingContext2d.obj
 0002:00012aa0       ??_C@_07DLHCIBDH@default@  000000018006aaa0     CanvasRenderingContext2d.obj
 0002:00012aa8       ??_C@_04LNEJFJGI@path@     000000018006aaa8     CanvasRenderingContext2d.obj
 0002:00012ab0       ??_C@_05OIOMJNBL@glyph@    000000018006aab0     CanvasRenderingContext2d.obj
 0002:00012ab8       ??_C@_0BD@BOGGAILC@Expected?5DOMMatrix@ 000000018006aab8     CanvasRenderingContext2d.obj
 0002:00012acc       ??_C@_01INIBCBCB@f@        000000018006aacc     CanvasRenderingContext2d.obj
 0002:00012ad0       ??_C@_01KGKMHCOC@e@        000000018006aad0     CanvasRenderingContext2d.obj
 0002:00012ad4       ??_C@_01LPLHEDKD@d@        000000018006aad4     CanvasRenderingContext2d.obj
 0002:00012ad8       ??_C@_01PAPGNFGE@c@        000000018006aad8     CanvasRenderingContext2d.obj
 0002:00012adc       ??_C@_01OJONOECF@b@        000000018006aadc     CanvasRenderingContext2d.obj
 0002:00012ae0       ??_C@_01MCMALHOG@a@        000000018006aae0     CanvasRenderingContext2d.obj
 0002:00012ae4       ??_C@_05JDNDNKBA@bevel@    000000018006aae4     CanvasRenderingContext2d.obj
 0002:00012aec       ??_C@_05MIMAKCN@round@     000000018006aaec     CanvasRenderingContext2d.obj
 0002:00012af4       ??_C@_05NJDNHCJA@miter@    000000018006aaf4     CanvasRenderingContext2d.obj
 0002:00012afc       ??_C@_06ICDKOIFG@square@   000000018006aafc     CanvasRenderingContext2d.obj
 0002:00012b04       ??_C@_04JOGFAABP@butt@     000000018006ab04     CanvasRenderingContext2d.obj
 0002:00012b0c       ??_C@_06LGDBIFHB@repeat@   000000018006ab0c     CanvasRenderingContext2d.obj
 0002:00012b18       ??_C@_0BA@LKDIBKDD@10px?5sans?9serif@ 000000018006ab18     CanvasRenderingContext2d.obj
 0002:00012b28       ??_C@_04IAGNFIBA@size@     000000018006ab28     CanvasRenderingContext2d.obj
 0002:00012b30       ??_C@_04NPEDKLDA@unit@     000000018006ab30     CanvasRenderingContext2d.obj
 0002:00012b38       ??_C@_0L@OJPAHFPD@alphabetic@ 000000018006ab38     CanvasRenderingContext2d.obj
 0002:00012b44       ??_C@_03FGFCOCMD@top@      000000018006ab44     CanvasRenderingContext2d.obj
 0002:00012b48       ??_C@_06PMMPCIPB@bottom@   000000018006ab48     CanvasRenderingContext2d.obj
 0002:00012b50       ??_C@_06CGLIEPEJ@middle@   000000018006ab50     CanvasRenderingContext2d.obj
 0002:00012b58       ??_C@_0M@JCPEIEF@ideographic@ 000000018006ab58     CanvasRenderingContext2d.obj
 0002:00012b68       ??_C@_07IDCFLKHN@hanging@  000000018006ab68     CanvasRenderingContext2d.obj
 0002:00012b70       ??_C@_05FAGFPHJG@start@    000000018006ab70     CanvasRenderingContext2d.obj
 0002:00012b78       ??_C@_06BBLOAEEI@center@   000000018006ab78     CanvasRenderingContext2d.obj
 0002:00012b80       ??_C@_04GOOOJOPP@left@     000000018006ab80     CanvasRenderingContext2d.obj
 0002:00012b88       ??_C@_05DHJDAOHK@right@    000000018006ab88     CanvasRenderingContext2d.obj
 0002:00012b90       ??_C@_0BG@IGICBKHO@actualBoundingBoxLeft@ 000000018006ab90     CanvasRenderingContext2d.obj
 0002:00012ba8       ??_C@_0BH@KNMENBEI@actualBoundingBoxRight@ 000000018006aba8     CanvasRenderingContext2d.obj
 0002:00012bc0       ??_C@_0BI@NBNJEOJE@actualBoundingBoxAscent@ 000000018006abc0     CanvasRenderingContext2d.obj
 0002:00012bd8       ??_C@_0BJ@LKCIMDON@actualBoundingBoxDescent@ 000000018006abd8     CanvasRenderingContext2d.obj
 0002:00012bf8       ??_C@_0P@FGHEPLGI@emHeightAscent@ 000000018006abf8     CanvasRenderingContext2d.obj
 0002:00012c08       ??_C@_0BA@OKENAGP@emHeightDescent@ 000000018006ac08     CanvasRenderingContext2d.obj
 0002:00012c18       ??_C@_0BD@NGFBNEGE@alphabeticBaseline@ 000000018006ac18     CanvasRenderingContext2d.obj
 0002:00012c30       ??_7Context2d@@6B@         000000018006ac30     CanvasRenderingContext2d.obj
 0002:00012c48       ??_C@_0M@CEEDCJLA@transparent@ 000000018006ac48     color.obj
 0002:00012c58       ??_C@_09GNHGKALJ@aliceblue@ 000000018006ac58     color.obj
 0002:00012c68       ??_C@_0N@OJFLMGEJ@antiquewhite@ 000000018006ac68     color.obj
 0002:00012c78       ??_C@_04GANAGBLL@aqua@     000000018006ac78     color.obj
 0002:00012c80       ??_C@_0L@MOKEMMG@aquamarine@ 000000018006ac80     color.obj
 0002:00012c8c       ??_C@_05CNOJAJLP@azure@    000000018006ac8c     color.obj
 0002:00012c94       ??_C@_05EJOPPCPO@beige@    000000018006ac94     color.obj
 0002:00012c9c       ??_C@_06HGAAELGA@bisque@   000000018006ac9c     color.obj
 0002:00012ca4       ??_C@_05BIMBDNDC@black@    000000018006aca4     color.obj
 0002:00012cb0       ??_C@_0P@CMCBOAOE@blanchedalmond@ 000000018006acb0     color.obj
 0002:00012cc0       ??_C@_04OBGPFBCN@blue@     000000018006acc0     color.obj
 0002:00012cc8       ??_C@_0L@LKLKALMM@blueviolet@ 000000018006acc8     color.obj
 0002:00012cd4       ??_C@_05EBJGJMAL@brown@    000000018006acd4     color.obj
 0002:00012ce0       ??_C@_09JHLANABP@burlywood@ 000000018006ace0     color.obj
 0002:00012cf0       ??_C@_09KIJDGGAG@cadetblue@ 000000018006acf0     color.obj
 0002:00012d00       ??_C@_0L@CHNAEACO@chartreuse@ 000000018006ad00     color.obj
 0002:00012d10       ??_C@_09BPADAHOC@chocolate@ 000000018006ad10     color.obj
 0002:00012d1c       ??_C@_05JKFECOJP@coral@    000000018006ad1c     color.obj
 0002:00012d28       ??_C@_0P@KLMOGGLK@cornflowerblue@ 000000018006ad28     color.obj
 0002:00012d38       ??_C@_08DECOJLB@cornsilk@  000000018006ad38     color.obj
 0002:00012d48       ??_C@_07DAGIGOOE@crimson@  000000018006ad48     color.obj
 0002:00012d50       ??_C@_04EDBDANFH@cyan@     000000018006ad50     color.obj
 0002:00012d58       ??_C@_08MFEOPMII@darkblue@ 000000018006ad58     color.obj
 0002:00012d68       ??_C@_08GHDCKAPC@darkcyan@ 000000018006ad68     color.obj
 0002:00012d78       ??_C@_0O@GGJPBKNE@darkgoldenrod@ 000000018006ad78     color.obj
 0002:00012d88       ??_C@_08EADAAFKF@darkgray@ 000000018006ad88     color.obj
 0002:00012d98       ??_C@_09MHNMOMAI@darkgreen@ 000000018006ad98     color.obj
 0002:00012da8       ??_C@_08EHDJKNHJ@darkgrey@ 000000018006ada8     color.obj
 0002:00012db8       ??_C@_09FAPDIPMK@darkkhaki@ 000000018006adb8     color.obj
 0002:00012dc8       ??_C@_0M@MEEFECHN@darkmagenta@ 000000018006adc8     color.obj
 0002:00012dd8       ??_C@_0P@BGCLDNDK@darkolivegreen@ 000000018006add8     color.obj
 0002:00012de8       ??_C@_0L@ICJJPBF@darkorange@ 000000018006ade8     color.obj
 0002:00012df8       ??_C@_0L@EEAHIPOC@darkorchid@ 000000018006adf8     color.obj
 0002:00012e08       ??_C@_07MFAOOMGP@darkred@  000000018006ae08     color.obj
 0002:00012e10       ??_C@_0L@CKNHPKLG@darksalmon@ 000000018006ae10     color.obj
 0002:00012e20       ??_C@_0N@FBOCOPGH@darkseagreen@ 000000018006ae20     color.obj
 0002:00012e30       ??_C@_0O@PABAFENG@darkslateblue@ 000000018006ae30     color.obj
 0002:00012e40       ??_C@_0O@HFGOKNPL@darkslategray@ 000000018006ae40     color.obj
 0002:00012e50       ??_C@_0O@HCGHAFCH@darkslategrey@ 000000018006ae50     color.obj
 0002:00012e60       ??_C@_0O@HKLGOIEA@darkturquoise@ 000000018006ae60     color.obj
 0002:00012e70       ??_C@_0L@NGBKDFME@darkviolet@ 000000018006ae70     color.obj
 0002:00012e80       ??_C@_08CJGCPHKF@deeppink@ 000000018006ae80     color.obj
 0002:00012e90       ??_C@_0M@BGGBNDNG@deepskyblue@ 000000018006ae90     color.obj
 0002:00012ea0       ??_C@_07DJPEDLIH@dimgray@  000000018006aea0     color.obj
 0002:00012ea8       ??_C@_07DOPNJDFL@dimgrey@  000000018006aea8     color.obj
 0002:00012eb0       ??_C@_0L@MIOOBLBJ@dodgerblue@ 000000018006aeb0     color.obj
 0002:00012ec0       ??_C@_09ELCPEDIM@firebrick@ 000000018006aec0     color.obj
 0002:00012ed0       ??_C@_0M@FFMCAIP@floralwhite@ 000000018006aed0     color.obj
 0002:00012ee0       ??_C@_0M@HBKAKFBN@forestgreen@ 000000018006aee0     color.obj
 0002:00012ef0       ??_C@_07FHEBJCGF@fuchsia@  000000018006aef0     color.obj
 0002:00012ef8       ??_C@_09MIGKOGAO@gainsboro@ 000000018006aef8     color.obj
 0002:00012f08       ??_C@_0L@CELMEDAA@ghostwhite@ 000000018006af08     color.obj
 0002:00012f14       ??_C@_04DBNGNIAN@gold@     000000018006af14     color.obj
 0002:00012f20       ??_C@_09KJDOAGJL@goldenrod@ 000000018006af20     color.obj
 0002:00012f2c       ??_C@_05GBEEJKMC@green@    000000018006af2c     color.obj
 0002:00012f38       ??_C@_0M@LFPLFELJ@greenyellow@ 000000018006af38     color.obj
 0002:00012f44       ??_C@_04GDBIAANM@grey@     000000018006af44     color.obj
 0002:00012f50       ??_C@_08BKNCNHLL@honeydew@ 000000018006af50     color.obj
 0002:00012f60       ??_C@_07PCCOEED@hotpink@   000000018006af60     color.obj
 0002:00012f68       ??_C@_09IELIJPNO@indianred@ 000000018006af68     color.obj
 0002:00012f74       ??_C@_06MLCCIEFE@indigo@   000000018006af74     color.obj
 0002:00012f7c       ??_C@_05NNJJIMHF@ivory@    000000018006af7c     color.obj
 0002:00012f84       ??_C@_05PGGLPJAA@khaki@    000000018006af84     color.obj
 0002:00012f90       ??_C@_08KJDCPJPL@lavender@ 000000018006af90     color.obj
 0002:00012fa0       ??_C@_0O@CCCMFNCK@lavenderblush@ 000000018006afa0     color.obj
 0002:00012fb0       ??_C@_09MONDINDP@lawngreen@ 000000018006afb0     color.obj
 0002:00012fc0       ??_C@_0N@ICDCAEHK@lemonchiffon@ 000000018006afc0     color.obj
 0002:00012fd0       ??_C@_09NBIPJLA@lightblue@ 000000018006afd0     color.obj
 0002:00012fe0       ??_C@_0L@BEAGLGMO@lightcoral@ 000000018006afe0     color.obj
 0002:00012ff0       ??_C@_09KPGEKFMK@lightcyan@ 000000018006aff0     color.obj
 0002:00013000       ??_C@_0BF@PJADCIND@lightgoldenrodyellow@ 000000018006b000     color.obj
 0002:00013018       ??_C@_09IIGGAAJN@lightgray@ 000000018006b018     color.obj
 0002:00013028       ??_C@_0L@OPBGACJD@lightgreen@ 000000018006b028     color.obj
 0002:00013038       ??_C@_09IPGPKIEB@lightgrey@ 000000018006b038     color.obj
 0002:00013048       ??_C@_09KOBGKMHP@lightpink@ 000000018006b048     color.obj
 0002:00013058       ??_C@_0M@ENCCHKJE@lightsalmon@ 000000018006b058     color.obj
 0002:00013068       ??_C@_0O@BLOIENJC@lightseagreen@ 000000018006b068     color.obj
 0002:00013078       ??_C@_0N@JIFIFCAN@lightskyblue@ 000000018006b078     color.obj
 0002:00013088       ??_C@_0P@LIPDKBMK@lightslategray@ 000000018006b088     color.obj
 0002:00013098       ??_C@_0P@LPPKAJBG@lightslategrey@ 000000018006b098     color.obj
 0002:000130a8       ??_C@_0P@EIHJHAMG@lightsteelblue@ 000000018006b0a8     color.obj
 0002:000130b8       ??_C@_0M@FBHPKJLB@lightyellow@ 000000018006b0b8     color.obj
 0002:000130c4       ??_C@_04HLLEONLG@lime@     000000018006b0c4     color.obj
 0002:000130d0       ??_C@_09JKHHFGDO@limegreen@ 000000018006b0d0     color.obj
 0002:000130dc       ??_C@_05MLLCELJD@linen@    000000018006b0dc     color.obj
 0002:000130e8       ??_C@_07EMDGAPCI@magenta@  000000018006b0e8     color.obj
 0002:000130f0       ??_C@_06BDPIEPJF@maroon@   000000018006b0f0     color.obj
 0002:000130f8       ??_C@_0BB@HHCOFKIC@mediumaquamarine@ 000000018006b0f8     color.obj
 0002:00013110       ??_C@_0L@CEFFILOH@mediumblue@ 000000018006b110     color.obj
 0002:00013120       ??_C@_0N@GIADPNAO@mediumorchid@ 000000018006b120     color.obj
 0002:00013130       ??_C@_0N@DDGNBDHJ@mediumpurple@ 000000018006b130     color.obj
 0002:00013140       ??_C@_0P@BNCCGPJD@mediumseagreen@ 000000018006b140     color.obj
 0002:00013150       ??_C@_0BA@EKIMKCFD@mediumslateblue@ 000000018006b150     color.obj
 0002:00013160       ??_C@_0BC@POGDBPNO@mediumspringgreen@ 000000018006b160     color.obj
 0002:00013178       ??_C@_0BA@MACKBOMF@mediumturquoise@ 000000018006b178     color.obj
 0002:00013188       ??_C@_0BA@PNNCDMHM@mediumvioletred@ 000000018006b188     color.obj
 0002:00013198       ??_C@_0N@PJDKAOHK@midnightblue@ 000000018006b198     color.obj
 0002:000131a8       ??_C@_09INCGBEJA@mintcream@ 000000018006b1a8     color.obj
 0002:000131b8       ??_C@_09HABDAMOF@mistyrose@ 000000018006b1b8     color.obj
 0002:000131c8       ??_C@_08OIIPPDDA@moccasin@ 000000018006b1c8     color.obj
 0002:000131d8       ??_C@_0M@OKLAMJCL@navajowhite@ 000000018006b1d8     color.obj
 0002:000131e4       ??_C@_04DCMEIHPF@navy@     000000018006b1e4     color.obj
 0002:000131f0       ??_C@_07MBCGBJON@oldlace@  000000018006b1f0     color.obj
 0002:000131f8       ??_C@_05OFIFEKBG@olive@    000000018006b1f8     color.obj
 0002:00013200       ??_C@_09CNLBGLAE@olivedrab@ 000000018006b200     color.obj
 0002:0001320c       ??_C@_06HDDOCMMN@orange@   000000018006b20c     color.obj
 0002:00013218       ??_C@_09OPJMLMBK@orangered@ 000000018006b218     color.obj
 0002:00013224       ??_C@_06DPBADMDK@orchid@   000000018006b224     color.obj
 0002:00013230       ??_C@_0O@KONOLMEH@palegoldenrod@ 000000018006b230     color.obj
 0002:00013240       ??_C@_09NAJHJFNO@palegreen@ 000000018006b240     color.obj
 0002:00013250       ??_C@_0O@LCPHEOND@paleturquoise@ 000000018006b250     color.obj
 0002:00013260       ??_C@_0O@IPAPGMGK@palevioletred@ 000000018006b260     color.obj
 0002:00013270       ??_C@_0L@NPJMDDDD@papayawhip@ 000000018006b270     color.obj
 0002:00013280       ??_C@_09GELOGGEC@peachpuff@ 000000018006b280     color.obj
 0002:0001328c       ??_C@_04MJMKNOJB@peru@     000000018006b28c     color.obj
 0002:00013294       ??_C@_04ECGBAEOC@pink@     000000018006b294     color.obj
 0002:0001329c       ??_C@_04DDJGBPMH@plum@     000000018006b29c     color.obj
 0002:000132a8       ??_C@_0L@MNADNFAH@powderblue@ 000000018006b2a8     color.obj
 0002:000132b4       ??_C@_06GEHONCEN@purple@   000000018006b2b4     color.obj
 0002:000132c0       ??_C@_0O@JGOBAAIL@rebeccapurple@ 000000018006b2c0     color.obj
 0002:000132d0       ??_C@_03FAAAOPJM@red@      000000018006b2d0     color.obj
 0002:000132d8       ??_C@_09DJJHENIF@rosybrown@ 000000018006b2d8     color.obj
 0002:000132e8       ??_C@_09FEEJNHFN@royalblue@ 000000018006b2e8     color.obj
 0002:000132f8       ??_C@_0M@MOEGEDCP@saddlebrown@ 000000018006b2f8     color.obj
 0002:00013304       ??_C@_06FBMAEJGO@salmon@   000000018006b304     color.obj
 0002:00013310       ??_C@_0L@HLMGLGHH@sandybrown@ 000000018006b310     color.obj
 0002:00013320       ??_C@_08EKGLDJFB@seagreen@ 000000018006b320     color.obj
 0002:00013330       ??_C@_08MFJLKPPC@seashell@ 000000018006b330     color.obj
 0002:0001333c       ??_C@_06CEGMHAGE@sienna@   000000018006b33c     color.obj
 0002:00013344       ??_C@_06NBGLMDBG@silver@   000000018006b344     color.obj
 0002:00013350       ??_C@_07MFCMKLDM@skyblue@  000000018006b350     color.obj
 0002:00013358       ??_C@_09DPLBEIJJ@slateblue@ 000000018006b358     color.obj
 0002:00013368       ??_C@_09LKMPLBLE@slategray@ 000000018006b368     color.obj
 0002:00013378       ??_C@_09LNMGBJGI@slategrey@ 000000018006b378     color.obj
 0002:00013384       ??_C@_04HPKDHBOB@snow@     000000018006b384     color.obj
 0002:00013390       ??_C@_0M@IPKJFOEB@springgreen@ 000000018006b390     color.obj
 0002:000133a0       ??_C@_09EKEFGALI@steelblue@ 000000018006b3a0     color.obj
 0002:000133ac       ??_C@_03IIINPABG@tan@      000000018006b3ac     color.obj
 0002:000133b0       ??_C@_04LJCKMMGA@teal@     000000018006b3b0     color.obj
 0002:000133b8       ??_C@_07CGANODJO@thistle@  000000018006b3b8     color.obj
 0002:000133c0       ??_C@_06NALDPNEI@tomato@   000000018006b3c0     color.obj
 0002:000133c8       ??_C@_09LFBHPEAP@turquoise@ 000000018006b3c8     color.obj
 0002:000133d4       ??_C@_06KNANIGBM@violet@   000000018006b3d4     color.obj
 0002:000133dc       ??_C@_05PPOGEFHN@wheat@    000000018006b3dc     color.obj
 0002:000133e4       ??_C@_05PMAELIEO@white@    000000018006b3e4     color.obj
 0002:000133f0       ??_C@_0L@FDFMBGNF@whitesmoke@ 000000018006b3f0     color.obj
 0002:000133fc       ??_C@_06ENJNJKEL@yellow@   000000018006b3fc     color.obj
 0002:00013408       ??_C@_0M@GCLLLGON@yellowgreen@ 000000018006b408     color.obj
 0002:00013418       ??_C@_0O@CAFKCKKM@?$CD?$CF?42x?$CF?42x?$CF?42x@ 000000018006b418     color.obj
 0002:00013428       ??_C@_0BH@IMKFBGII@rgba?$CI?$CFd?0?5?$CFd?0?5?$CFd?0?5?$CF?42f?$CJ@ 000000018006b428     color.obj
 0002:00013440       ??_C@_04KDAMFBD@rgb?$CI@   000000018006b440     color.obj
 0002:00013448       ??_C@_05KGKCGJPO@rgba?$CI@ 000000018006b448     color.obj
 0002:00013450       ??_C@_05HBFAAOHC@hsla?$CI@ 000000018006b450     color.obj
 0002:00013458       ??_C@_04PFIFKHPC@hsl?$CI@  000000018006b458     color.obj
 0002:00013460       ??_C@_04CLILDBFP@rgba@     000000018006b460     color.obj
 0002:00013468       ??_C@_03FNOJMHE@rgb@       000000018006b468     color.obj
 0002:0001346c       ??_C@_04NEDOFDLO@hsla@     000000018006b46c     color.obj
 0002:00013474       ??_C@_03LPNGANKN@hsl@      000000018006b474     color.obj
 0002:00013478       ??_C@_05NBEAGECF@Image@    000000018006b478     Image.obj
 0002:00013480       ??_C@_08IPNIAGNA@complete@ 000000018006b480     Image.obj
 0002:00013490       ??_C@_0N@KIMBCBLK@naturalWidth@ 000000018006b490     Image.obj
 0002:000134a0       ??_C@_0O@DMCHDHNN@naturalHeight@ 000000018006b4a0     Image.obj
 0002:000134b0       ??_C@_08ELMFDEKI@dataMode@ 000000018006b4b0     Image.obj
 0002:000134c0       ??_C@_0L@ICMMJJAL@MODE_IMAGE@ 000000018006b4c0     Image.obj
 0002:000134d0       ??_C@_09IDBFNFDI@MODE_MIME@ 000000018006b4d0     Image.obj
 0002:000134e0       ??_C@_09BHHNHDEH@GetSource@ 000000018006b4e0     Image.obj
 0002:000134f0       ??_C@_09DJDIFCNF@SetSource@ 000000018006b4f0     Image.obj
 0002:000134fc       ??_C@_06FKJAAAAK@onload@   000000018006b4fc     Image.obj
 0002:00013508       ??_C@_07MAAHHAB@onerror@   000000018006b508     Image.obj
 0002:00013510       ??_C@_0DH@EAEKIGFG@Method?5Image?4GetSource?5called?5o@ 000000018006b510     Image.obj
 0002:00013548       ??_C@_0DH@LKAJPGED@Method?5Image?4SetSource?5called?5o@ 000000018006b548     Image.obj
 0002:00013580       ??_C@_0BH@DEJIGAIG@Unsupported?5image?5type@ 000000018006b580     Image.obj
 0002:00013598       ??_C@_02JDPG@rb@           000000018006b598     Image.obj
 0002:0001359c       ??_C@_05FFKPLNPJ@fopen@    000000018006b59c     Image.obj
 0002:000135a4       ??_C@_06GLDDLHNF@malloc@   000000018006b5a4     Image.obj
 0002:000135b0       ??_C@_0BK@DBBCPGCH@Unsupported?5JPEG?5encoding@ 000000018006b5b0     Image.obj
 0002:00013630       ??_7Image@@6B@             000000018006b630     Image.obj
 0002:00013678       ??_C@_09NIGIGFDC@ImageData@ 000000018006b678     ImageData.obj
 0002:00013688       ??_C@_0BK@BFELGOEH@The?5source?5width?5is?5zero?4@ 000000018006b688     ImageData.obj
 0002:000136a8       ??_C@_0BL@EMOEEHOI@The?5source?5height?5is?5zero?4@ 000000018006b6a8     ImageData.obj
 0002:000136c8       ??_C@_0CH@IEOMAMPI@The?5input?5data?5has?5a?5zero?5byte?5@ 000000018006b6c8     ImageData.obj
 0002:000136f0       ??_C@_0GB@KDECOCKL@Expected?5?$CIUint8ClampedArray?0?5wi@ 000000018006b6f0     ImageData.obj
 0002:00013754       ??_C@_04PJOLNDGD@data@     000000018006b754     ImageData.obj
 0002:00013760       ??_7ImageData@@6B@         000000018006b760     ImageData.obj
 0002:00013778       ??_C@_0N@OGDOEBIM@cairoVersion@ 000000018006b778     init.obj
 0002:00013788       ??_C@_04PEOOHEKN@?$CFd?$CFc@ 000000018006b788     init.obj
 0002:00013790       ??_C@_02DPKJAMEF@?$CFd@    000000018006b790     init.obj
 0002:00013798       ??_C@_0M@PLCFBBDI@jpegVersion@ 000000018006b798     init.obj
 0002:000137a8       ??_C@_08FOJKHHJA@?$CFd?4?$CFd?4?$CFd@ 000000018006b7a8     init.obj
 0002:000137b8       ??_C@_0L@KDJIMHFH@gifVersion@ 000000018006b7b8     init.obj
 0002:000137c4       ??_C@_06DPJLDBDB@2?450?43@ 000000018006b7c4     init.obj
 0002:000137d0       ??_C@_0M@KEEKNGNA@rsvgVersion@ 000000018006b7d0     init.obj
 0002:000137e0       ??_C@_0BA@MCPGPJBI@freetypeVersion@ 000000018006b7e0     init.obj
 0002:000137f0       ??_C@_0CJ@BILPCDG@D?3?2a?2node?9canvas?2node?9canvas?2sr@ 000000018006b7f0     init.obj
 0002:0001381c       ??_C@_06DODEBHEI@canvas@   000000018006b81c     init.obj
 0002:00013824       ??_C@_03BNMJFLDC@MAC@      000000018006b824     register_font.obj
 0002:00013828       ??_C@_08NLKHJAFK@UTF?916BE@ 000000018006b828     register_font.obj
 0002:00013834       ??_C@_05EGJIMALK@UTF?98@   000000018006b834     register_font.obj
 0002:00013840       ??_C@_08JDDNMFDB@node?4exe@ 000000018006b840     win_delay_load_hook.obj
 0002:00013850       __pfnDliNotifyHook2        000000018006b850     win_delay_load_hook.obj
 0002:00013858       __real@00000000            000000018006b858     color.obj
 0002:0001385c       __real@3a800000            000000018006b85c     CanvasRenderingContext2d.obj
 0002:00013860       __real@3dcccccd            000000018006b860     color.obj
 0002:00013864       __real@3f000000            000000018006b864     CanvasRenderingContext2d.obj
 0002:00013868       __real@3f13cd36            000000018006b868     CanvasRenderingContext2d.obj
 0002:00013870       __real@3f50000000000000    000000018006b870     CanvasRenderingContext2d.obj
 0002:00013878       __real@3f800000            000000018006b878     color.obj
 0002:00013880       __real@3fe0000000000000    000000018006b880     CanvasRenderingContext2d.obj
 0002:00013888       __real@3fe5555555555555    000000018006b888     CanvasRenderingContext2d.obj
 0002:00013890       __real@3ff0000000000000    000000018006b890     CanvasRenderingContext2d.obj
 0002:00013898       __real@3ff6666666666666    000000018006b898     CanvasRenderingContext2d.obj
 0002:000138a0       __real@3ff8000000000000    000000018006b8a0     closure.obj
 0002:000138a8       __real@40000000            000000018006b8a8     color.obj
 0002:000138b0       __real@4000000000000000    000000018006b8b0     CanvasRenderingContext2d.obj
 0002:000138b8       __real@400921fb54442d18    000000018006b8b8     CanvasRenderingContext2d.obj
 0002:000138c0       __real@401921fb54442d18    000000018006b8c0     CanvasRenderingContext2d.obj
 0002:000138c8       __real@40400000            000000018006b8c8     color.obj
 0002:000138d0       __real@4043af5f6fd21ff3    000000018006b8d0     Canvas.obj
 0002:000138d8       __real@4059000000000000    000000018006b8d8     Canvas.obj
 0002:000138e0       __real@406fe00000000000    000000018006b8e0     color.obj
 0002:000138e8       __real@40800000            000000018006b8e8     color.obj
 0002:000138f0       __real@408f400000000000    000000018006b8f0     Canvas.obj
 0002:000138f8       __real@4090000000000000    000000018006b8f8     CanvasRenderingContext2d.obj
 0002:00013900       __real@40c00000            000000018006b900     color.obj
 0002:00013908       __real@40c4000000000000    000000018006b908     CanvasRenderingContext2d.obj
 0002:00013910       __real@41200000            000000018006b910     color.obj
 0002:00013914       __real@42c80000            000000018006b914     color.obj
 0002:00013918       __real@437f0000            000000018006b918     color.obj
 0002:0001391c       __real@43b40000            000000018006b91c     color.obj
 0002:00013920       __real@43e0000000000000    000000018006b920     closure.obj
 0002:00013928       __real@477fff00            000000018006b928     CanvasRenderingContext2d.obj
 0002:0001392c       __real@5f000000            000000018006b92c     Canvas.obj
 0002:00013930       __real@7ff0000000000000    000000018006b930     CanvasRenderingContext2d.obj
 0002:00013938       __real@bff0000000000000    000000018006b938     Canvas.obj
 0002:00013940       __real@c0c00000            000000018006b940     color.obj
 0002:00013948       __real@fff0000000000000    000000018006b948     CanvasRenderingContext2d.obj
 0002:00013950       __xmm@000000000000000f0000000000000000 000000018006b950     Image.obj
 0002:00013960       __xmm@3ff00000000000000000000000000000 000000018006b960     CanvasRenderingContext2d.obj
 0002:00013970       __xmm@7fffffffffffffff7fffffffffffffff 000000018006b970     CanvasRenderingContext2d.obj
 0002:00013980       __xmm@80000000000000008000000000000000 000000018006b980     CanvasRenderingContext2d.obj
 0002:00013990       __xmm@80000000800000008000000080000000 000000018006b990     CanvasRenderingContext2d.obj
 0002:000139a0       __real@3c91a62633145c07    000000018006b9a0     libucrt:acos.obj
 0002:000139a8       __real@3f0951665d321061    000000018006b9a8     libucrt:acos.obj
 0002:000139b0       __real@3f51e5f887a62135    000000018006b9b0     libucrt:acos.obj
 0002:000139b8       __real@3fac28d390c29690    000000018006b9b8     libucrt:acos.obj
 0002:000139c0       __real@3fbb1a422982ce76    000000018006b9c0     libucrt:acos.obj
 0002:000139c8       __real@3fcd1e4180029834    000000018006b9c8     libucrt:acos.obj
 0002:000139d0       __real@3fd1a2bec1b7ef59    000000018006b9d0     libucrt:acos.obj
 0002:000139d8       __real@3fdc7b297e269eac    000000018006b9d8     libucrt:acos.obj
 0002:000139e0       __real@3fee324ab418f78d    000000018006b9e0     libucrt:acos.obj
 0002:000139e8       __real@3ff5d6b12001f228    000000018006b9e8     libucrt:acos.obj
 0002:000139f0       __real@3ff921fb54442d18    000000018006b9f0     libucrt:acos.obj
 0002:000139f8       __real@40062021571dccfc    000000018006b9f8     libucrt:acos.obj
 0002:00013a00       __real@400a4646f903cdea    000000018006ba00     libucrt:acos.obj
 0002:00013a08       ??_C@_05FFFCHCED@acosf@    000000018006ba08     libucrt:acosf.obj
 0002:00013a10       __real@3b81ce6b            000000018006ba10     libucrt:acosf.obj
 0002:00013a14       __real@3d678bdd            000000018006ba14     libucrt:acosf.obj
 0002:00013a18       __real@3e3c94dc            000000018006ba18     libucrt:acosf.obj
 0002:00013a1c       __real@3f561f0d            000000018006ba1c     libucrt:acosf.obj
 0002:00013a20       __real@3f8d6fa5            000000018006ba20     libucrt:acosf.obj
 0002:00013a24       __real@3fc90fdb            000000018006ba24     libucrt:acosf.obj
 0002:00013a28       __real@40490fdb            000000018006ba28     libucrt:acosf.obj
 0002:00013a2c       __real@bc5b3fe1            000000018006ba2c     libucrt:acosf.obj
 0002:00013a30       __real@bf800000            000000018006ba30     libucrt:acosf.obj
 0002:00013a34       ??_C@_05OOAOEJGP@fmodf@    000000018006ba34     libucrt:fmodf.obj
 0002:00013a3c       ??_C@_05KGFAIMPG@sqrtf@    000000018006ba3c     libucrt:sqrtf.obj
 0002:00013f00       __L_2_by_pi_bits           000000018006bf00     libucrt:l2_by_pi_bits.obj
 0002:00014080       ??_R4exception@std@@6B@    000000018006c080     libcpmt:xthrow.obj
 0002:000140a8       ??_R3exception@std@@8      000000018006c0a8     libcpmt:xthrow.obj
 0002:000140c0       ??_R2exception@std@@8      000000018006c0c0     libcpmt:xthrow.obj
 0002:000140d0       ??_R1A@?0A@EA@exception@std@@8 000000018006c0d0     libcpmt:xthrow.obj
 0002:000140f8       ??_R4bad_alloc@std@@6B@    000000018006c0f8     libcpmt:xthrow.obj
 0002:00014120       ??_R3bad_alloc@std@@8      000000018006c120     libcpmt:xthrow.obj
 0002:00014138       ??_R2bad_alloc@std@@8      000000018006c138     libcpmt:xthrow.obj
 0002:00014150       ??_R1A@?0A@EA@bad_alloc@std@@8 000000018006c150     libcpmt:xthrow.obj
 0002:00014178       ??_R4bad_function_call@std@@6B@ 000000018006c178     libcpmt:xthrow.obj
 0002:000141a0       ??_R3bad_function_call@std@@8 000000018006c1a0     libcpmt:xthrow.obj
 0002:000141b8       ??_R2bad_function_call@std@@8 000000018006c1b8     libcpmt:xthrow.obj
 0002:000141d0       ??_R1A@?0A@EA@bad_function_call@std@@8 000000018006c1d0     libcpmt:xthrow.obj
 0002:000141f8       ??_R4logic_error@std@@6B@  000000018006c1f8     libcpmt:xthrow.obj
 0002:00014220       ??_R3logic_error@std@@8    000000018006c220     libcpmt:xthrow.obj
 0002:00014238       ??_R2logic_error@std@@8    000000018006c238     libcpmt:xthrow.obj
 0002:00014250       ??_R1A@?0A@EA@logic_error@std@@8 000000018006c250     libcpmt:xthrow.obj
 0002:00014278       ??_R4length_error@std@@6B@ 000000018006c278     libcpmt:xthrow.obj
 0002:000142a0       ??_R3length_error@std@@8   000000018006c2a0     libcpmt:xthrow.obj
 0002:000142b8       ??_R2length_error@std@@8   000000018006c2b8     libcpmt:xthrow.obj
 0002:000142d8       ??_R1A@?0A@EA@length_error@std@@8 000000018006c2d8     libcpmt:xthrow.obj
 0002:00014300       ??_R4runtime_error@std@@6B@ 000000018006c300     libcpmt:xthrow.obj
 0002:00014328       ??_R3runtime_error@std@@8  000000018006c328     libcpmt:xthrow.obj
 0002:00014340       ??_R2runtime_error@std@@8  000000018006c340     libcpmt:xthrow.obj
 0002:00014358       ??_R1A@?0A@EA@runtime_error@std@@8 000000018006c358     libcpmt:xthrow.obj
 0002:00014380       ??_R4_Facet_base@std@@6B@  000000018006c380     libcpmt:locale0.obj
 0002:000143a8       ??_R3_Facet_base@std@@8    000000018006c3a8     libcpmt:locale0.obj
 0002:000143c0       ??_R2_Facet_base@std@@8    000000018006c3c0     libcpmt:locale0.obj
 0002:000143d0       ??_R1A@?0A@EA@_Facet_base@std@@8 000000018006c3d0     libcpmt:locale0.obj
 0002:000143f8       ??_R4_Locimp@locale@std@@6B@ 000000018006c3f8     libcpmt:locale0.obj
 0002:00014420       ??_R3_Locimp@locale@std@@8 000000018006c420     libcpmt:locale0.obj
 0002:00014438       ??_R2_Locimp@locale@std@@8 000000018006c438     libcpmt:locale0.obj
 0002:00014460       ??_R1A@?0A@EA@_Locimp@locale@std@@8 000000018006c460     libcpmt:locale0.obj
 0002:00014488       ??_R1A@?0A@EA@facet@locale@std@@8 000000018006c488     libcpmt:locale0.obj
 0002:000144b0       ??_R3facet@locale@std@@8   000000018006c4b0     libcpmt:locale0.obj
 0002:000144c8       ??_R2facet@locale@std@@8   000000018006c4c8     libcpmt:locale0.obj
 0002:000144e8       ??_R17?0A@EA@_Crt_new_delete@std@@8 000000018006c4e8     libcpmt:locale0.obj
 0002:00014510       ??_R3_Crt_new_delete@std@@8 000000018006c510     libcpmt:locale0.obj
 0002:00014528       ??_R2_Crt_new_delete@std@@8 000000018006c528     libcpmt:locale0.obj
 0002:00014538       ??_R1A@?0A@EA@_Crt_new_delete@std@@8 000000018006c538     libcpmt:locale0.obj
 0002:00014560       ??_R4bad_array_new_length@std@@6B@ 000000018006c560     libcpmt:locale.obj
 0002:00014588       ??_R3bad_array_new_length@std@@8 000000018006c588     libcpmt:locale.obj
 0002:000145a0       ??_R2bad_array_new_length@std@@8 000000018006c5a0     libcpmt:locale.obj
 0002:000145c0       ??_R1A@?0A@EA@bad_array_new_length@std@@8 000000018006c5c0     libcpmt:locale.obj
 0002:000145e8       ??_R3ctype_base@std@@8     000000018006c5e8     libcpmt:locale.obj
 0002:00014600       ??_R2ctype_base@std@@8     000000018006c600     libcpmt:locale.obj
 0002:00014628       ??_R1A@?0A@EA@ctype_base@std@@8 000000018006c628     libcpmt:locale.obj
 0002:00014650       ??_R4?$ctype@D@std@@6B@    000000018006c650     libcpmt:locale.obj
 0002:00014678       ??_R3?$ctype@D@std@@8      000000018006c678     libcpmt:locale.obj
 0002:00014690       ??_R2?$ctype@D@std@@8      000000018006c690     libcpmt:locale.obj
 0002:000146c0       ??_R1A@?0A@EA@?$ctype@D@std@@8 000000018006c6c0     libcpmt:locale.obj
 0002:000146e8       ??_R4type_info@@6B@        000000018006c6e8     LIBCMT:std_type_info_static.obj
 0002:00014710       ??_R3type_info@@8          000000018006c710     LIBCMT:std_type_info_static.obj
 0002:00014728       ??_R2type_info@@8          000000018006c728     LIBCMT:std_type_info_static.obj
 0002:00014738       ??_R1A@?0A@EA@type_info@@8 000000018006c738     LIBCMT:std_type_info_static.obj
 0002:00014760       ??_R4bad_exception@std@@6B@ 000000018006c760     libvcruntime:frame.obj
 0002:00014788       ??_R3bad_exception@std@@8  000000018006c788     libvcruntime:frame.obj
 0002:000147a0       ??_R2bad_exception@std@@8  000000018006c7a0     libvcruntime:frame.obj
 0002:000147b8       ??_R1A@?0A@EA@bad_exception@std@@8 000000018006c7b8     libvcruntime:frame.obj
 0002:00014c08       __rtc_iaa                  000000018006cc08     LIBCMT:initsect.obj
 0002:00014c10       __rtc_izz                  000000018006cc10     LIBCMT:initsect.obj
 0002:00014c18       __rtc_taa                  000000018006cc18     LIBCMT:initsect.obj
 0002:00014c20       __rtc_tzz                  000000018006cc20     LIBCMT:initsect.obj
 0002:0001a358       _CT??_R0?AVbad_alloc@std@@@8??0bad_alloc@std@@QEAA@AEBV01@@Z24 0000000180072358     libcpmt:xthrow.obj
 0002:0001a380       _CT??_R0?AVexception@std@@@8??0exception@std@@QEAA@AEBV01@@Z24 0000000180072380     libcpmt:xthrow.obj
 0002:0001a3a8       _CT??_R0?AVruntime_error@std@@@8??0runtime_error@std@@QEAA@AEBV01@@Z24 00000001800723a8     libcpmt:xthrow.obj
 0002:0001a3d0       _TI2?AVbad_alloc@std@@     00000001800723d0     libcpmt:xthrow.obj
 0002:0001a3f0       _CTA2?AVbad_alloc@std@@    00000001800723f0     libcpmt:xthrow.obj
 0002:0001a408       _CT??_R0?AVlogic_error@std@@@8??0logic_error@std@@QEAA@AEBV01@@Z24 0000000180072408     libcpmt:xthrow.obj
 0002:0001a430       _TI3?AVlength_error@std@@  0000000180072430     libcpmt:xthrow.obj
 0002:0001a450       _CTA3?AVlength_error@std@@ 0000000180072450     libcpmt:xthrow.obj
 0002:0001a470       _CT??_R0?AVlength_error@std@@@8??0length_error@std@@QEAA@AEBV01@@Z24 0000000180072470     libcpmt:xthrow.obj
 0002:0001a498       _TI2?AVruntime_error@std@@ 0000000180072498     libcpmt:xthrow.obj
 0002:0001a4b8       _CTA2?AVruntime_error@std@@ 00000001800724b8     libcpmt:xthrow.obj
 0002:0001a4d0       _TI2?AVbad_function_call@std@@ 00000001800724d0     libcpmt:xthrow.obj
 0002:0001a4f0       _CTA2?AVbad_function_call@std@@ 00000001800724f0     libcpmt:xthrow.obj
 0002:0001a508       _CT??_R0?AVbad_function_call@std@@@8??0bad_function_call@std@@QEAA@AEBV01@@Z24 0000000180072508     libcpmt:xthrow.obj
 0002:0001a530       _TI3?AVbad_array_new_length@std@@ 0000000180072530     libcpmt:locale.obj
 0002:0001a550       _CTA3?AVbad_array_new_length@std@@ 0000000180072550     libcpmt:locale.obj
 0002:0001a570       _CT??_R0?AVbad_array_new_length@std@@@8??0bad_array_new_length@std@@QEAA@AEBV01@@Z24 0000000180072570     libcpmt:locale.obj
 0002:0001a598       _TI2?AVbad_exception@std@@ 0000000180072598     libvcruntime:frame.obj
 0002:0001a5b8       _CTA2?AVbad_exception@std@@ 00000001800725b8     libvcruntime:frame.obj
 0002:0001a5d0       _CT??_R0?AVbad_exception@std@@@8??0bad_exception@std@@QEAA@AEBV01@@Z24 00000001800725d0     libvcruntime:frame.obj
 0002:0001a5f8       _CT??_R0?AW4_cairo_status@@@84 00000001800725f8     Canvas.obj
 0002:0001a620       _CTA2PEAD                  0000000180072620     Canvas.obj
 0002:0001a638       _CT??_R0PEAD@88            0000000180072638     Canvas.obj
 0002:0001a660       _TI2PEAD                   0000000180072660     Canvas.obj
 0002:0001a680       _CT??_R0PEAX@88            0000000180072680     Canvas.obj
 0002:0001a6a8       _CTA1?AW4_cairo_status@@   00000001800726a8     Canvas.obj
 0002:0001a6b8       _TI1?AW4_cairo_status@@    00000001800726b8     Canvas.obj
 0002:0001a6d4       __DELAY_IMPORT_DESCRIPTOR_node_exe 00000001800726d4     node:node.exe
 0002:0001a6f4       __NULL_DELAY_IMPORT_DESCRIPTOR 00000001800726f4     node:node.exe
 0002:0001aa60       \177node_NULL_THUNK_DATA_DLN 0000000180072a60     node:node.exe
 0002:0001c720       \177node_NULL_THUNK_DATA_DLB 0000000180074720     node:node.exe
 0002:0001ccc0       __IMPORT_DESCRIPTOR_KERNEL32 0000000180074cc0     kernel32:KERNEL32.dll
 0002:0001ccd4       __IMPORT_DESCRIPTOR_GDI32  0000000180074cd4     gdi32:GDI32.dll
 0002:0001cce8       _head_D__a__temp_msys_msys64_mingw64_lib_libcairo_2_lib 0000000180074ce8     libcairo-2:dugkh.o
 0002:0001ccfc       _head_D__a__temp_msys_msys64_mingw64_lib_libpng16_16_lib 0000000180074cfc     libpng16-16:dodch.o
 0002:0001cd10       _head_D__a__temp_msys_msys64_mingw64_lib_libjpeg_8_lib 0000000180074d10     libjpeg-8:dghgh.o
 0002:0001cd24       _head_D__a__temp_msys_msys64_mingw64_lib_libpango_1_0_0_lib 0000000180074d24     libpango-1.0-0:dymih.o
 0002:0001cd38       _head_D__a__temp_msys_msys64_mingw64_lib_libpangocairo_1_0_0_lib 0000000180074d38     libpangocairo-1.0-0:dakhh.o
 0002:0001cd4c       _head_D__a__temp_msys_msys64_mingw64_lib_libgobject_2_0_0_lib 0000000180074d4c     libgobject-2.0-0:dyogh.o
 0002:0001cd60       _head_D__a__temp_msys_msys64_mingw64_lib_libglib_2_0_0_lib 0000000180074d60     libglib-2.0-0:dotdh.o
 0002:0001cd74       _head_D__a__temp_msys_msys64_mingw64_lib_libgif_7_lib 0000000180074d74     libgif-7:deybh.o
 0002:0001cd88       _head_D__a__temp_msys_msys64_mingw64_lib_libfreetype_6_lib 0000000180074d88     libfreetype-6:dmuhh.o
 0002:0001cd9c       _head_D__a__temp_msys_msys64_mingw64_lib_librsvg_2_2_lib 0000000180074d9c     librsvg-2-2:dugch.o
 0002:0001cdb0       __NULL_IMPORT_DESCRIPTOR   0000000180074db0     kernel32:KERNEL32.dll
 0002:0001f27c       __D__a__temp_msys_msys64_mingw64_lib_libcairo_2_lib_iname 000000018007727c     libcairo-2:dugkt.o
 0002:0001f2ec       __D__a__temp_msys_msys64_mingw64_lib_libpng16_16_lib_iname 00000001800772ec     libpng16-16:dodct.o
 0002:0001f344       __D__a__temp_msys_msys64_mingw64_lib_libjpeg_8_lib_iname 0000000180077344     libjpeg-8:dghgt.o
 0002:0001f3bc       __D__a__temp_msys_msys64_mingw64_lib_libpango_1_0_0_lib_iname 00000001800773bc     libpango-1.0-0:dymit.o
 0002:0001f3e4       __D__a__temp_msys_msys64_mingw64_lib_libpangocairo_1_0_0_lib_iname 00000001800773e4     libpangocairo-1.0-0:dakht.o
 0002:0001f400       __D__a__temp_msys_msys64_mingw64_lib_libgobject_2_0_0_lib_iname 0000000180077400     libgobject-2.0-0:dyogt.o
 0002:0001f438       __D__a__temp_msys_msys64_mingw64_lib_libglib_2_0_0_lib_iname 0000000180077438     libglib-2.0-0:dotdt.o
 0002:0001f458       __D__a__temp_msys_msys64_mingw64_lib_libgif_7_lib_iname 0000000180077458     libgif-7:deybt.o
 0002:0001f484       __D__a__temp_msys_msys64_mingw64_lib_libfreetype_6_lib_iname 0000000180077484     libfreetype-6:dmuht.o
 0002:0001f4a4       __D__a__temp_msys_msys64_mingw64_lib_librsvg_2_2_lib_iname 00000001800774a4     librsvg-2-2:dugct.o
 0003:00000004       ?_Sync@ios_base@std@@0_NA  0000000180078004     libcpmt:ios.obj
 0003:00000010       __scrt_native_dllmain_reason 0000000180078010     LIBCMT:utility.obj
 0003:00000018       __security_cookie_complement 0000000180078018     LIBCMT:gs_cookie.obj
 0003:00000020       __security_cookie          0000000180078020     LIBCMT:gs_cookie.obj
 0003:00000028       _fltused                   0000000180078028     LIBCMT:fltused.obj
 0003:00000030       __isa_available            0000000180078030     LIBCMT:cpu_disp.obj
 0003:00000034       __isa_enabled              0000000180078034     LIBCMT:cpu_disp.obj
 0003:00000038       __memcpy_nt_iters          0000000180078038     LIBCMT:cpu_disp.obj
 0003:00000040       __memset_nt_iters          0000000180078040     LIBCMT:cpu_disp.obj
 0003:00000060       __abort_behavior           0000000180078060     libucrt:abort.obj
 0003:00000070       _iob                       0000000180078070     libucrt:_file.obj
 0003:00000180       _pctype                    0000000180078180     libucrt:ctype.obj
 0003:00000188       _pwctype                   0000000180078188     libucrt:ctype.obj
 0003:00000190       __acrt_lconv_c             0000000180078190     libucrt:localeconv.obj
 0003:00000228       __acrt_lconv               0000000180078228     libucrt:localeconv.obj
 0003:00000230       __acrt_lconv_static_decimal 0000000180078230     libucrt:localeconv.obj
 0003:00000234       __acrt_lconv_static_W_decimal 0000000180078234     libucrt:localeconv.obj
 0003:00000250       __acrt_initial_locale_data 0000000180078250     libucrt:nlsdata.obj
 0003:000003a8       __acrt_initial_locale_pointers 00000001800783a8     libucrt:nlsdata.obj
 0003:000003b8       __acrt_wide_c_locale_string 00000001800783b8     libucrt:nlsdata.obj
 0003:000003bc       __mb_cur_max               00000001800783bc     libucrt:nlsdata.obj
 0003:000003c0       __badioinfo                00000001800783c0     libucrt:ioinit.obj
 0003:00000410       _lookuptrailbytes          0000000180078410     libucrt:read.obj
 0003:00000510       __globallocalestatus       0000000180078510     libucrt:glstatus.obj
 0003:000006e0       __acrt_initial_multibyte_data 00000001800786e0     libucrt:mbctype.obj
 0003:00000c30       ?_Static@?1???$_Immortalize_memcpy_image@V_Iostream_error_category2@std@@@std@@YAAEBV_Iostream_error_category2@1@XZ@4U?$_Constexpr_immortalize_impl@V_Iostream_error_category2@std@@@1@A 0000000180078c30     Canvas.obj
 0003:00000c80       ??_R0?AVbad_alloc@std@@@8  0000000180078c80     libcpmt:xthrow.obj
 0003:00000ca8       ??_R0?AVexception@std@@@8  0000000180078ca8     libcpmt:xthrow.obj
 0003:00000cd0       ??_R0?AVruntime_error@std@@@8 0000000180078cd0     libcpmt:xthrow.obj
 0003:00000cf8       ??_R0?AVlogic_error@std@@@8 0000000180078cf8     libcpmt:xthrow.obj
 0003:00000d20       ??_R0?AVlength_error@std@@@8 0000000180078d20     libcpmt:xthrow.obj
 0003:00000d48       ??_R0?AVbad_function_call@std@@@8 0000000180078d48     libcpmt:xthrow.obj
 0003:00000d78       ??_R0?AV_Facet_base@std@@@8 0000000180078d78     libcpmt:locale0.obj
 0003:00000da0       ??_R0?AV_Locimp@locale@std@@@8 0000000180078da0     libcpmt:locale0.obj
 0003:00000dd0       ??_R0?AVfacet@locale@std@@@8 0000000180078dd0     libcpmt:locale0.obj
 0003:00000df8       ??_R0?AU_Crt_new_delete@std@@@8 0000000180078df8     libcpmt:locale0.obj
 0003:00000e28       ??_R0?AVbad_array_new_length@std@@@8 0000000180078e28     libcpmt:locale.obj
 0003:00000e58       ??_R0?AUctype_base@std@@@8 0000000180078e58     libcpmt:locale.obj
 0003:00000e80       ??_R0?AV?$ctype@D@std@@@8  0000000180078e80     libcpmt:locale.obj
 0003:00000ea8       ??_R0?AVtype_info@@@8      0000000180078ea8     LIBCMT:std_type_info_static.obj
 0003:00000ec8       ??_R0?AVbad_exception@std@@@8 0000000180078ec8     libvcruntime:frame.obj
 0003:00000ef0       ??_R0?AVbad_alloc@stdext@@@8 0000000180078ef0     PdfBackend.obj
 0003:00000f18       ??_R0?AW4_cairo_status@@@8 0000000180078f18     Canvas.obj
 0003:00000f40       ??_R0PEAD@8                0000000180078f40     Canvas.obj
 0003:00000f58       ??_R0PEAX@8                0000000180078f58     Canvas.obj
 0003:00001030       __imp_?GetCurrentContext@Isolate@v8@@QEAA?AV?$Local@VContext@v8@@@2@XZ 0000000180079030     node:node.exe
 0003:00001038       __imp_?GetCurrent@Isolate@v8@@SAPEAV12@XZ 0000000180079038     node:node.exe
 0003:00001040       __imp_??1HandleScope@v8@@QEAA@XZ 0000000180079040     node:node.exe
 0003:00001048       __imp_??0HandleScope@v8@@QEAA@PEAVIsolate@1@@Z 0000000180079048     node:node.exe
 0003:00001050       __imp_?ClearWeak@V8@v8@@CAPEAXPEAPEAVObject@internal@2@@Z 0000000180079050     node:node.exe
 0003:00001058       __imp_?MakeWeak@V8@v8@@CAXPEAPEAVObject@internal@2@PEAXP6AXAEBV?$WeakCallbackInfo@X@2@@ZW4WeakCallbackType@2@@Z 0000000180079058     node:node.exe
 0003:00001060       __imp_?DisposeGlobal@V8@v8@@CAXPEAPEAVObject@internal@2@@Z 0000000180079060     node:node.exe
 0003:00001068       __imp_?GlobalizeReference@V8@v8@@CAPEAPEAVObject@internal@2@PEAVIsolate@42@PEAPEAV342@@Z 0000000180079068     node:node.exe
 0003:00001070       __imp_?Uint32Value@Value@v8@@QEBA?AV?$Maybe@I@2@V?$Local@VContext@v8@@@2@@Z 0000000180079070     node:node.exe
 0003:00001078       __imp_?IsNumber@Value@v8@@QEBA_NXZ 0000000180079078     node:node.exe
 0003:00001080       __imp_?SetAlignedPointerInInternalField@Object@v8@@QEAAXHPEAX@Z 0000000180079080     node:node.exe
 0003:00001088       __imp_?InternalFieldCount@Object@v8@@QEAAHXZ 0000000180079088     node:node.exe
 0003:00001090       __imp_?Value@External@v8@@QEBAPEAXXZ 0000000180079090     node:node.exe
 0003:00001098       __imp_?New@External@v8@@SA?AV?$Local@VExternal@v8@@@2@PEAVIsolate@2@PEAX@Z 0000000180079098     node:node.exe
 0003:000010a0       __imp_?CheckMemoryPressure@Isolate@v8@@AEAAXXZ 00000001800790a0     node:node.exe
 0003:000010a8       __imp_?ReportExternalAllocationLimitReached@Isolate@v8@@AEAAXXZ 00000001800790a8     node:node.exe
 0003:000010b0       __imp_?CreateHandle@HandleScope@v8@@KAPEAPEAVObject@internal@2@PEAVIsolate@42@PEAV342@@Z 00000001800790b0     node:node.exe
 0003:000010b8       __imp_?CreateHandle@HandleScope@v8@@CAPEAPEAVObject@internal@2@PEAVHeapObject@42@PEAV342@@Z 00000001800790b8     node:node.exe
 0003:000010c0       __imp_?SetClassName@FunctionTemplate@v8@@QEAAXV?$Local@VString@v8@@@2@@Z 00000001800790c0     node:node.exe
 0003:000010c8       __imp_?InstanceTemplate@FunctionTemplate@v8@@QEAA?AV?$Local@VObjectTemplate@v8@@@2@XZ 00000001800790c8     node:node.exe
 0003:000010d0       __imp_?GetFunction@FunctionTemplate@v8@@QEAA?AV?$MaybeLocal@VFunction@v8@@@2@V?$Local@VContext@v8@@@2@@Z 00000001800790d0     node:node.exe
 0003:000010d8       __imp_?New@FunctionTemplate@v8@@SA?AV?$Local@VFunctionTemplate@v8@@@2@PEAVIsolate@2@P6AXAEBV?$FunctionCallbackInfo@VValue@v8@@@2@@ZV?$Local@VValue@v8@@@2@V?$Local@VSignature@v8@@@2@HW4ConstructorBehavior@2@W4SideEffectType@2@@Z 00000001800790d8     node:node.exe
 0003:000010e0       __imp_?ToLocalEmpty@V8@v8@@CAXXZ 00000001800790e0     node:node.exe
 0003:000010e8       __imp_?Escape@EscapableHandleScope@v8@@AEAAPEAPEAVObject@internal@2@PEAPEAV342@@Z 00000001800790e8     node:node.exe
 0003:000010f0       __imp_??0EscapableHandleScope@v8@@QEAA@PEAVIsolate@1@@Z 00000001800790f0     node:node.exe
 0003:000010f8       __imp_?NewFromUtf8@String@v8@@SA?AV?$MaybeLocal@VString@v8@@@2@PEAVIsolate@2@PEBDW4NewStringType@2@H@Z 00000001800790f8     node:node.exe
 0003:00001100       __imp_?SlowGetInternalField@Object@v8@@AEAA?AV?$Local@VValue@v8@@@2@H@Z 0000000180079100     node:node.exe
 0003:00001108       __imp_?SetInternalField@Object@v8@@QEAAXHV?$Local@VValue@v8@@@2@@Z 0000000180079108     node:node.exe
 0003:00001110       __imp_?Set@Object@v8@@QEAA?AV?$Maybe@_N@2@V?$Local@VContext@v8@@@2@V?$Local@VValue@v8@@@2@1@Z 0000000180079110     node:node.exe
 0003:00001118       __imp_?SetInternalFieldCount@ObjectTemplate@v8@@QEAAXH@Z 0000000180079118     node:node.exe
 0003:00001120       __imp_?NewInstance@ObjectTemplate@v8@@QEAA?AV?$MaybeLocal@VObject@v8@@@2@V?$Local@VContext@v8@@@2@@Z 0000000180079120     node:node.exe
 0003:00001128       __imp_?New@ObjectTemplate@v8@@SA?AV?$Local@VObjectTemplate@v8@@@2@PEAVIsolate@2@V?$Local@VFunctionTemplate@v8@@@2@@Z 0000000180079128     node:node.exe
 0003:00001130       __imp_??1EscapableHandleScope@v8@@QEAA@XZ 0000000180079130     node:node.exe
 0003:00001138       __imp_?New@Object@v8@@SA?AV?$Local@VObject@v8@@@2@PEAVIsolate@2@@Z 0000000180079138     node:node.exe
 0003:00001140       __imp_uv_queue_work        0000000180079140     node:node.exe
 0003:00001148       __imp_?GetIsolate@Context@v8@@QEAAPEAVIsolate@2@XZ 0000000180079148     node:node.exe
 0003:00001150       __imp_?Global@Context@v8@@QEAA?AV?$Local@VObject@v8@@@2@XZ 0000000180079150     node:node.exe
 0003:00001158       __imp_?NewFromUnsigned@Integer@v8@@SA?AV?$Local@VInteger@v8@@@2@PEAVIsolate@2@I@Z 0000000180079158     node:node.exe
 0003:00001160       __imp_?New@Signature@v8@@SA?AV?$Local@VSignature@v8@@@2@PEAVIsolate@2@V?$Local@VFunctionTemplate@v8@@@2@@Z 0000000180079160     node:node.exe
 0003:00001168       __imp_?ThrowException@Isolate@v8@@QEAA?AV?$Local@VValue@v8@@@2@V32@@Z 0000000180079168     node:node.exe
 0003:00001170       __imp_?Length@TypedArray@v8@@QEAA_KXZ 0000000180079170     node:node.exe
 0003:00001178       __imp_?Set@Template@v8@@QEAAXV?$Local@VName@v8@@@2@V?$Local@VData@v8@@@2@W4PropertyAttribute@2@@Z 0000000180079178     node:node.exe
 0003:00001180       __imp_?ByteLength@ArrayBufferView@v8@@QEAA_KXZ 0000000180079180     node:node.exe
 0003:00001188       __imp_?ByteOffset@ArrayBufferView@v8@@QEAA_KXZ 0000000180079188     node:node.exe
 0003:00001190       __imp_?Buffer@ArrayBufferView@v8@@QEAA?AV?$Local@VArrayBuffer@v8@@@2@XZ 0000000180079190     node:node.exe
 0003:00001198       __imp_?Error@Exception@v8@@SA?AV?$Local@VValue@v8@@@2@V?$Local@VString@v8@@@2@@Z 0000000180079198     node:node.exe
 0003:000011a0       __imp_?TypeError@Exception@v8@@SA?AV?$Local@VValue@v8@@@2@V?$Local@VString@v8@@@2@@Z 00000001800791a0     node:node.exe
 0003:000011a8       __imp_?New@AccessorSignature@v8@@SA?AV?$Local@VAccessorSignature@v8@@@2@PEAVIsolate@2@V?$Local@VFunctionTemplate@v8@@@2@@Z 00000001800791a8     node:node.exe
 0003:000011b0       __imp_?ValueOf@Date@v8@@QEBANXZ 00000001800791b0     node:node.exe
 0003:000011b8       __imp_?HasInstance@FunctionTemplate@v8@@QEAA_NV?$Local@VValue@v8@@@2@@Z 00000001800791b8     node:node.exe
 0003:000011c0       __imp_?PrototypeTemplate@FunctionTemplate@v8@@QEAA?AV?$Local@VObjectTemplate@v8@@@2@XZ 00000001800791c0     node:node.exe
 0003:000011c8       __imp_?GetContents@ArrayBuffer@v8@@QEAA?AVContents@12@XZ 00000001800791c8     node:node.exe
 0003:000011d0       __imp_?StrictEquals@Value@v8@@QEBA_NV?$Local@VValue@v8@@@2@@Z 00000001800791d0     node:node.exe
 0003:000011d8       __imp_?NumberValue@Value@v8@@QEBA?AV?$Maybe@N@2@V?$Local@VContext@v8@@@2@@Z 00000001800791d8     node:node.exe
 0003:000011e0       __imp_?BooleanValue@Value@v8@@QEBA?AV?$Maybe@_N@2@V?$Local@VContext@v8@@@2@@Z 00000001800791e0     node:node.exe
 0003:000011e8       __imp_?ToUint32@Value@v8@@QEBA?AV?$MaybeLocal@VUint32@v8@@@2@V?$Local@VContext@v8@@@2@@Z 00000001800791e8     node:node.exe
 0003:000011f0       __imp_?ToObject@Value@v8@@QEBA?AV?$MaybeLocal@VObject@v8@@@2@V?$Local@VContext@v8@@@2@@Z 00000001800791f0     node:node.exe
 0003:000011f8       __imp_?ToString@Value@v8@@QEBA?AV?$MaybeLocal@VString@v8@@@2@V?$Local@VContext@v8@@@2@@Z 00000001800791f8     node:node.exe
 0003:00001200       __imp_?IsUint8ClampedArray@Value@v8@@QEBA_NXZ 0000000180079200     node:node.exe
 0003:00001208       __imp_?IsArrayBufferView@Value@v8@@QEBA_NXZ 0000000180079208     node:node.exe
 0003:00001210       __imp_?IsDate@Value@v8@@QEBA_NXZ 0000000180079210     node:node.exe
 0003:00001218       __imp_?IsUint32@Value@v8@@QEBA_NXZ 0000000180079218     node:node.exe
 0003:00001220       __imp_?IsBoolean@Value@v8@@QEBA_NXZ 0000000180079220     node:node.exe
 0003:00001228       __imp_?IsObject@Value@v8@@QEBA_NXZ 0000000180079228     node:node.exe
 0003:00001230       __imp_?IsFunction@Value@v8@@QEBA_NXZ 0000000180079230     node:node.exe
 0003:00001238       __imp_?ReThrow@TryCatch@v8@@QEAA?AV?$Local@VValue@v8@@@2@XZ 0000000180079238     node:node.exe
 0003:00001240       __imp_?HasCaught@TryCatch@v8@@QEBA_NXZ 0000000180079240     node:node.exe
 0003:00001248       __imp_??1TryCatch@v8@@QEAA@XZ 0000000180079248     node:node.exe
 0003:00001250       __imp_??0TryCatch@v8@@QEAA@PEAVIsolate@1@@Z 0000000180079250     node:node.exe
 0003:00001258       __imp_?WriteUtf8@String@v8@@QEBAHPEADHPEAHH@Z 0000000180079258     node:node.exe
 0003:00001260       __imp_?Length@String@v8@@QEBAHXZ 0000000180079260     node:node.exe
 0003:00001268       __imp_?New@Number@v8@@SA?AV?$Local@VNumber@v8@@@2@PEAVIsolate@2@N@Z 0000000180079268     node:node.exe
 0003:00001270       __imp_?SlowGetAlignedPointerFromInternalField@Object@v8@@AEAAPEAXH@Z 0000000180079270     node:node.exe
 0003:00001278       __imp_?Get@Object@v8@@QEAA?AV?$MaybeLocal@VValue@v8@@@2@V?$Local@VContext@v8@@@2@V?$Local@VValue@v8@@@2@@Z 0000000180079278     node:node.exe
 0003:00001280       __imp_?Call@Function@v8@@QEAA?AV?$MaybeLocal@VValue@v8@@@2@V?$Local@VContext@v8@@@2@V?$Local@VValue@v8@@@2@HQEAV52@@Z 0000000180079280     node:node.exe
 0003:00001288       __imp_?SetAccessor@ObjectTemplate@v8@@QEAAXV?$Local@VName@v8@@@2@P6AX0AEBV?$PropertyCallbackInfo@VValue@v8@@@2@@ZP6AX0V?$Local@VValue@v8@@@2@AEBV?$PropertyCallbackInfo@X@2@@Z3W4AccessControl@2@W4PropertyAttribute@2@V?$Local@VAccessorSignature@v8@@@2@@Z 0000000180079288     node:node.exe
 0003:00001290       __imp_?EmitAsyncDestroy@node@@YAXPEAVIsolate@v8@@Uasync_context@1@@Z 0000000180079290     node:node.exe
 0003:00001298       __imp_?New@Buffer@node@@YA?AV?$MaybeLocal@VObject@v8@@@v8@@PEAVIsolate@4@PEAD_KP6AX1PEAX@Z3@Z 0000000180079298     node:node.exe
 0003:000012a0       __imp_?New@Buffer@node@@YA?AV?$MaybeLocal@VObject@v8@@@v8@@PEAVIsolate@4@PEAD_K@Z 00000001800792a0     node:node.exe
 0003:000012a8       __imp_?Copy@Buffer@node@@YA?AV?$MaybeLocal@VObject@v8@@@v8@@PEAVIsolate@4@PEBD_K@Z 00000001800792a8     node:node.exe
 0003:000012b0       __imp_?MakeCallback@node@@YA?AV?$MaybeLocal@VValue@v8@@@v8@@PEAVIsolate@3@V?$Local@VObject@v8@@@3@V?$Local@VFunction@v8@@@3@HPEAV?$Local@VValue@v8@@@3@Uasync_context@1@@Z 00000001800792b0     node:node.exe
 0003:000012b8       __imp_?EmitAsyncInit@node@@YA?AUasync_context@1@PEAVIsolate@v8@@V?$Local@VObject@v8@@@4@V?$Local@VString@v8@@@4@N@Z 00000001800792b8     node:node.exe
 0003:000012c0       __imp_uv_default_loop      00000001800792c0     node:node.exe
 0003:000012c8       __imp_?New@Uint8ClampedArray@v8@@SA?AV?$Local@VUint8ClampedArray@v8@@@2@V?$Local@VArrayBuffer@v8@@@2@_K1@Z 00000001800792c8     node:node.exe
 0003:000012d0       __imp_?New@Integer@v8@@SA?AV?$Local@VInteger@v8@@@2@PEAVIsolate@2@H@Z 00000001800792d0     node:node.exe
 0003:000012d8       __imp_?New@Array@v8@@SA?AV?$Local@VArray@v8@@@2@PEAVIsolate@2@H@Z 00000001800792d8     node:node.exe
 0003:000012e0       __imp_?Length@Array@v8@@QEBAIXZ 00000001800792e0     node:node.exe
 0003:000012e8       __imp_?New@ArrayBuffer@v8@@SA?AV?$Local@VArrayBuffer@v8@@@2@PEAVIsolate@2@_K@Z 00000001800792e8     node:node.exe
 0003:000012f0       __imp_?FromJustIsNothing@V8@v8@@CAXXZ 00000001800792f0     node:node.exe
 0003:000012f8       __imp_?InstanceOf@Value@v8@@QEAA?AV?$Maybe@_N@2@V?$Local@VContext@v8@@@2@V?$Local@VObject@v8@@@2@@Z 00000001800792f8     node:node.exe
 0003:00001300       __imp_?Int32Value@Value@v8@@QEBA?AV?$Maybe@H@2@V?$Local@VContext@v8@@@2@@Z 0000000180079300     node:node.exe
 0003:00001308       __imp_?ToInt32@Value@v8@@QEBA?AV?$MaybeLocal@VInt32@v8@@@2@V?$Local@VContext@v8@@@2@@Z 0000000180079308     node:node.exe
 0003:00001310       __imp_?IsArray@Value@v8@@QEBA_NXZ 0000000180079310     node:node.exe
 0003:00001318       __imp_?New@Float64Array@v8@@SA?AV?$Local@VFloat64Array@v8@@@2@V?$Local@VArrayBuffer@v8@@@2@_K1@Z 0000000180079318     node:node.exe
 0003:00001320       __imp_?New@Uint16Array@v8@@SA?AV?$Local@VUint16Array@v8@@@2@V?$Local@VArrayBuffer@v8@@@2@_K1@Z 0000000180079320     node:node.exe
 0003:00001328       __imp_?Get@Object@v8@@QEAA?AV?$MaybeLocal@VValue@v8@@@2@V?$Local@VContext@v8@@@2@I@Z 0000000180079328     node:node.exe
 0003:00001330       __imp_?NewInstance@Function@v8@@QEBA?AV?$MaybeLocal@VObject@v8@@@2@V?$Local@VContext@v8@@@2@HQEAV?$Local@VValue@v8@@@2@@Z 0000000180079330     node:node.exe
 0003:00001338       __imp_?New@Function@v8@@SA?AV?$MaybeLocal@VFunction@v8@@@2@V?$Local@VContext@v8@@@2@P6AXAEBV?$FunctionCallbackInfo@VValue@v8@@@2@@ZV?$Local@VValue@v8@@@2@HW4ConstructorBehavior@2@W4SideEffectType@2@@Z 0000000180079338     node:node.exe
 0003:00001340       __imp_?HasInstance@Buffer@node@@YA_NV?$Local@VValue@v8@@@v8@@@Z 0000000180079340     node:node.exe
 0003:00001348       __imp_?Data@Buffer@node@@YAPEADV?$Local@VObject@v8@@@v8@@@Z 0000000180079348     node:node.exe
 0003:00001350       __imp_?Length@Buffer@node@@YA_KV?$Local@VObject@v8@@@v8@@@Z 0000000180079350     node:node.exe
 0003:00001358       __imp_?ErrnoException@node@@YA?AV?$Local@VValue@v8@@@v8@@PEAVIsolate@3@HPEBD11@Z 0000000180079358     node:node.exe
 0003:00001360       __imp_?RangeError@Exception@v8@@SA?AV?$Local@VValue@v8@@@2@V?$Local@VString@v8@@@2@@Z 0000000180079360     node:node.exe
 0003:00001368       __imp_?IsUint16Array@Value@v8@@QEBA_NXZ 0000000180079368     node:node.exe
 0003:00001370       __imp_node_module_register 0000000180079370     node:node.exe
 0003:00001378       \177node_NULL_THUNK_DATA_DLA 0000000180079378     node:node.exe
 0003:00001380       __hmod__node_exe           0000000180079380     node:node.exe
 0003:00001390       ?_Raise_handler@std@@3P6AXAEBVexception@stdext@@@ZEA 0000000180079390     libcpmt:raisehan.obj
 0003:000014f0       ?_Id_cnt@id@locale@std@@0HA 00000001800794f0     libcpmt:locale0.obj
 0003:000014f8       ?_Clocptr@_Locimp@locale@std@@0PEAV123@EA 00000001800794f8     libcpmt:locale0.obj
 0003:00001500       ?id@?$ctype@_W@std@@2V0locale@2@A 0000000180079500     libcpmt:locale0.obj
 0003:00001508       ?id@?$ctype@D@std@@2V0locale@2@A 0000000180079508     libcpmt:locale0.obj
 0003:00001510       ?id@?$codecvt@GDU_Mbstatet@@@std@@2V0locale@2@A 0000000180079510     libcpmt:locale0.obj
 0003:00001518       ?id@?$ctype@G@std@@2V0locale@2@A 0000000180079518     libcpmt:locale0.obj
 0003:00001530       ?id@?$codecvt@_WDU_Mbstatet@@@std@@2V0locale@2@A 0000000180079530     libcpmt:locale0.obj
 0003:00001560       ?_Index@ios_base@std@@0HA  0000000180079560     libcpmt:ios.obj
 0003:000015d0       ?id@?$num_get@DV?$istreambuf_iterator@DU?$char_traits@D@std@@@std@@@std@@2V0locale@2@A 00000001800795d0     libcpmt:locale.obj
 0003:000015d8       ?id@?$num_put@DV?$ostreambuf_iterator@DU?$char_traits@D@std@@@std@@@std@@2V0locale@2@A 00000001800795d8     libcpmt:locale.obj
 0003:000015e0       ?id@?$numpunct@D@std@@2V0locale@2@A 00000001800795e0     libcpmt:locale.obj
 0003:000015e8       ?id@?$codecvt@DDU_Mbstatet@@@std@@2V0locale@2@A 00000001800795e8     libcpmt:locale.obj
 0003:000015f0       ?_Ptr_cin@std@@3PEAV?$basic_istream@DU?$char_traits@D@std@@@1@EA 00000001800795f0     libcpmt:iosptrs.obj
 0003:000015f8       ?_Ptr_cout@std@@3PEAV?$basic_ostream@DU?$char_traits@D@std@@@1@EA 00000001800795f8     libcpmt:iosptrs.obj
 0003:00001600       ?_Ptr_cerr@std@@3PEAV?$basic_ostream@DU?$char_traits@D@std@@@1@EA 0000000180079600     libcpmt:iosptrs.obj
 0003:00001608       ?_Ptr_clog@std@@3PEAV?$basic_ostream@DU?$char_traits@D@std@@@1@EA 0000000180079608     libcpmt:iosptrs.obj
 0003:00001610       ?_Ptr_wcin@std@@3PEAV?$basic_istream@_WU?$char_traits@_W@std@@@1@EA 0000000180079610     libcpmt:iosptrs.obj
 0003:00001618       ?_Ptr_wcout@std@@3PEAV?$basic_ostream@_WU?$char_traits@_W@std@@@1@EA 0000000180079618     libcpmt:iosptrs.obj
 0003:00001620       ?_Ptr_wcerr@std@@3PEAV?$basic_ostream@_WU?$char_traits@_W@std@@@1@EA 0000000180079620     libcpmt:iosptrs.obj
 0003:00001628       ?_Ptr_wclog@std@@3PEAV?$basic_ostream@_WU?$char_traits@_W@std@@@1@EA 0000000180079628     libcpmt:iosptrs.obj
 0003:00001690       __KERNEL32Functions        0000000180079690     libcpmt:winapisupp.obj
 0003:000017d0       ?id@?$time_put@_WV?$ostreambuf_iterator@_WU?$char_traits@_W@std@@@std@@@std@@2V0locale@2@A 00000001800797d0     libcpmt:wlocale.obj
 0003:000017d8       ?id@?$num_get@_WV?$istreambuf_iterator@_WU?$char_traits@_W@std@@@std@@@std@@2V0locale@2@A 00000001800797d8     libcpmt:wlocale.obj
 0003:000017e0       ?id@?$num_put@_WV?$ostreambuf_iterator@_WU?$char_traits@_W@std@@@std@@@std@@2V0locale@2@A 00000001800797e0     libcpmt:wlocale.obj
 0003:000017e8       ?id@?$numpunct@_W@std@@2V0locale@2@A 00000001800797e8     libcpmt:wlocale.obj
 0003:000017f0       ?id@?$collate@_W@std@@2V0locale@2@A 00000001800797f0     libcpmt:wlocale.obj
 0003:000017f8       ?id@?$messages@_W@std@@2V0locale@2@A 00000001800797f8     libcpmt:wlocale.obj
 0003:00001800       ?id@?$money_get@_WV?$istreambuf_iterator@_WU?$char_traits@_W@std@@@std@@@std@@2V0locale@2@A 0000000180079800     libcpmt:wlocale.obj
 0003:00001808       ?id@?$money_put@_WV?$ostreambuf_iterator@_WU?$char_traits@_W@std@@@std@@@std@@2V0locale@2@A 0000000180079808     libcpmt:wlocale.obj
 0003:00001810       ?id@?$moneypunct@_W$0A@@std@@2V0locale@2@A 0000000180079810     libcpmt:wlocale.obj
 0003:00001818       ?id@?$moneypunct@_W$00@std@@2V0locale@2@A 0000000180079818     libcpmt:wlocale.obj
 0003:00001820       ?id@?$time_get@_WV?$istreambuf_iterator@_WU?$char_traits@_W@std@@@std@@@std@@2V0locale@2@A 0000000180079820     libcpmt:wlocale.obj
 0003:00001828       ?id@?$num_get@GV?$istreambuf_iterator@GU?$char_traits@G@std@@@std@@@std@@2V0locale@2@A 0000000180079828     libcpmt:wlocale.obj
 0003:00001830       ?id@?$num_put@GV?$ostreambuf_iterator@GU?$char_traits@G@std@@@std@@@std@@2V0locale@2@A 0000000180079830     libcpmt:wlocale.obj
 0003:00001838       ?id@?$numpunct@G@std@@2V0locale@2@A 0000000180079838     libcpmt:wlocale.obj
 0003:00001840       ?id@?$collate@G@std@@2V0locale@2@A 0000000180079840     libcpmt:wlocale.obj
 0003:00001848       ?id@?$messages@G@std@@2V0locale@2@A 0000000180079848     libcpmt:wlocale.obj
 0003:00001850       ?id@?$money_get@GV?$istreambuf_iterator@GU?$char_traits@G@std@@@std@@@std@@2V0locale@2@A 0000000180079850     libcpmt:wlocale.obj
 0003:00001858       ?id@?$money_put@GV?$ostreambuf_iterator@GU?$char_traits@G@std@@@std@@@std@@2V0locale@2@A 0000000180079858     libcpmt:wlocale.obj
 0003:00001860       ?id@?$moneypunct@G$0A@@std@@2V0locale@2@A 0000000180079860     libcpmt:wlocale.obj
 0003:00001868       ?id@?$moneypunct@G$00@std@@2V0locale@2@A 0000000180079868     libcpmt:wlocale.obj
 0003:00001870       ?id@?$time_get@GV?$istreambuf_iterator@GU?$char_traits@G@std@@@std@@@std@@2V0locale@2@A 0000000180079870     libcpmt:wlocale.obj
 0003:00001878       ?id@?$time_put@GV?$ostreambuf_iterator@GU?$char_traits@G@std@@@std@@@std@@2V0locale@2@A 0000000180079878     libcpmt:wlocale.obj
 0003:00001880       ?id@?$collate@D@std@@2V0locale@2@A 0000000180079880     libcpmt:xlocale.obj
 0003:00001888       ?id@?$messages@D@std@@2V0locale@2@A 0000000180079888     libcpmt:xlocale.obj
 0003:00001890       ?id@?$money_get@DV?$istreambuf_iterator@DU?$char_traits@D@std@@@std@@@std@@2V0locale@2@A 0000000180079890     libcpmt:xlocale.obj
 0003:00001898       ?id@?$money_put@DV?$ostreambuf_iterator@DU?$char_traits@D@std@@@std@@@std@@2V0locale@2@A 0000000180079898     libcpmt:xlocale.obj
 0003:000018a0       ?id@?$moneypunct@D$0A@@std@@2V0locale@2@A 00000001800798a0     libcpmt:xlocale.obj
 0003:000018a8       ?id@?$moneypunct@D$00@std@@2V0locale@2@A 00000001800798a8     libcpmt:xlocale.obj
 0003:000018b0       ?id@?$time_get@DV?$istreambuf_iterator@DU?$char_traits@D@std@@@std@@@std@@2V0locale@2@A 00000001800798b0     libcpmt:xlocale.obj
 0003:000018b8       ?id@?$time_put@DV?$ostreambuf_iterator@DU?$char_traits@D@std@@@std@@@std@@2V0locale@2@A 00000001800798b8     libcpmt:xlocale.obj
 0003:000018c0       __scrt_current_native_startup_state 00000001800798c0     LIBCMT:utility.obj
 0003:000018c8       __scrt_native_startup_lock 00000001800798c8     LIBCMT:utility.obj
 0003:00001910       __castguard_check_failure_os_handled_fptr 0000000180079910     LIBCMT:guard_support.obj
 0003:00001e90       __favor                    0000000180079e90     LIBCMT:cpu_disp.obj
 0003:00001e94       __scrt_debugger_hook_flag  0000000180079e94     LIBCMT:utility_desktop.obj
 0003:00001ea0       ?__type_info_root_node@@3U__type_info_node@@A 0000000180079ea0     LIBCMT:tncleanup.obj
 0003:00001eb0       ?_OptionsStorage@?1??__local_stdio_scanf_options@@9@4_KA 0000000180079eb0     LIBCMT:default_local_stdio_options.obj
 0003:00001eb8       ?__WinRTOutOfMemoryExceptionCallback@@3P6APEAXXZEA 0000000180079eb8     libvcruntime:ehhelpers.obj
 0003:00001f40       __pPurecall                0000000180079f40     libvcruntime:purevirt_data.obj
 0003:00001f78       ?pArgList@UnDecorator@@0PEAVReplicator@@EA 0000000180079f78     libvcruntime:undname.obj
 0003:00001f80       ?pZNameList@UnDecorator@@0PEAVReplicator@@EA 0000000180079f80     libvcruntime:undname.obj
 0003:00001f88       ?pTemplateArgList@UnDecorator@@0PEAVReplicator@@EA 0000000180079f88     libvcruntime:undname.obj
 0003:00001f90       ?gName@UnDecorator@@0PEBDEB 0000000180079f90     libvcruntime:undname.obj
 0003:00001f98       ?name@UnDecorator@@0PEBDEB 0000000180079f98     libvcruntime:undname.obj
 0003:00001fa0       ?disableFlags@UnDecorator@@0KA 0000000180079fa0     libvcruntime:undname.obj
 0003:00001fa4       ?fExplicitTemplateParams@UnDecorator@@0_NA 0000000180079fa4     libvcruntime:undname.obj
 0003:00001fa5       ?fGetTemplateArgumentList@UnDecorator@@0_NA 0000000180079fa5     libvcruntime:undname.obj
 0003:00001fa8       ?m_pGetParameter@UnDecorator@@0P6APEADJ@ZEA 0000000180079fa8     libvcruntime:undname.obj
 0003:00001fb0       ?m_CHPENameOffset@UnDecorator@@0KA 0000000180079fb0     libvcruntime:undname.obj
 0003:00001fb4       ?m_recursionLevel@UnDecorator@@0KA 0000000180079fb4     libvcruntime:undname.obj
 0003:00002028       _nstream                   000000018007a028     libucrt:_file.obj
 0003:00002030       __piob                     000000018007a030     libucrt:_file.obj
 0003:00002038       _cflush                    000000018007a038     libucrt:_file.obj
 0003:00002274       __acrt_lconv_static_null   000000018007a274     libucrt:localeconv.obj
 0003:00002278       __acrt_lconv_static_W_null 000000018007a278     libucrt:localeconv.obj
 0003:00002298       ?c_exit_complete@?1???R<lambda_6e4b09c48022b2350581041d5f6b0c4c>@@QEBA@XZ@4_NA 000000018007a298     libucrt:exit.obj
 0003:000023a8       _environ_table             000000018007a3a8     libucrt:environment_initialization.obj
 0003:000023b0       _wenviron_table            000000018007a3b0     libucrt:environment_initialization.obj
 0003:000023b8       __dcrt_initial_wide_environment 000000018007a3b8     libucrt:environment_initialization.obj
 0003:000023c0       __dcrt_initial_narrow_environment 000000018007a3c0     libucrt:environment_initialization.obj
 0003:000023c8       __acrt_atexit_table        000000018007a3c8     libucrt:onexit.obj
 0003:000023e0       __acrt_at_quick_exit_table 000000018007a3e0     libucrt:onexit.obj
 0003:00002420       __acrt_locale_changed_data 000000018007a420     libucrt:wsetlocale.obj
 0003:00002428       __acrt_current_locale_data 000000018007a428     libucrt:nlsdata.obj
 0003:000025f0       __pioinfo                  000000018007a5f0     libucrt:ioinit.obj
 0003:000029f0       _nhandle                   000000018007a9f0     libucrt:ioinit.obj
 0003:00002a08       __acrt_stdout_buffer       000000018007aa08     libucrt:_sftbuf.obj
 0003:00002a10       __acrt_stderr_buffer       000000018007aa10     libucrt:_sftbuf.obj
 0003:00002a18       __fma3_is_available        000000018007aa18     libucrt:fma3_available.obj
 0003:00002a1c       __use_fma3_lib             000000018007aa1c     libucrt:fma3_available.obj
 0003:00002a20       ?_timezone@@3V?$dual_state_global@J@__crt_state_management@@A 000000018007aa20     libucrt:timeset.obj
 0003:00002a24       ?_daylight@@3V?$dual_state_global@H@__crt_state_management@@A 000000018007aa24     libucrt:timeset.obj
 0003:00002a28       ?_dstbias@@3V?$dual_state_global@J@__crt_state_management@@A 000000018007aa28     libucrt:timeset.obj
 0003:00002b18       _mbctype                   000000018007ab18     libucrt:mbctype.obj
 0003:00002b20       _mbcasemap                 000000018007ab20     libucrt:mbctype.obj
 0003:00002b28       __acrt_current_multibyte_data 000000018007ab28     libucrt:mbctype.obj
 0003:00002b38       _pgmptr                    000000018007ab38     libucrt:argv_data.obj
 0003:00002b40       __argc                     000000018007ab40     libucrt:argv_data.obj
 0003:00002b48       __argv                     000000018007ab48     libucrt:argv_data.obj
 0003:00002b50       __wargv                    000000018007ab50     libucrt:argv_data.obj
 0003:00002b58       _acmdln                    000000018007ab58     libucrt:argv_data.obj
 0003:00002b60       _wcmdln                    000000018007ab60     libucrt:argv_data.obj
 0003:00002b68       __acrt_heap                000000018007ab68     libucrt:heap_handle.obj
 0003:00002b7c       _commode                   000000018007ab7c     libucrt:ncommode.obj
 0003:00002b88       _umaskval                  000000018007ab88     libucrt:umask.obj
 0003:00002b98       _fmode                     000000018007ab98     libucrt:txtmode.obj
 0003:00002ba0       ?DloadKernel32@@3PEAUHINSTANCE__@@EA 000000018007aba0     DelayImp:delayhlp.obj
 0003:00002ba8       ?DloadAcquireSRWLockExclusive@@3P6AXPEA_K@ZEA 000000018007aba8     DelayImp:delayhlp.obj
 0003:00002bb0       ?DloadReleaseSRWLockExclusive@@3P6AXPEA_K@ZEA 000000018007abb0     DelayImp:delayhlp.obj
 0003:00002bb8       ?DloadSrwLock@@3_KA        000000018007abb8     DelayImp:delayhlp.obj
 0003:00002bc0       ?DloadSectionLockCount@@3KA 000000018007abc0     DelayImp:delayhlp.obj
 0003:00002bc4       ?DloadSectionOldProtection@@3KA 000000018007abc4     DelayImp:delayhlp.obj
 0003:00002bc8       ?DloadSectionCommitPermanent@@3KA 000000018007abc8     DelayImp:delayhlp.obj
 0003:00002bd0       ?_Psave@?$_Facetptr@V?$ctype@D@std@@@std@@2PEBVfacet@locale@2@EB 000000018007abd0     Canvas.obj
 0003:00002bd8       ?pattern_repeat_key@@3PEBU_cairo_user_data_key@@EB 000000018007abd8     CanvasPattern.obj
 0003:00002be0       ?constructor@ImageBackend@@2V?$Persistent@VFunctionTemplate@v8@@V?$NonCopyablePersistentTraits@VFunctionTemplate@v8@@@2@@Nan@@A 000000018007abe0     ImageBackend.obj
 0003:00002be8       ?constructor@PdfBackend@@2V?$Persistent@VFunctionTemplate@v8@@V?$NonCopyablePersistentTraits@VFunctionTemplate@v8@@@2@@Nan@@A 000000018007abe8     PdfBackend.obj
 0003:00002bf0       ?constructor@SvgBackend@@2V?$Persistent@VFunctionTemplate@v8@@V?$NonCopyablePersistentTraits@VFunctionTemplate@v8@@@2@@Nan@@A 000000018007abf0     SvgBackend.obj
 0003:00002bf8       ?font_face_list@@3V?$vector@VFontFace@@V?$allocator@VFontFace@@@std@@@std@@A 000000018007abf8     Canvas.obj
 0003:00002c10       ?constructor@Canvas@@2V?$Persistent@VFunctionTemplate@v8@@V?$NonCopyablePersistentTraits@VFunctionTemplate@v8@@@2@@Nan@@A 000000018007ac10     Canvas.obj
 0003:00002c18       ?constructor@Gradient@@2V?$Persistent@VFunctionTemplate@v8@@V?$NonCopyablePersistentTraits@VFunctionTemplate@v8@@@2@@Nan@@A 000000018007ac18     CanvasGradient.obj
 0003:00002c20       ?constructor@Pattern@@2V?$Persistent@VFunctionTemplate@v8@@V?$NonCopyablePersistentTraits@VFunctionTemplate@v8@@@2@@Nan@@A 000000018007ac20     CanvasPattern.obj
 0003:00002c28       ?_parseFont@Context2d@@2V?$Persistent@VFunction@v8@@V?$NonCopyablePersistentTraits@VFunction@v8@@@2@@Nan@@A 000000018007ac28     CanvasRenderingContext2d.obj
 0003:00002c30       ?_DOMMatrix@Context2d@@2V?$Persistent@VFunction@v8@@V?$NonCopyablePersistentTraits@VFunction@v8@@@2@@Nan@@A 000000018007ac30     CanvasRenderingContext2d.obj
 0003:00002c38       ?constructor@Context2d@@2V?$Persistent@VFunctionTemplate@v8@@V?$NonCopyablePersistentTraits@VFunctionTemplate@v8@@@2@@Nan@@A 000000018007ac38     CanvasRenderingContext2d.obj
 0003:00002c50       ?constructor@Image@@2V?$Persistent@VFunctionTemplate@v8@@V?$NonCopyablePersistentTraits@VFunctionTemplate@v8@@@2@@Nan@@A 000000018007ac50     Image.obj
 0003:00002c58       ?constructor@ImageData@@2V?$Persistent@VFunctionTemplate@v8@@V?$NonCopyablePersistentTraits@VFunctionTemplate@v8@@@2@@Nan@@A 000000018007ac58     ImageData.obj
 0003:00002c60       ?_OptionsStorage@?1??__local_stdio_printf_options@@9@4_KA 000000018007ac60     color.obj
 0003:00002c70       __dyn_tls_init_callback    000000018007ac70     <common>
 0003:00002c78       __scrt_ucrt_dll_is_in_use  000000018007ac78     <common>

 entry point at        0001:0002a194

 Static symbols

 0000:fff7d000       .debug$S                   0000000180000000     canvas.exp
 0000:fff7d000       .debug$S                   0000000180000000     gdi32:GDI32.dll
 0000:fff7d000       .debug$S                   0000000180000000     kernel32:KERNEL32.dll
 0000:fff7d000       .debug$S                   0000000180000000     kernel32:KERNEL32.dll
 0000:fff7d000       .debug$S                   0000000180000000     kernel32:KERNEL32.dll
 0000:fff7d000       .debug$S                   0000000180000000     kernel32:KERNEL32.dll
 0000:fff7d000       .debug$S                   0000000180000000     kernel32:KERNEL32.dll
 0000:fff7d000       .debug$S                   0000000180000000     kernel32:KERNEL32.dll
 0000:fff7d000       .debug$S                   0000000180000000     kernel32:KERNEL32.dll
 0000:fff7d000       .debug$S                   0000000180000000     kernel32:KERNEL32.dll
 0000:fff7d000       .debug$S                   0000000180000000     kernel32:KERNEL32.dll
 0000:fff7d000       .debug$S                   0000000180000000     kernel32:KERNEL32.dll
 0000:fff7d000       .debug$S                   0000000180000000     kernel32:KERNEL32.dll
 0000:fff7d000       .debug$S                   0000000180000000     kernel32:KERNEL32.dll
 0000:fff7d000       .debug$S                   0000000180000000     kernel32:KERNEL32.dll
 0000:fff7d000       .debug$S                   0000000180000000     kernel32:KERNEL32.dll
 0000:fff7d000       .debug$S                   0000000180000000     kernel32:KERNEL32.dll
 0000:fff7d000       .debug$S                   0000000180000000     kernel32:KERNEL32.dll
 0000:fff7d000       .debug$S                   0000000180000000     kernel32:KERNEL32.dll
 0000:fff7d000       .debug$S                   0000000180000000     kernel32:KERNEL32.dll
 0000:fff7d000       .debug$S                   0000000180000000     kernel32:KERNEL32.dll
 0000:fff7d000       .debug$S                   0000000180000000     kernel32:KERNEL32.dll
 0000:fff7d000       .debug$S                   0000000180000000     kernel32:KERNEL32.dll
 0000:fff7d000       .debug$S                   0000000180000000     kernel32:KERNEL32.dll
 0000:fff7d000       .debug$S                   0000000180000000     kernel32:KERNEL32.dll
 0000:fff7d000       .debug$S                   0000000180000000     kernel32:KERNEL32.dll
 0000:fff7d000       .debug$S                   0000000180000000     kernel32:KERNEL32.dll
 0000:fff7d000       .debug$S                   0000000180000000     kernel32:KERNEL32.dll
 0000:fff7d000       .debug$S                   0000000180000000     kernel32:KERNEL32.dll
 0000:fff7d000       .debug$S                   0000000180000000     kernel32:KERNEL32.dll
 0000:fff7d000       .debug$S                   0000000180000000     kernel32:KERNEL32.dll
 0000:fff7d000       .debug$S                   0000000180000000     kernel32:KERNEL32.dll
 0000:fff7d000       .debug$S                   0000000180000000     kernel32:KERNEL32.dll
 0000:fff7d000       .debug$S                   0000000180000000     kernel32:KERNEL32.dll
 0000:fff7d000       .debug$S                   0000000180000000     kernel32:KERNEL32.dll
 0000:fff7d000       .debug$S                   0000000180000000     kernel32:KERNEL32.dll
 0000:fff7d000       .debug$S                   0000000180000000     kernel32:KERNEL32.dll
 0000:fff7d000       .debug$S                   0000000180000000     kernel32:KERNEL32.dll
 0000:fff7d000       .debug$S                   0000000180000000     kernel32:KERNEL32.dll
 0000:fff7d000       .debug$S                   0000000180000000     kernel32:KERNEL32.dll
 0000:fff7d000       .debug$S                   0000000180000000     kernel32:KERNEL32.dll
 0000:fff7d000       .debug$S                   0000000180000000     kernel32:KERNEL32.dll
 0000:fff7d000       .debug$S                   0000000180000000     kernel32:KERNEL32.dll
 0000:fff7d000       .debug$S                   0000000180000000     kernel32:KERNEL32.dll
 0000:fff7d000       .debug$S                   0000000180000000     kernel32:KERNEL32.dll
 0000:fff7d000       .debug$S                   0000000180000000     kernel32:KERNEL32.dll
 0000:fff7d000       .debug$S                   0000000180000000     kernel32:KERNEL32.dll
 0000:fff7d000       .debug$S                   0000000180000000     kernel32:KERNEL32.dll
 0000:fff7d000       .debug$S                   0000000180000000     kernel32:KERNEL32.dll
 0000:fff7d000       .debug$S                   0000000180000000     kernel32:KERNEL32.dll
 0000:fff7d000       .debug$S                   0000000180000000     kernel32:KERNEL32.dll
 0000:fff7d000       .debug$S                   0000000180000000     kernel32:KERNEL32.dll
 0000:fff7d000       .debug$S                   0000000180000000     kernel32:KERNEL32.dll
 0000:fff7d000       .debug$S                   0000000180000000     kernel32:KERNEL32.dll
 0000:fff7d000       .debug$S                   0000000180000000     kernel32:KERNEL32.dll
 0000:fff7d000       .debug$S                   0000000180000000     kernel32:KERNEL32.dll
 0000:fff7d000       .debug$S                   0000000180000000     kernel32:KERNEL32.dll
 0000:fff7d000       .debug$S                   0000000180000000     kernel32:KERNEL32.dll
 0000:fff7d000       .debug$S                   0000000180000000     kernel32:KERNEL32.dll
 0000:fff7d000       .debug$S                   0000000180000000     kernel32:KERNEL32.dll
 0000:fff7d000       .debug$S                   0000000180000000     kernel32:KERNEL32.dll
 0000:fff7d000       .debug$S                   0000000180000000     kernel32:KERNEL32.dll
 0000:fff7d000       .debug$S                   0000000180000000     kernel32:KERNEL32.dll
 0000:fff7d000       .debug$S                   0000000180000000     kernel32:KERNEL32.dll
 0000:fff7d000       .debug$S                   0000000180000000     kernel32:KERNEL32.dll
 0000:fff7d000       .debug$S                   0000000180000000     kernel32:KERNEL32.dll
 0000:fff7d000       .debug$S                   0000000180000000     kernel32:KERNEL32.dll
 0000:fff7d000       .debug$S                   0000000180000000     kernel32:KERNEL32.dll
 0000:fff7d000       .debug$S                   0000000180000000     kernel32:KERNEL32.dll
 0000:fff7d000       .debug$S                   0000000180000000     kernel32:KERNEL32.dll
 0000:fff7d000       .debug$S                   0000000180000000     kernel32:KERNEL32.dll
 0000:fff7d000       .debug$S                   0000000180000000     kernel32:KERNEL32.dll
 0000:fff7d000       .debug$S                   0000000180000000     kernel32:KERNEL32.dll
 0000:fff7d000       .debug$S                   0000000180000000     kernel32:KERNEL32.dll
 0000:fff7d000       .debug$S                   0000000180000000     kernel32:KERNEL32.dll
 0000:fff7d000       .debug$S                   0000000180000000     kernel32:KERNEL32.dll
 0000:fff7d000       .debug$S                   0000000180000000     kernel32:KERNEL32.dll
 0000:fff7d000       .debug$S                   0000000180000000     kernel32:KERNEL32.dll
 0000:fff7d000       .debug$S                   0000000180000000     kernel32:KERNEL32.dll
 0000:fff7d000       .debug$S                   0000000180000000     kernel32:KERNEL32.dll
 0000:fff7d000       .debug$S                   0000000180000000     kernel32:KERNEL32.dll
 0000:fff7d000       .debug$S                   0000000180000000     kernel32:KERNEL32.dll
 0000:fff7d000       .debug$S                   0000000180000000     kernel32:KERNEL32.dll
 0000:fff7d000       .debug$S                   0000000180000000     kernel32:KERNEL32.dll
 0000:fff7d000       .debug$S                   0000000180000000     kernel32:KERNEL32.dll
 0000:fff7d000       .debug$S                   0000000180000000     kernel32:KERNEL32.dll
 0000:fff7d000       .debug$S                   0000000180000000     kernel32:KERNEL32.dll
 0000:fff7d000       .debug$S                   0000000180000000     kernel32:KERNEL32.dll
 0000:fff7d000       .debug$S                   0000000180000000     kernel32:KERNEL32.dll
 0000:fff7d000       .debug$S                   0000000180000000     kernel32:KERNEL32.dll
 0000:fff7d000       .debug$S                   0000000180000000     kernel32:KERNEL32.dll
 0000:fff7d000       .debug$S                   0000000180000000     kernel32:KERNEL32.dll
 0000:fff7d000       .debug$S                   0000000180000000     kernel32:KERNEL32.dll
 0000:fff7d000       .debug$S                   0000000180000000     kernel32:KERNEL32.dll
 0000:fff7d000       .debug$S                   0000000180000000     kernel32:KERNEL32.dll
 0000:fff7d000       .debug$S                   0000000180000000     kernel32:KERNEL32.dll
 0000:fff7d000       .debug$S                   0000000180000000     kernel32:KERNEL32.dll
 0000:fff7d000       .debug$S                   0000000180000000     kernel32:KERNEL32.dll
 0000:fff7d000       .debug$S                   0000000180000000     kernel32:KERNEL32.dll
 0000:fff7d000       .debug$S                   0000000180000000     kernel32:KERNEL32.dll
 0000:fff7d000       .debug$S                   0000000180000000     kernel32:KERNEL32.dll
 0000:fff7d000       .debug$S                   0000000180000000     kernel32:KERNEL32.dll
 0000:fff7d000       .debug$S                   0000000180000000     kernel32:KERNEL32.dll
 0000:fff7d000       .debug$S                   0000000180000000     kernel32:KERNEL32.dll
 0000:fff7d000       .debug$S                   0000000180000000     kernel32:KERNEL32.dll
 0000:fff7d000       .debug$S                   0000000180000000     kernel32:KERNEL32.dll
 0000:fff7d000       .debug$S                   0000000180000000     kernel32:KERNEL32.dll
 0000:fff7d000       .debug$S                   0000000180000000     node:node.exe
 0000:fff7d000       .debug$S                   0000000180000000     node:node.exe
 0000:fff7d000       .debug$S                   0000000180000000     node:node.exe
 0000:fff7d000       .debug$S                   0000000180000000     node:node.exe
 0000:fff7d000       .debug$S                   0000000180000000     node:node.exe
 0000:fff7d000       .debug$S                   0000000180000000     node:node.exe
 0000:fff7d000       .debug$S                   0000000180000000     node:node.exe
 0000:fff7d000       .debug$S                   0000000180000000     node:node.exe
 0000:fff7d000       .debug$S                   0000000180000000     node:node.exe
 0000:fff7d000       .debug$S                   0000000180000000     node:node.exe
 0000:fff7d000       .debug$S                   0000000180000000     node:node.exe
 0000:fff7d000       .debug$S                   0000000180000000     node:node.exe
 0000:fff7d000       .debug$S                   0000000180000000     node:node.exe
 0000:fff7d000       .debug$S                   0000000180000000     node:node.exe
 0000:fff7d000       .debug$S                   0000000180000000     node:node.exe
 0000:fff7d000       .debug$S                   0000000180000000     node:node.exe
 0000:fff7d000       .debug$S                   0000000180000000     node:node.exe
 0000:fff7d000       .debug$S                   0000000180000000     node:node.exe
 0000:fff7d000       .debug$S                   0000000180000000     node:node.exe
 0000:fff7d000       .debug$S                   0000000180000000     node:node.exe
 0000:fff7d000       .debug$S                   0000000180000000     node:node.exe
 0000:fff7d000       .debug$S                   0000000180000000     node:node.exe
 0000:fff7d000       .debug$S                   0000000180000000     node:node.exe
 0000:fff7d000       .debug$S                   0000000180000000     node:node.exe
 0000:fff7d000       .debug$S                   0000000180000000     node:node.exe
 0000:fff7d000       .debug$S                   0000000180000000     node:node.exe
 0000:fff7d000       .debug$S                   0000000180000000     node:node.exe
 0000:fff7d000       .debug$S                   0000000180000000     node:node.exe
 0000:fff7d000       .debug$S                   0000000180000000     node:node.exe
 0000:fff7d000       .debug$S                   0000000180000000     node:node.exe
 0000:fff7d000       .debug$S                   0000000180000000     node:node.exe
 0000:fff7d000       .debug$S                   0000000180000000     node:node.exe
 0000:fff7d000       .debug$S                   0000000180000000     node:node.exe
 0000:fff7d000       .debug$S                   0000000180000000     node:node.exe
 0000:fff7d000       .debug$S                   0000000180000000     node:node.exe
 0000:fff7d000       .debug$S                   0000000180000000     node:node.exe
 0000:fff7d000       .debug$S                   0000000180000000     node:node.exe
 0000:fff7d000       .debug$S                   0000000180000000     node:node.exe
 0000:fff7d000       .debug$S                   0000000180000000     node:node.exe
 0000:fff7d000       .debug$S                   0000000180000000     node:node.exe
 0000:fff7d000       .debug$S                   0000000180000000     node:node.exe
 0000:fff7d000       .debug$S                   0000000180000000     node:node.exe
 0000:fff7d000       .debug$S                   0000000180000000     node:node.exe
 0000:fff7d000       .debug$S                   0000000180000000     node:node.exe
 0000:fff7d000       .debug$S                   0000000180000000     node:node.exe
 0000:fff7d000       .debug$S                   0000000180000000     node:node.exe
 0000:fff7d000       .debug$S                   0000000180000000     node:node.exe
 0000:fff7d000       .debug$S                   0000000180000000     node:node.exe
 0000:fff7d000       .debug$S                   0000000180000000     node:node.exe
 0000:fff7d000       .debug$S                   0000000180000000     node:node.exe
 0000:fff7d000       .debug$S                   0000000180000000     node:node.exe
 0000:fff7d000       .debug$S                   0000000180000000     node:node.exe
 0000:fff7d000       .debug$S                   0000000180000000     node:node.exe
 0000:fff7d000       .debug$S                   0000000180000000     node:node.exe
 0000:fff7d000       .debug$S                   0000000180000000     node:node.exe
 0000:fff7d000       .debug$S                   0000000180000000     node:node.exe
 0000:fff7d000       .debug$S                   0000000180000000     node:node.exe
 0000:fff7d000       .debug$S                   0000000180000000     node:node.exe
 0000:fff7d000       .debug$S                   0000000180000000     node:node.exe
 0000:fff7d000       .debug$S                   0000000180000000     node:node.exe
 0000:fff7d000       .debug$S                   0000000180000000     node:node.exe
 0000:fff7d000       .debug$S                   0000000180000000     node:node.exe
 0000:fff7d000       .debug$S                   0000000180000000     node:node.exe
 0000:fff7d000       .debug$S                   0000000180000000     node:node.exe
 0000:fff7d000       .debug$S                   0000000180000000     node:node.exe
 0000:fff7d000       .debug$S                   0000000180000000     node:node.exe
 0000:fff7d000       .debug$S                   0000000180000000     node:node.exe
 0000:fff7d000       .debug$S                   0000000180000000     node:node.exe
 0000:fff7d000       .debug$S                   0000000180000000     node:node.exe
 0000:fff7d000       .debug$S                   0000000180000000     node:node.exe
 0000:fff7d000       .debug$S                   0000000180000000     node:node.exe
 0000:fff7d000       .debug$S                   0000000180000000     node:node.exe
 0000:fff7d000       .debug$S                   0000000180000000     node:node.exe
 0000:fff7d000       .debug$S                   0000000180000000     node:node.exe
 0000:fff7d000       .debug$S                   0000000180000000     node:node.exe
 0000:fff7d000       .debug$S                   0000000180000000     node:node.exe
 0000:fff7d000       .debug$S                   0000000180000000     node:node.exe
 0000:fff7d000       .debug$S                   0000000180000000     node:node.exe
 0000:fff7d000       .debug$S                   0000000180000000     node:node.exe
 0000:fff7d000       .debug$S                   0000000180000000     node:node.exe
 0000:fff7d000       .debug$S                   0000000180000000     node:node.exe
 0000:fff7d000       .debug$S                   0000000180000000     node:node.exe
 0000:fff7d000       .debug$S                   0000000180000000     node:node.exe
 0000:fff7d000       .debug$S                   0000000180000000     node:node.exe
 0000:fff7d000       .debug$S                   0000000180000000     node:node.exe
 0000:fff7d000       .debug$S                   0000000180000000     node:node.exe
 0000:fff7d000       .debug$S                   0000000180000000     node:node.exe
 0000:fff7d000       .debug$S                   0000000180000000     node:node.exe
 0000:fff7d000       .debug$S                   0000000180000000     node:node.exe
 0000:fff7d000       .debug$S                   0000000180000000     node:node.exe
 0000:fff7d000       .debug$S                   0000000180000000     node:node.exe
 0000:fff7d000       .debug$S                   0000000180000000     node:node.exe
 0000:fff7d000       .debug$S                   0000000180000000     node:node.exe
 0000:fff7d000       .debug$S                   0000000180000000     node:node.exe
 0000:fff7d000       .debug$S                   0000000180000000     node:node.exe
 0000:fff7d000       .debug$S                   0000000180000000     node:node.exe
 0000:fff7d000       .debug$S                   0000000180000000     node:node.exe
 0000:fff7d000       .debug$S                   0000000180000000     node:node.exe
 0000:fff7d000       .debug$S                   0000000180000000     node:node.exe
 0000:fff7d000       .debug$S                   0000000180000000     node:node.exe
 0000:fff7d000       .debug$S                   0000000180000000     node:node.exe
 0000:fff7d000       .debug$S                   0000000180000000     node:node.exe
 0000:fff7d000       .debug$S                   0000000180000000     node:node.exe
 0000:fff7d000       .debug$S                   0000000180000000     node:node.exe
 0000:fff7d000       .debug$S                   0000000180000000     node:node.exe
 0000:fff7d000       .debug$S                   0000000180000000     node:node.exe
 0000:fff7d000       .debug$S                   0000000180000000     node:node.exe
 0000:fff7d000       .debug$S                   0000000180000000     node:node.exe
 0000:fff7d000       .debug$S                   0000000180000000     node:node.exe
 0000:fff7d000       .debug$S                   0000000180000000     node:node.exe
 0000:fff7d000       .debug$S                   0000000180000000     node:node.exe
 0000:fff7d000       .debug$S                   0000000180000000     node:node.exe
 0000:fff7d000       .debug$S                   0000000180000000     node:node.exe
 0000:fff7d000       .debug$S                   0000000180000000     node:node.exe
 0000:fff7d000       .debug$S                   0000000180000000     node:node.exe
 0000:fff7d000       .debug$S                   0000000180000000     node:node.exe
 0000:fff7d000       .debug$S                   0000000180000000     node:node.exe
 0000:fff7d000       .debug$S                   0000000180000000     node:node.exe
 0000:fff7d000       .debug$S                   0000000180000000     node:node.exe
 0000:fff7d000       .debug$S                   0000000180000000     node:node.exe
 0000:fff7d000       .debug$S                   0000000180000000     node:node.exe
 0000:fff7d000       .debug$S                   0000000180000000     node:node.exe
 0000:fff7d000       .debug$S                   0000000180000000     node:node.exe
 0000:fff7d000       .debug$S                   0000000180000000     node:node.exe
 0001:00000000       .text                      0000000180001000     libcairo-2:dugks01146.o
 0001:00000008       .text                      0000000180001008     libcairo-2:dugks01137.o
 0001:00000010       .text                      0000000180001010     libcairo-2:dugks01179.o
 0001:00000018       .text                      0000000180001018     libcairo-2:dugks00939.o
 0001:00000020       .text                      0000000180001020     libcairo-2:dugks00946.o
 0001:00000028       .text                      0000000180001028     libcairo-2:dugks01147.o
 0001:00000030       .text                      0000000180001030     libcairo-2:dugks00943.o
 0001:00000038       .text                      0000000180001038     libcairo-2:dugks01021.o
 0001:00000040       .text                      0000000180001040     libcairo-2:dugks01017.o
 0001:00000048       .text                      0000000180001048     libcairo-2:dugks01186.o
 0001:00000050       .text                      0000000180001050     libcairo-2:dugks00944.o
 0001:00000058       .text                      0000000180001058     libcairo-2:dugks00854.o
 0001:00000060       .text                      0000000180001060     libcairo-2:dugks00945.o
 0001:00000068       .text                      0000000180001068     libcairo-2:dugks01148.o
 0001:00000070       .text                      0000000180001070     libcairo-2:dugks01019.o
 0001:00000078       .text                      0000000180001078     libcairo-2:dugks01121.o
 0001:00000080       .text                      0000000180001080     libcairo-2:dugks00947.o
 0001:00000088       .text                      0000000180001088     libcairo-2:dugks00851.o
 0001:00000090       .text                      0000000180001090     libcairo-2:dugks00987.o
 0001:00000098       .text                      0000000180001098     libcairo-2:dugks00991.o
 0001:000000a0       .text                      00000001800010a0     libcairo-2:dugks00989.o
 0001:000000a8       .text                      00000001800010a8     libcairo-2:dugks00995.o
 0001:000000b0       .text                      00000001800010b0     libcairo-2:dugks01012.o
 0001:000000b8       .text                      00000001800010b8     libcairo-2:dugks01007.o
 0001:000000c0       .text                      00000001800010c0     libcairo-2:dugks00988.o
 0001:000000c8       .text                      00000001800010c8     libcairo-2:dugks00984.o
 0001:000000d0       .text                      00000001800010d0     libcairo-2:dugks00949.o
 0001:000000d8       .text                      00000001800010d8     libcairo-2:dugks01124.o
 0001:000000e0       .text                      00000001800010e0     libcairo-2:dugks01000.o
 0001:000000e8       .text                      00000001800010e8     libcairo-2:dugks01162.o
 0001:000000f0       .text                      00000001800010f0     libcairo-2:dugks01084.o
 0001:000000f8       .text                      00000001800010f8     libcairo-2:dugks00924.o
 0001:00000100       .text                      0000000180001100     libcairo-2:dugks00842.o
 0001:00000108       .text                      0000000180001108     libcairo-2:dugks01140.o
 0001:00000110       .text                      0000000180001110     libcairo-2:dugks01052.o
 0001:00000118       .text                      0000000180001118     libcairo-2:dugks01120.o
 0001:00000120       .text                      0000000180001120     libcairo-2:dugks00999.o
 0001:00000128       .text                      0000000180001128     libcairo-2:dugks01129.o
 0001:00000130       .text                      0000000180001130     libcairo-2:dugks01136.o
 0001:00000138       .text                      0000000180001138     libcairo-2:dugks00875.o
 0001:00000140       .text                      0000000180001140     libcairo-2:dugks01119.o
 0001:00000148       .text                      0000000180001148     libcairo-2:dugks00929.o
 0001:00000150       .text                      0000000180001150     libcairo-2:dugks00954.o
 0001:00000158       .text                      0000000180001158     libcairo-2:dugks01010.o
 0001:00000160       .text                      0000000180001160     libcairo-2:dugks00876.o
 0001:00000168       .text                      0000000180001168     libcairo-2:dugks01133.o
 0001:00000170       .text                      0000000180001170     libcairo-2:dugks01082.o
 0001:00000178       .text                      0000000180001178     libcairo-2:dugks00951.o
 0001:00000180       .text                      0000000180001180     libcairo-2:dugks01114.o
 0001:00000188       .text                      0000000180001188     libcairo-2:dugks00982.o
 0001:00000190       .text                      0000000180001190     libcairo-2:dugks01037.o
 0001:00000198       .text                      0000000180001198     libcairo-2:dugks01138.o
 0001:000001a0       .text                      00000001800011a0     libcairo-2:dugks00979.o
 0001:000001a8       .text                      00000001800011a8     libcairo-2:dugks00921.o
 0001:000001b0       .text                      00000001800011b0     libcairo-2:dugks01009.o
 0001:000001b8       .text                      00000001800011b8     libcairo-2:dugks00926.o
 0001:000001c0       .text                      00000001800011c0     libcairo-2:dugks00912.o
 0001:000001c8       .text                      00000001800011c8     libcairo-2:dugks01128.o
 0001:000001d0       .text                      00000001800011d0     libcairo-2:dugks00850.o
 0001:000001d8       .text                      00000001800011d8     libcairo-2:dugks01126.o
 0001:000001e0       .text                      00000001800011e0     libcairo-2:dugks01085.o
 0001:000001e8       .text                      00000001800011e8     libcairo-2:dugks01217.o
 0001:000001f0       .text                      00000001800011f0     libcairo-2:dugks00996.o
 0001:000001f8       .text                      00000001800011f8     libcairo-2:dugks01122.o
 0001:00000200       .text                      0000000180001200     libcairo-2:dugks01161.o
 0001:00000208       .text                      0000000180001208     libcairo-2:dugks00877.o
 0001:00000210       .text                      0000000180001210     libcairo-2:dugks01005.o
 0001:00000218       .text                      0000000180001218     libcairo-2:dugks01083.o
 0001:00000220       .text                      0000000180001220     libcairo-2:dugks01139.o
 0001:00000228       .text                      0000000180001228     libcairo-2:dugks00955.o
 0001:00000230       .text                      0000000180001230     libcairo-2:dugks01025.o
 0001:00000238       .text                      0000000180001238     libcairo-2:dugks00914.o
 0001:00000240       .text                      0000000180001240     libcairo-2:dugks00925.o
 0001:00000248       .text                      0000000180001248     libcairo-2:dugks00997.o
 0001:00000250       .text                      0000000180001250     libcairo-2:dugks00840.o
 0001:00000258       .text                      0000000180001258     libcairo-2:dugks00980.o
 0001:00000260       .text                      0000000180001260     libcairo-2:dugks00938.o
 0001:00000268       .text                      0000000180001268     libcairo-2:dugks00922.o
 0001:00000270       .text                      0000000180001270     libcairo-2:dugks00950.o
 0001:00000278       .text                      0000000180001278     libcairo-2:dugks00983.o
 0001:00000280       .text                      0000000180001280     libcairo-2:dugks01112.o
 0001:00000288       .text                      0000000180001288     libcairo-2:dugks00915.o
 0001:00000290       .text                      0000000180001290     libcairo-2:dugks01113.o
 0001:00000298       .text                      0000000180001298     libcairo-2:dugks01205.o
 0001:000002a0       .text                      00000001800012a0     libcairo-2:dugks00846.o
 0001:000002a8       .text                      00000001800012a8     libcairo-2:dugks00841.o
 0001:000002b0       .text                      00000001800012b0     libcairo-2:dugks00923.o
 0001:000002b8       .text                      00000001800012b8     libcairo-2:dugks01006.o
 0001:000002c0       .text                      00000001800012c0     libcairo-2:dugks00845.o
 0001:000002c8       .text                      00000001800012c8     libcairo-2:dugks01123.o
 0001:000002d0       .text                      00000001800012d0     libcairo-2:dugks00913.o
 0001:000002d8       .text                      00000001800012d8     libcairo-2:dugks01206.o
 0001:000002e0       .text                      00000001800012e0     libcairo-2:dugks01002.o
 0001:000002e8       .text                      00000001800012e8     libcairo-2:dugks00852.o
 0001:000002f0       .text                      00000001800012f0     libcairo-2:dugks00903.o
 0001:000002f8       .text                      00000001800012f8     libcairo-2:dugks00941.o
 0001:00000300       .text                      0000000180001300     libcairo-2:dugks00942.o
 0001:00000308       .text                      0000000180001308     libcairo-2:dugks00940.o
 0001:00000310       .text                      0000000180001310     libcairo-2:dugks01176.o
 0001:00000318       .text                      0000000180001318     libcairo-2:dugks01219.o
 0001:00000320       .text                      0000000180001320     libpng16-16:dodcs00019.o
 0001:00000328       .text                      0000000180001328     libpng16-16:dodcs00155.o
 0001:00000330       .text                      0000000180001330     libpng16-16:dodcs00247.o
 0001:00000338       .text                      0000000180001338     libpng16-16:dodcs00233.o
 0001:00000340       .text                      0000000180001340     libpng16-16:dodcs00204.o
 0001:00000348       .text                      0000000180001348     libpng16-16:dodcs00198.o
 0001:00000350       .text                      0000000180001350     libpng16-16:dodcs00129.o
 0001:00000358       .text                      0000000180001358     libpng16-16:dodcs00058.o
 0001:00000360       .text                      0000000180001360     libpng16-16:dodcs00260.o
 0001:00000368       .text                      0000000180001368     libpng16-16:dodcs00206.o
 0001:00000370       .text                      0000000180001370     libpng16-16:dodcs00259.o
 0001:00000378       .text                      0000000180001378     libpng16-16:dodcs00044.o
 0001:00000380       .text                      0000000180001380     libpng16-16:dodcs00205.o
 0001:00000388       .text                      0000000180001388     libpng16-16:dodcs00150.o
 0001:00000390       .text                      0000000180001390     libpng16-16:dodcs00181.o
 0001:00000398       .text                      0000000180001398     libpng16-16:dodcs00016.o
 0001:000003a0       .text                      00000001800013a0     libpng16-16:dodcs00168.o
 0001:000003a8       .text                      00000001800013a8     libpng16-16:dodcs00149.o
 0001:000003b0       .text                      00000001800013b0     libpng16-16:dodcs00245.o
 0001:000003b8       .text                      00000001800013b8     libpng16-16:dodcs00011.o
 0001:000003c0       .text                      00000001800013c0     libpng16-16:dodcs00180.o
 0001:000003c8       .text                      00000001800013c8     libpng16-16:dodcs00255.o
 0001:000003d0       .text                      00000001800013d0     libpng16-16:dodcs00020.o
 0001:000003d8       .text                      00000001800013d8     libpng16-16:dodcs00015.o
 0001:000003e0       .text                      00000001800013e0     libjpeg-8:dghgs00091.o
 0001:000003e8       .text                      00000001800013e8     libjpeg-8:dghgs00090.o
 0001:000003f0       .text                      00000001800013f0     libjpeg-8:dghgs00029.o
 0001:000003f8       .text                      00000001800013f8     libjpeg-8:dghgs00096.o
 0001:00000400       .text                      0000000180001400     libjpeg-8:dghgs00046.o
 0001:00000408       .text                      0000000180001408     libjpeg-8:dghgs00087.o
 0001:00000410       .text                      0000000180001410     libjpeg-8:dghgs00052.o
 0001:00000418       .text                      0000000180001418     libjpeg-8:dghgs00106.o
 0001:00000420       .text                      0000000180001420     libjpeg-8:dghgs00093.o
 0001:00000428       .text                      0000000180001428     libjpeg-8:dghgs00030.o
 0001:00000430       .text                      0000000180001430     libjpeg-8:dghgs00047.o
 0001:00000438       .text                      0000000180001438     libjpeg-8:dghgs00080.o
 0001:00000440       .text                      0000000180001440     libjpeg-8:dghgs00094.o
 0001:00000448       .text                      0000000180001448     libjpeg-8:dghgs00098.o
 0001:00000450       .text                      0000000180001450     libjpeg-8:dghgs00053.o
 0001:00000458       .text                      0000000180001458     libjpeg-8:dghgs00033.o
 0001:00000460       .text                      0000000180001460     libjpeg-8:dghgs00074.o
 0001:00000468       .text                      0000000180001468     libjpeg-8:dghgs00083.o
 0001:00000470       .text                      0000000180001470     libpango-1.0-0:dymis00121.o
 0001:00000478       .text                      0000000180001478     libpango-1.0-0:dymis00148.o
 0001:00000480       .text                      0000000180001480     libpango-1.0-0:dymis00152.o
 0001:00000488       .text                      0000000180001488     libpango-1.0-0:dymis00124.o
 0001:00000490       .text                      0000000180001490     libpango-1.0-0:dymis00141.o
 0001:00000498       .text                      0000000180001498     libpango-1.0-0:dymis00125.o
 0001:000004a0       .text                      00000001800014a0     libpango-1.0-0:dymis00127.o
 0001:000004a8       .text                      00000001800014a8     libpango-1.0-0:dymis00143.o
 0001:000004b0       .text                      00000001800014b0     libpango-1.0-0:dymis00122.o
 0001:000004b8       .text                      00000001800014b8     libpango-1.0-0:dymis00275.o
 0001:000004c0       .text                      00000001800014c0     libpango-1.0-0:dymis00082.o
 0001:000004c8       .text                      00000001800014c8     libpango-1.0-0:dymis00340.o
 0001:000004d0       .text                      00000001800014d0     libpango-1.0-0:dymis00270.o
 0001:000004d8       .text                      00000001800014d8     libpango-1.0-0:dymis00274.o
 0001:000004e0       .text                      00000001800014e0     libpango-1.0-0:dymis00325.o
 0001:000004e8       .text                      00000001800014e8     libpango-1.0-0:dymis00126.o
 0001:000004f0       .text                      00000001800014f0     libpango-1.0-0:dymis00288.o
 0001:000004f8       .text                      00000001800014f8     libpango-1.0-0:dymis00142.o
 0001:00000500       .text                      0000000180001500     libpango-1.0-0:dymis00080.o
 0001:00000508       .text                      0000000180001508     libpango-1.0-0:dymis00201.o
 0001:00000510       .text                      0000000180001510     libpango-1.0-0:dymis00268.o
 0001:00000518       .text                      0000000180001518     libpango-1.0-0:dymis00350.o
 0001:00000520       .text                      0000000180001520     libpango-1.0-0:dymis00280.o
 0001:00000528       .text                      0000000180001528     libpango-1.0-0:dymis00191.o
 0001:00000530       .text                      0000000180001530     libpango-1.0-0:dymis00147.o
 0001:00000538       .text                      0000000180001538     libpango-1.0-0:dymis00144.o
 0001:00000540       .text                      0000000180001540     libpangocairo-1.0-0:dakhs00029.o
 0001:00000548       .text                      0000000180001548     libpangocairo-1.0-0:dakhs00032.o
 0001:00000550       .text                      0000000180001550     libpangocairo-1.0-0:dakhs00024.o
 0001:00000558       .text                      0000000180001558     libpangocairo-1.0-0:dakhs00007.o
 0001:00000560       .text                      0000000180001560     libpangocairo-1.0-0:dakhs00020.o
 0001:00000570       .text                      0000000180001570     libgobject-2.0-0:dyogs00162.o
 0001:00000580       .text                      0000000180001580     libglib-2.0-0:dotds00424.o
 0001:00000588       .text                      0000000180001588     libglib-2.0-0:dotds01258.o
 0001:00000590       .text                      0000000180001590     libglib-2.0-0:dotds00643.o
 0001:00000598       .text                      0000000180001598     libglib-2.0-0:dotds00642.o
 0001:000005a0       .text                      00000001800015a0     libglib-2.0-0:dotds00525.o
 0001:000005a8       .text                      00000001800015a8     libglib-2.0-0:dotds00523.o
 0001:000005b0       .text                      00000001800015b0     libglib-2.0-0:dotds00651.o
 0001:000005b8       .text                      00000001800015b8     libglib-2.0-0:dotds00644.o
 0001:000005c0       .text                      00000001800015c0     libgif-7:deybs00014.o
 0001:000005c8       .text                      00000001800015c8     libgif-7:deybs00018.o
 0001:000005d0       .text                      00000001800015d0     libgif-7:deybs00000.o
 0001:000005e0       .text                      00000001800015e0     libfreetype-6:dmuhs00087.o
 0001:000005e8       .text                      00000001800015e8     libfreetype-6:dmuhs00126.o
 0001:000005f0       .text                      00000001800015f0     libfreetype-6:dmuhs00035.o
 0001:000005f8       .text                      00000001800015f8     libfreetype-6:dmuhs00034.o
 0001:00000600       .text                      0000000180001600     libfreetype-6:dmuhs00086.o
 0001:00000608       .text                      0000000180001608     libfreetype-6:dmuhs00107.o
 0001:00000610       .text                      0000000180001610     libfreetype-6:dmuhs00085.o
 0001:00000620       .text                      0000000180001620     librsvg-2-2:dugcs00034.o
 0001:00000628       .text                      0000000180001628     librsvg-2-2:dugcs00028.o
 0001:00000630       .text                      0000000180001630     librsvg-2-2:dugcs00014.o
 0001:00000640       ??__E?constructor@ImageBackend@@2V?$Persistent@VFunctionTemplate@v8@@V?$NonCopyablePersistentTraits@VFunctionTemplate@v8@@@2@@Nan@@A@@YAXXZ 0000000180001640 f   ImageBackend.obj
 0001:00000650       ??__E?constructor@PdfBackend@@2V?$Persistent@VFunctionTemplate@v8@@V?$NonCopyablePersistentTraits@VFunctionTemplate@v8@@@2@@Nan@@A@@YAXXZ 0000000180001650 f   PdfBackend.obj
 0001:00000660       ??__E?constructor@SvgBackend@@2V?$Persistent@VFunctionTemplate@v8@@V?$NonCopyablePersistentTraits@VFunctionTemplate@v8@@@2@@Nan@@A@@YAXXZ 0000000180001660 f   SvgBackend.obj
 0001:00000670       ??__E?constructor@Canvas@@2V?$Persistent@VFunctionTemplate@v8@@V?$NonCopyablePersistentTraits@VFunctionTemplate@v8@@@2@@Nan@@A@@YAXXZ 0000000180001670 f   Canvas.obj
 0001:00000680       ??__Efont_face_list@@YAXXZ 0000000180001680 f   Canvas.obj
 0001:00000690       ??__E?constructor@Gradient@@2V?$Persistent@VFunctionTemplate@v8@@V?$NonCopyablePersistentTraits@VFunctionTemplate@v8@@@2@@Nan@@A@@YAXXZ 0000000180001690 f   CanvasGradient.obj
 0001:000006a0       ??__E?constructor@Pattern@@2V?$Persistent@VFunctionTemplate@v8@@V?$NonCopyablePersistentTraits@VFunctionTemplate@v8@@@2@@Nan@@A@@YAXXZ 00000001800016a0 f   CanvasPattern.obj
 0001:000006b0       ??__E?constructor@Context2d@@2V?$Persistent@VFunctionTemplate@v8@@V?$NonCopyablePersistentTraits@VFunctionTemplate@v8@@@2@@Nan@@A@@YAXXZ 00000001800016b0 f   CanvasRenderingContext2d.obj
 0001:000006c0       ??__E?_DOMMatrix@Context2d@@2V?$Persistent@VFunction@v8@@V?$NonCopyablePersistentTraits@VFunction@v8@@@2@@Nan@@A@@YAXXZ 00000001800016c0 f   CanvasRenderingContext2d.obj
 0001:000006d0       ??__E?_parseFont@Context2d@@2V?$Persistent@VFunction@v8@@V?$NonCopyablePersistentTraits@VFunction@v8@@@2@@Nan@@A@@YAXXZ 00000001800016d0 f   CanvasRenderingContext2d.obj
 0001:000006e0       ??__Enamed_colors@@YAXXZ   00000001800016e0 f   color.obj
 0001:000021b0       ??__E?constructor@Image@@2V?$Persistent@VFunctionTemplate@v8@@V?$NonCopyablePersistentTraits@VFunctionTemplate@v8@@@2@@Nan@@A@@YAXXZ 00000001800031b0 f   Image.obj
 0001:000021c0       ??__E?constructor@ImageData@@2V?$Persistent@VFunctionTemplate@v8@@V?$NonCopyablePersistentTraits@VFunctionTemplate@v8@@@2@@Nan@@A@@YAXXZ 00000001800031c0 f   ImageData.obj
 0001:000021cc       ??__Einitlocks@std@@YAXXZ  00000001800031cc f   libcpmt:xlock.obj
 0001:000021ec       ??__Eclassic_locale@std@@YAXXZ 00000001800031ec f   libcpmt:locale0.obj
 0001:000021f8       ??__F_Fac_tidy_reg@std@@YAXXZ 00000001800031f8 f   libcpmt:locale0.obj
 0001:00002204       ??__Einitlocks@std@@YAXXZ  0000000180003204 f   libcpmt:iosptrs.obj
 0001:00002224       ??__Finit_atexit@@YAXXZ    0000000180003224 f   libcpmt:iosptrs.obj
 0001:00002290       ?canvas_png_flush@@YAXPEAUpng_struct_def@@@Z 0000000180003290 f i Canvas.obj
 0001:00002fa0       ?FunctionCallbackWrapper@imp@Nan@@YAXAEBV?$FunctionCallbackInfo@VValue@v8@@@v8@@@Z 0000000180003fa0 f   CanvasRenderingContext2d.obj
 0001:00002fa0       ?FunctionCallbackWrapper@imp@Nan@@YAXAEBV?$FunctionCallbackInfo@VValue@v8@@@v8@@@Z 0000000180003fa0 f   ImageBackend.obj
 0001:0000701c       $LN2737                    000000018000801c     BMPParser.obj
 0001:00007038       $LN2736                    0000000180008038     BMPParser.obj
 0001:000085c0       ?GetterCallbackWrapper@imp@Nan@@YAXV?$Local@VName@v8@@@v8@@AEBV?$PropertyCallbackInfo@VValue@v8@@@4@@Z 00000001800095c0 f   Canvas.obj
 0001:000086b0       ?SetterCallbackWrapper@imp@Nan@@YAXV?$Local@VName@v8@@@v8@@V?$Local@VValue@v8@@@4@AEBV?$PropertyCallbackInfo@X@4@@Z 00000001800096b0 f   Canvas.obj
 0001:00008bf0       ?canvas_convert_data_to_bytes@@YAXPEAUpng_struct_def@@PEAUpng_row_info_struct@@PEAE@Z 0000000180009bf0 f   Canvas.obj
 0001:00008c30       ?canvas_unpremultiply_data@@YAXPEAUpng_struct_def@@PEAUpng_row_info_struct@@PEAE@Z 0000000180009c30 f   Canvas.obj
 0001:00008cf0       ?canvas_convert_565_to_888@@YAXPEAUpng_struct_def@@PEAUpng_row_info_struct@@PEAE@Z 0000000180009cf0 f   Canvas.obj
 0001:00008dc0       ?canvas_write_png@@YA?AW4_cairo_status@@PEAU_cairo_surface@@P6AXPEAUpng_struct_def@@PEAE_K@ZPEAUcanvas_png_write_closure_t@@@Z 0000000180009dc0 f   Canvas.obj
 0001:00009250       ?canvas_stream_write_func@@YAXPEAUpng_struct_def@@PEAE_K@Z 000000018000a250 f   Canvas.obj
 0001:0000bda0       ?parsePNGArgs@@YAXV?$Local@VValue@v8@@@v8@@AEAUPngClosure@@@Z 000000018000cda0 f   Canvas.obj
 0001:0000c380       ?parseJPEGArgs@@YAXV?$Local@VValue@v8@@@v8@@AEAUJpegClosure@@@Z 000000018000d380 f   Canvas.obj
 0001:0000c7e0       ?setPdfMetaStr@@YAXPEAU_cairo_surface@@V?$Local@VObject@v8@@@v8@@W4_cairo_pdf_metadata@@PEBD@Z 000000018000d7e0 f   Canvas.obj
 0001:0000c910       ?setPdfMetaDate@@YAXPEAU_cairo_surface@@V?$Local@VObject@v8@@@v8@@W4_cairo_pdf_metadata@@PEBD@Z 000000018000d910 f   Canvas.obj
 0001:0000ca50       ?setPdfMetadata@@YAXPEAVCanvas@@V?$Local@VObject@v8@@@v8@@@Z 000000018000da50 f   Canvas.obj
 0001:0000d880       ?streamPNG@@YA?AW4_cairo_status@@PEAXPEBEI@Z 000000018000e880 f   Canvas.obj
 0001:0000df40       ?streamPDF@@YA?AW4_cairo_status@@PEAXPEBEI@Z 000000018000ef40 f   Canvas.obj
 0001:00010460       no_op_initialize           0000000180011460 f i libucrt:wsetlocale.obj
 0001:00012ea0       ?checkArgs@@YA_NAEBV?$FunctionCallbackInfo@VValue@v8@@@Nan@@PEANHH@Z 0000000180013ea0 f   CanvasRenderingContext2d.obj
 0001:00018a68       $LN73                      0000000180019a68     CanvasRenderingContext2d.obj
 0001:00021770       ?h@@YAHD@Z                 0000000180022770 f   color.obj
 0001:000217ac       $LN9                       00000001800227ac     color.obj
 0001:000217bc       $LN8                       00000001800227bc     color.obj
 0001:00021920       ?hue_to_rgb@@YAMMMM@Z      0000000180022920 f   color.obj
 0001:000219a0       ?rgba_from_hsla@@YAHMMMM@Z 00000001800229a0 f   color.obj
 0001:00021b10       ?rgba_from_rgb_string@@YAHPEBDPEAF@Z 0000000180022b10 f   color.obj
 0001:00021d50       ?rgba_from_rgba_string@@YAHPEBDPEAF@Z 0000000180022d50 f   color.obj
 0001:00022020       ?rgba_from_hsla_string@@YAHPEBDPEAF@Z 0000000180023020 f   color.obj
 0001:00022250       ?rgba_from_hex_string@@YAHPEBDPEAF@Z 0000000180023250 f   color.obj
 0001:00022480       ?rgba_from_name_string@@YAHPEBDPEAF@Z 0000000180023480 f   color.obj
 0001:00022a40       ??$parse_css_number@M@@YA_NPEAPEBDPEAM@Z 0000000180023a40 f   color.obj
 0001:000258e0       ?canvas_jpeg_error_exit@@YAXPEAUjpeg_common_struct@@@Z 00000001800268e0 f   Image.obj
 0001:00025900       ?canvas_jpeg_output_message@@YAXPEAUjpeg_common_struct@@@Z 0000000180026900 f   Image.obj
 0001:000265f0       ?_Delete_this@?$_Func_impl_no_alloc@V<lambda_1d54cf6722de1de10813d61413cb9df7>@@IPEAE@std@@EEAAX_N@Z 00000001800275f0 f   Image.obj
 0001:000265f0       ?_Delete_this@?$_Func_impl_no_alloc@V<lambda_cc2c74106362f3cb9f8d4764b8a79817>@@IPEAE@std@@EEAAX_N@Z 00000001800275f0 f   Image.obj
 0001:000265f0       ?_Delete_this@?$_Func_impl_no_alloc@V<lambda_fa095885220f4ba8fd6d128d87a974a5>@@IPEAE@std@@EEAAX_N@Z 00000001800275f0 f   Image.obj
 0001:00026600       ?_Get@?$_Func_impl_no_alloc@V<lambda_1d54cf6722de1de10813d61413cb9df7>@@IPEAE@std@@EEBAPEBXXZ 0000000180027600 f   Image.obj
 0001:00026600       ?_Get@?$_Func_impl_no_alloc@V<lambda_cc2c74106362f3cb9f8d4764b8a79817>@@IPEAE@std@@EEBAPEBXXZ 0000000180027600 f   Image.obj
 0001:00026600       ?_Get@?$_Func_impl_no_alloc@V<lambda_fa095885220f4ba8fd6d128d87a974a5>@@IPEAE@std@@EEBAPEBXXZ 0000000180027600 f   Image.obj
 0001:00026610       ?_Target_type@?$_Func_impl_no_alloc@V<lambda_cc2c74106362f3cb9f8d4764b8a79817>@@IPEAE@std@@EEBAAEBVtype_info@@XZ 0000000180027610 f   Image.obj
 0001:00026620       ?_Do_call@?$_Func_impl_no_alloc@V<lambda_cc2c74106362f3cb9f8d4764b8a79817>@@IPEAE@std@@EEAAI$$QEAPEAE@Z 0000000180027620 f   Image.obj
 0001:00026640       ?_Copy@?$_Func_impl_no_alloc@V<lambda_cc2c74106362f3cb9f8d4764b8a79817>@@IPEAE@std@@EEBAPEAV?$_Func_base@IPEAE@2@PEAX@Z 0000000180027640 f   Image.obj
 0001:00026640       ?_Move@?$_Func_impl_no_alloc@V<lambda_cc2c74106362f3cb9f8d4764b8a79817>@@IPEAE@std@@EEAAPEAV?$_Func_base@IPEAE@2@PEAX@Z 0000000180027640 f   Image.obj
 0001:00026650       ?_Target_type@?$_Func_impl_no_alloc@V<lambda_1d54cf6722de1de10813d61413cb9df7>@@IPEAE@std@@EEBAAEBVtype_info@@XZ 0000000180027650 f   Image.obj
 0001:00026660       ?_Do_call@?$_Func_impl_no_alloc@V<lambda_1d54cf6722de1de10813d61413cb9df7>@@IPEAE@std@@EEAAI$$QEAPEAE@Z 0000000180027660 f   Image.obj
 0001:00026690       ?_Copy@?$_Func_impl_no_alloc@V<lambda_1d54cf6722de1de10813d61413cb9df7>@@IPEAE@std@@EEBAPEAV?$_Func_base@IPEAE@2@PEAX@Z 0000000180027690 f   Image.obj
 0001:00026690       ?_Move@?$_Func_impl_no_alloc@V<lambda_1d54cf6722de1de10813d61413cb9df7>@@IPEAE@std@@EEAAPEAV?$_Func_base@IPEAE@2@PEAX@Z 0000000180027690 f   Image.obj
 0001:000266a0       ?_Target_type@?$_Func_impl_no_alloc@V<lambda_fa095885220f4ba8fd6d128d87a974a5>@@IPEAE@std@@EEBAAEBVtype_info@@XZ 00000001800276a0 f   Image.obj
 0001:000266b0       ?_Do_call@?$_Func_impl_no_alloc@V<lambda_fa095885220f4ba8fd6d128d87a974a5>@@IPEAE@std@@EEAAI$$QEAPEAE@Z 00000001800276b0 f   Image.obj
 0001:00026710       ?_Copy@?$_Func_impl_no_alloc@V<lambda_fa095885220f4ba8fd6d128d87a974a5>@@IPEAE@std@@EEBAPEAV?$_Func_base@IPEAE@2@PEAX@Z 0000000180027710 f   Image.obj
 0001:00026710       ?_Move@?$_Func_impl_no_alloc@V<lambda_fa095885220f4ba8fd6d128d87a974a5>@@IPEAE@std@@EEAAPEAV?$_Func_base@IPEAE@2@PEAX@Z 0000000180027710 f   Image.obj
 0001:00027960       _register_canvas           0000000180028960 f   init.obj
 0001:00027dbc       $LN43                      0000000180028dbc     register_font.obj
 0001:00027de0       ?load_exe_hook@@YAP6A_JXZIPEAUDelayLoadInfo@@@Z 0000000180028de0 f   win_delay_load_hook.obj
 0001:00028bd4       tidy_global                0000000180029bd4 f   libcpmt:locale0.obj
 0001:000293d4       ?initialize_pointers@@YAHXZ 000000018002a3d4 f   libcpmt:winapisupp.obj
 0001:00029970       $$000000                   000000018002a970     LIBCMT:amdsecgs.obj
 0001:00029e74       ?dllmain_crt_dispatch@@YAHQEAUHINSTANCE__@@KQEAX@Z 000000018002ae74 f   LIBCMT:dll_dllmain.obj
 0001:00029ec4       ?dllmain_crt_process_attach@@YAHQEAUHINSTANCE__@@QEAX@Z 000000018002aec4 f   LIBCMT:dll_dllmain.obj
 0001:00029fdc       ?dllmain_crt_process_detach@@YAH_N@Z 000000018002afdc f   LIBCMT:dll_dllmain.obj
 0001:0002a060       ?dllmain_dispatch@@YAHQEAUHINSTANCE__@@KQEAX@Z 000000018002b060 f   LIBCMT:dll_dllmain.obj
 0001:0002a2d0       $$000000                   000000018002b2d0     LIBCMT:chkstk.obj
 0001:0002a4ec       capture_current_context    000000018002b4ec f   LIBCMT:gs_report.obj
 0001:0002a55c       capture_previous_context   000000018002b55c f   LIBCMT:gs_report.obj
 0001:0002bc30       $$000000                   000000018002cc30     libvcruntime:memcpy.obj
 0001:0002c040       $$000000                   000000018002d040     libvcruntime:memchr.obj
 0001:0002c0c0       $$000000                   000000018002d0c0     libvcruntime:memset.obj
 0001:0002c280       $$000000                   000000018002d280     libvcruntime:memcmp.obj
 0001:0002c9e8       ??$BuildCatchObjectHelperInternal@V__FrameHandler3@@@@YAHPEAUEHExceptionRecord@@PEAXPEBU_s_HandlerType@@PEBU_s_CatchableType@@@Z 000000018002d9e8 f   libvcruntime:frame.obj
 0001:0002cbe8       ??$BuildCatchObjectHelperInternal@V__FrameHandler4@@@@YAHPEAUEHExceptionRecord@@PEAXPEAUHandlerType4@FH4@@PEBU_s_CatchableType@@@Z 000000018002dbe8 f   libvcruntime:frame.obj
 0001:0002cdec       ??$BuildCatchObjectInternal@V__FrameHandler3@@@@YAXPEAUEHExceptionRecord@@PEAXPEBU_s_HandlerType@@PEBU_s_CatchableType@@@Z 000000018002ddec f   libvcruntime:frame.obj
 0001:0002ceac       ??$BuildCatchObjectInternal@V__FrameHandler4@@@@YAXPEAUEHExceptionRecord@@PEAXPEAUHandlerType4@FH4@@PEBU_s_CatchableType@@@Z 000000018002deac f   libvcruntime:frame.obj
 0001:0002cf70       ??$CatchIt@V__FrameHandler3@@@@YAXPEAUEHExceptionRecord@@PEA_KPEAU_CONTEXT@@PEAU_xDISPATCHER_CONTEXT@@PEBU_s_FuncInfo@@PEBU_s_HandlerType@@PEBU_s_CatchableType@@PEBU_s_TryBlockMapEntry@@H1EE@Z 000000018002df70 f   libvcruntime:frame.obj
 0001:0002d044       ??$CatchIt@V__FrameHandler4@@@@YAXPEAUEHExceptionRecord@@PEA_KPEAU_CONTEXT@@PEAU_xDISPATCHER_CONTEXT@@PEAUFuncInfo4@FH4@@PEAUHandlerType4@4@PEBU_s_CatchableType@@PEAUTryBlockMapEntry4@4@H1EE@Z 000000018002e044 f   libvcruntime:frame.obj
 0001:0002d118       ??$FindHandler@V__FrameHandler3@@@@YAXPEAUEHExceptionRecord@@PEA_KPEAU_CONTEXT@@PEAU_xDISPATCHER_CONTEXT@@PEBU_s_FuncInfo@@EH1@Z 000000018002e118 f   libvcruntime:frame.obj
 0001:0002d608       ??$FindHandler@V__FrameHandler4@@@@YAXPEAUEHExceptionRecord@@PEA_KPEAU_CONTEXT@@PEAU_xDISPATCHER_CONTEXT@@PEAUFuncInfo4@FH4@@EH1@Z 000000018002e608 f   libvcruntime:frame.obj
 0001:0002db18       ??$FindHandlerForForeignException@V__FrameHandler3@@@@YAXPEAUEHExceptionRecord@@PEA_KPEAU_CONTEXT@@PEAU_xDISPATCHER_CONTEXT@@PEBU_s_FuncInfo@@HH1@Z 000000018002eb18 f   libvcruntime:frame.obj
 0001:0002dd30       ??$FindHandlerForForeignException@V__FrameHandler4@@@@YAXPEAUEHExceptionRecord@@PEA_KPEAU_CONTEXT@@PEAU_xDISPATCHER_CONTEXT@@PEAUFuncInfo4@FH4@@HH1@Z 000000018002ed30 f   libvcruntime:frame.obj
 0001:0002eee4       ?ExFilterRethrow@@YAHPEAU_EXCEPTION_POINTERS@@PEAUEHExceptionRecord@@PEAH@Z 000000018002fee4 f   libvcruntime:frame.obj
 0001:0002ef6c       ?ExFilterRethrowFH4@@YAHPEAU_EXCEPTION_POINTERS@@PEAUEHExceptionRecord@@HPEAH@Z 000000018002ff6c f   libvcruntime:frame.obj
 0001:0002f4a8       ?IsInExceptionSpec@@YAEPEAUEHExceptionRecord@@PEBU_s_ESTypeList@@@Z 00000001800304a8 f   libvcruntime:frame.obj
 0001:0002f598       ?Is_bad_exception_allowed@@YAEPEBU_s_ESTypeList@@@Z 0000000180030598 f   libvcruntime:frame.obj
 0001:0002f970       $$000000                   0000000180030970     libvcruntime:notify.obj
 0001:0002f9b4       ?try_get_function@@YAPEAXW4function_id@?A0x84e3c32f@@QEBDQEBW4module_id@2@2@Z 00000001800309b4 f   libvcruntime:winapi_downlevel.obj
 0001:0002fc90       $$000000                   0000000180030c90     libvcruntime:handlers.obj
 0001:00030044       ??$common_assert_to_message_box@_W@@YAXQEB_W0IQEAX@Z 0000000180031044 f   libucrt:assert.obj
 0001:00030108       ??$common_assert_to_message_box_build_string@_W@@YAXQEA_W_KQEB_W2IQEAX@Z 0000000180031108 f   libucrt:assert.obj
 0001:0003060c       ??$common_assert_to_stderr@_W@@YAXQEB_W0I@Z 000000018003160c f   libucrt:assert.obj
 0001:0003077c       ?get_assert_format@@YAPEB_W_W@Z 000000018003177c f   libucrt:assert.obj
 0001:000310d4       ??$common_gmtime_s@_J@@YAHQEAUtm@@QEB_J@Z 00000001800320d4 f   libucrt:gmtime.obj
 0001:0003126c       ?compute_year@@YAHAEA_JAEA_N@Z 000000018003226c f   libucrt:gmtime.obj
 0001:00031674       ??$?RV<lambda_676bd5779251ec186b530f0a904b4b35>@@AEAV<lambda_b579ea784fd840951dfbcbdaebf709fd>@@V<lambda_10027885da78ada7fb00668d7e2e96b5>@@@?$__crt_seh_guarded_call@H@@QEAAH$$QEAV<lambda_676bd5779251ec186b530f0a904b4b35>@@AEAV<lambda_b579ea784fd840951dfbcbdaebf709fd>@@$$QEAV<lambda_10027885da78ada7fb00668d7e2e96b5>@@@Z 0000000180032674 f   libucrt:output.obj
 0001:000316b4       ??$common_vsprintf@Vstandard_base@__crt_stdio_output@@D@@YAH_KQEAD0QEBDQEAU__crt_locale_pointers@@1@Z 00000001800326b4 f   libucrt:output.obj
 0001:00031880       ??$common_vsprintf@Vstandard_base@__crt_stdio_output@@_W@@YAH_KQEA_W0QEB_WQEAU__crt_locale_pointers@@QEAD@Z 0000000180032880 f   libucrt:output.obj
 0001:00031fcc       ??R<lambda_b579ea784fd840951dfbcbdaebf709fd>@@QEBAHXZ 0000000180032fcc f   libucrt:output.obj
 0001:00033858       $LN17                      0000000180034858     libucrt:output.obj
 0001:00034924       ??$common_ftell@J@@YAJV__crt_stdio_stream@@@Z 0000000180035924 f   libucrt:ftell.obj
 0001:00034994       ??$common_ftell_nolock@_J@@YA_JV__crt_stdio_stream@@@Z 0000000180035994 f   libucrt:ftell.obj
 0001:00034ac4       ?common_ftell_read_mode_nolock@@YA_JV__crt_stdio_stream@@_J1@Z 0000000180035ac4 f   libucrt:ftell.obj
 0001:00034c10       ?common_ftell_translated_utf8_nolock@@YA_JV__crt_stdio_stream@@_J@Z 0000000180035c10 f   libucrt:ftell.obj
 0001:00034d8c       ?count_newline_bytes@@YA_JQEBD0W4__crt_lowio_text_mode@@@Z 0000000180035d8c f   libucrt:ftell.obj
 0001:00034e20       ??$common_fsopen@D@@YAPEAU_iobuf@@QEBD0H@Z 0000000180035e20 f   libucrt:fopen.obj
 0001:00034fd0       ?common_fseek@@YAHV__crt_stdio_stream@@_JH@Z 0000000180035fd0 f   libucrt:fseek.obj
 0001:0003503c       ?common_fseek_binary_mode_read_only_fast_track_nolock@@YA_NV__crt_stdio_stream@@_JH@Z 000000018003603c f   libucrt:fseek.obj
 0001:00035120       ?common_fseek_nolock@@YAHV__crt_stdio_stream@@_JH@Z 0000000180036120 f   libucrt:fseek.obj
 0001:000356a4       ??$?RV<lambda_3a04bfe258a31910a526c90b4d849d20>@@AEAV<lambda_1b3ad63c02abf531fe15530b52bade31>@@V<lambda_1755787d260f86bf828f8bf7552b2658>@@@?$__crt_seh_guarded_call@H@@QEAAH$$QEAV<lambda_3a04bfe258a31910a526c90b4d849d20>@@AEAV<lambda_1b3ad63c02abf531fe15530b52bade31>@@$$QEAV<lambda_1755787d260f86bf828f8bf7552b2658>@@@Z 00000001800366a4 f   libucrt:stat.obj
 0001:00035748       ??$common_stat_handle_file_opened@U_stat64i32@@@@YA_NQEB_WHQEAXAEAU_stat64i32@@@Z 0000000180036748 f   libucrt:stat.obj
 0001:000358f0       ??$convert_filetime_to_time_t@_J@@YA_JU_FILETIME@@_J@Z 00000001800368f0 f   libucrt:stat.obj
 0001:00035988       ?convert_to_stat_mode@@YAGHQEB_W@Z 0000000180036988 f   libucrt:stat.obj
 0001:00035ac4       ?get_drive_number_from_path@@YA_NQEB_WAEAH@Z 0000000180036ac4 f   libucrt:stat.obj
 0001:00035df0       ??$?RV<lambda_e9ce07acdb0b138e546925ae9f1a2c9c>@@AEAV<lambda_2116bde18c9e5f34230805ea4a4660ed>@@V<lambda_5d037afbfc54bf1ca80d3d1ee4062886>@@@?$__crt_seh_guarded_call@PEAD@@QEAAPEAD$$QEAV<lambda_e9ce07acdb0b138e546925ae9f1a2c9c>@@AEAV<lambda_2116bde18c9e5f34230805ea4a4660ed>@@$$QEAV<lambda_5d037afbfc54bf1ca80d3d1ee4062886>@@@Z 0000000180036df0 f   libucrt:setlocale.obj
 0001:00035e30       ??R<lambda_2116bde18c9e5f34230805ea4a4660ed>@@QEBAPEADXZ 0000000180036e30 f   libucrt:setlocale.obj
 0001:00036ea4       memcpy_s                   0000000180037ea4 f   libucrt:cfout.obj
 0001:00036ea4       memcpy_s                   0000000180037ea4 f   libucrt:strtod.obj
 0001:00036f30       $$000000                   0000000180037f30     libucrt:pow.obj
 0001:000385d0       $$000000                   00000001800395d0     libucrt:powf.obj
 0001:000394b0       ?compute_iso_week_internal@@YAHHHH@Z 000000018003a4b0 f   libucrt:wcsftime.obj
 0001:000395a4       ?expand_time@@YA_NPEAU__crt_locale_pointers@@_WPEBUtm@@PEAPEA_WPEA_KPEBU__crt_lc_time_data@@_N@Z 000000018003a5a4 f   libucrt:wcsftime.obj
 0001:0003a494       ?store_number@@YAXHHQEAPEA_WQEA_K_W@Z 000000018003b494 f   libucrt:wcsftime.obj
 0001:0003a5d4       ?store_winword@@YA_NQEAU__crt_locale_pointers@@HQEBUtm@@QEAPEA_WQEA_KQEBU__crt_lc_time_data@@@Z 000000018003b5d4 f   libucrt:wcsftime.obj
 0001:0003b230       ??$?RV<lambda_d80eeec6fff315bfe5c115232f3240e3>@@AEAV<lambda_6e4b09c48022b2350581041d5f6b0c4c>@@V<lambda_2358e3775559c9db80273638284d5e45>@@@?$__crt_seh_guarded_call@X@@QEAAX$$QEAV<lambda_d80eeec6fff315bfe5c115232f3240e3>@@AEAV<lambda_6e4b09c48022b2350581041d5f6b0c4c>@@$$QEAV<lambda_2358e3775559c9db80273638284d5e45>@@@Z 000000018003c230 f   libucrt:exit.obj
 0001:0003b268       ??R<lambda_6e4b09c48022b2350581041d5f6b0c4c>@@QEBA@XZ 000000018003c268 f   libucrt:exit.obj
 0001:0003b32c       ?atexit_exception_filter@@YAHK@Z 000000018003c32c f   libucrt:exit.obj
 0001:0003b338       ?common_exit@@YAXHW4_crt_exit_cleanup_mode@@W4_crt_exit_return_mode@@@Z 000000018003c338 f   libucrt:exit.obj
 0001:0003b3f4       ?exit_or_terminate_process@@YAXI@Z 000000018003c3f4 f   libucrt:exit.obj
 0001:0003b440       ?try_cor_exit_process@@YAXI@Z 000000018003c440 f   libucrt:exit.obj
 0001:0003b4c8       ??$parse_command_line@D@@YAXPEADPEAPEAD0PEA_K2@Z 000000018003c4c8 f   libucrt:argv_parsing.obj
 0001:0003b870       ??$common_initialize_environment_nolock@D@@YAHXZ 000000018003c870 f   libucrt:environment_initialization.obj
 0001:0003b8dc       ??$common_initialize_environment_nolock@_W@@YAHXZ 000000018003c8dc f   libucrt:environment_initialization.obj
 0001:0003b944       ??$create_environment@D@@YAQEAPEADQEAD@Z 000000018003c944 f   libucrt:environment_initialization.obj
 0001:0003ba4c       ??$create_environment@_W@@YAQEAPEA_WQEA_W@Z 000000018003ca4c f   libucrt:environment_initialization.obj
 0001:0003bb60       ??$free_environment@D@@YAXQEAPEAD@Z 000000018003cb60 f   libucrt:environment_initialization.obj
 0001:0003bb60       ??$free_environment@_W@@YAXQEAPEA_W@Z 000000018003cb60 f   libucrt:environment_initialization.obj
 0001:0003bba4       ??$initialize_environment_by_cloning_nolock@_W@@YAHXZ 000000018003cba4 f   libucrt:environment_initialization.obj
 0001:0003bc58       ??$uninitialize_environment_internal@D@@YAXAEAPEAPEAD@Z 000000018003cc58 f   libucrt:environment_initialization.obj
 0001:0003bc74       ??$uninitialize_environment_internal@_W@@YAXAEAPEAPEA_W@Z 000000018003cc74 f   libucrt:environment_initialization.obj
 0001:0003bd0c       ??$?RV<lambda_638799b9deba96c50f710eeac98168cd>@@AEAV<lambda_22ebabd17bc4fa466a2aca6d8deb888d>@@V<lambda_a6f7d7db0129f75315ebf26d50c089f1>@@@?$__crt_seh_guarded_call@H@@QEAAH$$QEAV<lambda_638799b9deba96c50f710eeac98168cd>@@AEAV<lambda_22ebabd17bc4fa466a2aca6d8deb888d>@@$$QEAV<lambda_a6f7d7db0129f75315ebf26d50c089f1>@@@Z 000000018003cd0c f   libucrt:onexit.obj
 0001:0003bd48       ??$?RV<lambda_7777bce6b2f8c936911f934f8298dc43>@@AEAV<lambda_f03950bc5685219e0bcd2087efbe011e>@@V<lambda_3883c3dff614d5e0c5f61bb1ac94921c>@@@?$__crt_seh_guarded_call@H@@QEAAH$$QEAV<lambda_7777bce6b2f8c936911f934f8298dc43>@@AEAV<lambda_f03950bc5685219e0bcd2087efbe011e>@@$$QEAV<lambda_3883c3dff614d5e0c5f61bb1ac94921c>@@@Z 000000018003cd48 f   libucrt:onexit.obj
 0001:0003bd84       ??R<lambda_22ebabd17bc4fa466a2aca6d8deb888d>@@QEBAHXZ 000000018003cd84 f   libucrt:onexit.obj
 0001:0003bf34       ??R<lambda_f03950bc5685219e0bcd2087efbe011e>@@QEBAHXZ 000000018003cf34 f   libucrt:onexit.obj
 0001:0003c108       initialize_global_variables 000000018003d108 f   libucrt:initialization.obj
 0001:0003c11c       initialize_c               000000018003d11c f   libucrt:initialization.obj
 0001:0003c140       initialize_environment     000000018003d140 f   libucrt:initialization.obj
 0001:0003c140       initialize_global_state_isolation 000000018003d140 f   libucrt:initialization.obj
 0001:0003c140       report_memory_leaks        000000018003d140 f   libucrt:initialization.obj
 0001:0003c140       uninitialize_c             000000018003d140 f   libucrt:initialization.obj
 0001:0003c140       uninitialize_global_state_isolation 000000018003d140 f   libucrt:initialization.obj
 0001:0003c144       uninitialize_environment   000000018003d144 f   libucrt:initialization.obj
 0001:0003c154       initialize_pointers        000000018003d154 f   libucrt:initialization.obj
 0001:0003c194       uninitialize_vcruntime     000000018003d194 f   libucrt:initialization.obj
 0001:0003c19c       uninitialize_allocated_memory 000000018003d19c f   libucrt:initialization.obj
 0001:0003c1dc       uninitialize_allocated_io_buffers 000000018003d1dc f   libucrt:initialization.obj
 0001:0003ce60       $$000000                   000000018003de60     libucrt:strncmp.obj
 0001:0003cf1c       ??$?RV<lambda_0ae27a3a962d80f24befdcbee591983d>@@AEAV<lambda_8d0ee55de4b1038c4002e0adecdf1839>@@V<lambda_dc504788e8f1664fe9b84e20bfb512f2>@@@?$__crt_seh_guarded_call@X@@QEAAX$$QEAV<lambda_0ae27a3a962d80f24befdcbee591983d>@@AEAV<lambda_8d0ee55de4b1038c4002e0adecdf1839>@@$$QEAV<lambda_dc504788e8f1664fe9b84e20bfb512f2>@@@Z 000000018003df1c f   libucrt:per_thread_data.obj
 0001:0003cf5c       ??$?RV<lambda_2d41944a1d46af3157314b8a01080d33>@@AEAV<lambda_8f455de75cd7d7f24b4096f044d8b9e6>@@V<lambda_aa500f224e6afead328df44964fe2772>@@@?$__crt_seh_guarded_call@X@@QEAAX$$QEAV<lambda_2d41944a1d46af3157314b8a01080d33>@@AEAV<lambda_8f455de75cd7d7f24b4096f044d8b9e6>@@$$QEAV<lambda_aa500f224e6afead328df44964fe2772>@@@Z 000000018003df5c f   libucrt:per_thread_data.obj
 0001:0003cf9c       ??$?RV<lambda_aa87e3671a710a21b5dc78c0bdf72e11>@@AEAV<lambda_92619d2358a28f41a33ba319515a20b9>@@V<lambda_6992ecaafeb10aed2b74cb1fae11a551>@@@?$__crt_seh_guarded_call@X@@QEAAX$$QEAV<lambda_aa87e3671a710a21b5dc78c0bdf72e11>@@AEAV<lambda_92619d2358a28f41a33ba319515a20b9>@@$$QEAV<lambda_6992ecaafeb10aed2b74cb1fae11a551>@@@Z 000000018003df9c f   libucrt:per_thread_data.obj
 0001:0003cfe4       ??$?RV<lambda_f2e299630e499de9f9a165e60fcd3db5>@@AEAV<lambda_2ae9d31cdba2644fcbeaf08da7c24588>@@V<lambda_40d01ff24d0e7b3814fdbdcee8eab3c7>@@@?$__crt_seh_guarded_call@X@@QEAAX$$QEAV<lambda_f2e299630e499de9f9a165e60fcd3db5>@@AEAV<lambda_2ae9d31cdba2644fcbeaf08da7c24588>@@$$QEAV<lambda_40d01ff24d0e7b3814fdbdcee8eab3c7>@@@Z 000000018003dfe4 f   libucrt:per_thread_data.obj
 0001:0003d044       ?construct_ptd_array@@YAXQEAU__acrt_ptd@@@Z 000000018003e044 f   libucrt:per_thread_data.obj
 0001:0003d114       ?destroy_fls@@YAXPEAX@Z    000000018003e114 f   libucrt:per_thread_data.obj
 0001:0003d134       ?destroy_ptd_array@@YAXQEAU__acrt_ptd@@@Z 000000018003e134 f   libucrt:per_thread_data.obj
 0001:0003d22c       ?replace_current_thread_locale_nolock@@YAXQEAU__acrt_ptd@@QEAU__crt_locale_data@@@Z 000000018003e22c f   libucrt:per_thread_data.obj
 0001:0003d588       ??$common_xtox@K_W@@YAHKQEA_W_KI_N@Z 000000018003e588 f   libucrt:xtoa.obj
 0001:0003d65c       ??$common_xtox_s@K_W@@YAHKQEA_W_KI_N@Z 000000018003e65c f   libucrt:xtoa.obj
 0001:0003da6c       ??$?RV<lambda_842d9ff0dc9ef11c61343bbaebe7f885>@@AEAV<lambda_c5860995281e5c4ce005b3de8f5874ee>@@V<lambda_d90129c13df834fdcbf8d2b88dafcf2d>@@@?$__crt_seh_guarded_call@X@@QEAAX$$QEAV<lambda_842d9ff0dc9ef11c61343bbaebe7f885>@@AEAV<lambda_c5860995281e5c4ce005b3de8f5874ee>@@$$QEAV<lambda_d90129c13df834fdcbf8d2b88dafcf2d>@@@Z 000000018003ea6c f   libucrt:fflush.obj
 0001:0003db08       ??$?RV<lambda_886d6c58226a84441f68b9f2b8217b83>@@AEAV<lambda_ab61a845afdef5b7c387490eaf3616ee>@@V<lambda_f7f22ab5edc0698d5f6905b0d3f44752>@@@?$__crt_seh_guarded_call@X@@QEAAX$$QEAV<lambda_886d6c58226a84441f68b9f2b8217b83>@@AEAV<lambda_ab61a845afdef5b7c387490eaf3616ee>@@$$QEAV<lambda_f7f22ab5edc0698d5f6905b0d3f44752>@@@Z 000000018003eb08 f   libucrt:fflush.obj
 0001:0003dbe8       ??$?RV<lambda_c376a267cfb53b6959b3b692ec76b120>@@AEAV<lambda_9a32fed5bf61b6b509b2d3f6003082a1>@@V<lambda_572fbb9fa0ab338edf41edfd4b5fcc8d>@@@?$__crt_seh_guarded_call@H@@QEAAH$$QEAV<lambda_c376a267cfb53b6959b3b692ec76b120>@@AEAV<lambda_9a32fed5bf61b6b509b2d3f6003082a1>@@$$QEAV<lambda_572fbb9fa0ab338edf41edfd4b5fcc8d>@@@Z 000000018003ebe8 f   libucrt:fflush.obj
 0001:0003dc28       ?common_flush_all@@YAH_N@Z 000000018003ec28 f   libucrt:fflush.obj
 0001:0003ddc0       ??$?RV<lambda_c8e61daa512c69656564d9dbd35486e8>@@AEAV<lambda_b4f66040be5f354a654fb75160c27bfc>@@V<lambda_2ca749746f96040ea1ff4296b14379df>@@@?$__crt_seh_guarded_call@H@@QEAAH$$QEAV<lambda_c8e61daa512c69656564d9dbd35486e8>@@AEAV<lambda_b4f66040be5f354a654fb75160c27bfc>@@$$QEAV<lambda_2ca749746f96040ea1ff4296b14379df>@@@Z 000000018003edc0 f   libucrt:setvbuf.obj
 0001:0003de00       ??R<lambda_b4f66040be5f354a654fb75160c27bfc>@@QEBAHXZ 000000018003ee00 f   libucrt:setvbuf.obj
 0001:0003df80       ??$?RV<lambda_450d765d439847d4c735a33c368b5fc0>@@AEAV<lambda_44731a7d0e6d81c3e6aa82d741081786>@@V<lambda_601a2a7da3b7a96e9554ac7215c4b07c>@@@?$__crt_seh_guarded_call@P6AXH@Z@@QEAAP6AXH@Z$$QEAV<lambda_450d765d439847d4c735a33c368b5fc0>@@AEAV<lambda_44731a7d0e6d81c3e6aa82d741081786>@@$$QEAV<lambda_601a2a7da3b7a96e9554ac7215c4b07c>@@@Z 000000018003ef80 f   libucrt:signal.obj
 0001:0003e2d0       ?__acrt_LCMapStringA_stat@@YAHPEAU__crt_locale_pointers@@PEB_WKPEBDHPEADHHH@Z 000000018003f2d0 f   libucrt:lcmapstringa.obj
 0001:0003e6e8       ??$?RV<lambda_1d892b297fdedeee07ed8124eeb2f2fa>@@AEAV<lambda_ffc046909424fd52df0ac47e64813305>@@V<lambda_01a7098693036236037e7cdb9bca3d73>@@@?$__crt_seh_guarded_call@X@@QEAAX$$QEAV<lambda_1d892b297fdedeee07ed8124eeb2f2fa>@@AEAV<lambda_ffc046909424fd52df0ac47e64813305>@@$$QEAV<lambda_01a7098693036236037e7cdb9bca3d73>@@@Z 000000018003f6e8 f   libucrt:wsetlocale.obj
 0001:0003e824       ??$?RV<lambda_410d79af7f07d98d83a3f525b3859a53>@@AEAV<lambda_3e16ef9562a7dcce91392c22ab16ea36>@@V<lambda_38119f0e861e05405d8a144b9b982f0a>@@@?$__crt_seh_guarded_call@X@@QEAAX$$QEAV<lambda_410d79af7f07d98d83a3f525b3859a53>@@AEAV<lambda_3e16ef9562a7dcce91392c22ab16ea36>@@$$QEAV<lambda_38119f0e861e05405d8a144b9b982f0a>@@@Z 000000018003f824 f   libucrt:wsetlocale.obj
 0001:0003e894       ??$?RV<lambda_e9338f07fe435327d97d4ef86149e64d>@@AEAV<lambda_2a444430fde8c29194d880d93eed5e8f>@@AEAV<lambda_02db5278e8aef8b5e4976579d73f5304>@@@?$__crt_seh_guarded_call@X@@QEAAX$$QEAV<lambda_e9338f07fe435327d97d4ef86149e64d>@@AEAV<lambda_2a444430fde8c29194d880d93eed5e8f>@@AEAV<lambda_02db5278e8aef8b5e4976579d73f5304>@@@Z 000000018003f894 f   libucrt:wsetlocale.obj
 0001:0003e8c0       ??R<lambda_2a444430fde8c29194d880d93eed5e8f>@@QEBA@XZ 000000018003f8c0 f   libucrt:wsetlocale.obj
 0001:0003ec94       _copytlocinfo_nolock       000000018003fc94 f   libucrt:wsetlocale.obj
 0001:0003ed54       _expandlocale              000000018003fd54 f   libucrt:wsetlocale.obj
 0001:0003f2e0       _wsetlocale_get_all        00000001800402e0 f   libucrt:wsetlocale.obj
 0001:0003f4cc       _wsetlocale_nolock         00000001800404cc f   libucrt:wsetlocale.obj
 0001:0003f75c       _wsetlocale_set_cat        000000018004075c f   libucrt:wsetlocale.obj
 0001:0003fab0       parse_bcp47                0000000180040ab0 f   libucrt:wsetlocale.obj
 0001:0003fcb0       parse_bcp47_code_page      0000000180040cb0 f   libucrt:wsetlocale.obj
 0001:0003fcf8       parse_bcp47_language       0000000180040cf8 f   libucrt:wsetlocale.obj
 0001:0003fd84       parse_bcp47_region         0000000180040d84 f   libucrt:wsetlocale.obj
 0001:0003fe8c       parse_bcp47_script         0000000180040e8c f   libucrt:wsetlocale.obj
 0001:0003ff1c       string_is_alpha            0000000180040f1c f   libucrt:wsetlocale.obj
 0001:00040250       _call_matherr              0000000180041250 f   libucrt:libm_error.obj
 0001:000402b8       _exception_enabled         00000001800412b8 f   libucrt:libm_error.obj
 0001:00040674       ?<lambda_invoker_cdecl>@<lambda_795c6bd18aed400428efeb9a5f0e1479>@@CAHPEA_W@Z 0000000180041674 f   libucrt:winapi_thunks.obj
 0001:0004069c       ??$?RV<lambda_48fc4a32460bb0512d3b13f8499328be>@@AEAV<lambda_6c3dac0a4f3f9cefca9bb494422f9b77>@@V<lambda_0a2f2c9f9a56eb2b08bfa6ff61d331c5>@@@?$__crt_seh_guarded_call@H@@QEAAH$$QEAV<lambda_48fc4a32460bb0512d3b13f8499328be>@@AEAV<lambda_6c3dac0a4f3f9cefca9bb494422f9b77>@@$$QEAV<lambda_0a2f2c9f9a56eb2b08bfa6ff61d331c5>@@@Z 000000018004169c f   libucrt:winapi_thunks.obj
 0001:00040718       ?try_get_function@@YAPEAXW4function_id@?A0x391cf84c@@QEBDQEBW4module_id@2@2@Z 0000000180041718 f   libucrt:winapi_thunks.obj
 0001:0004167c       ?initialize_inherited_file_handles_nolock@@YAXXZ 000000018004267c f   libucrt:ioinit.obj
 0001:0004176c       ?initialize_stdio_handles_nolock@@YAXXZ 000000018004276c f   libucrt:ioinit.obj
 0001:00041c84       ?fp_format_a@@YAHQEBNPEAD_KQEAD2H_NIQEAU__crt_locale_pointers@@W4__acrt_rounding_mode@@@Z 0000000180042c84 f   libucrt:cvt.obj
 0001:00042004       ?fp_format_e@@YAHQEBNQEAD_K12H_NIQEAU__crt_locale_pointers@@W4__acrt_rounding_mode@@@Z 0000000180043004 f   libucrt:cvt.obj
 0001:000420f4       ?fp_format_e_internal@@YAHQEAD_KH_NIQEAU_strflt@@2QEAU__crt_locale_pointers@@@Z 00000001800430f4 f   libucrt:cvt.obj
 0001:000422c8       ?fp_format_f_internal@@YAHQEAD_KHQEAU_strflt@@_NQEAU__crt_locale_pointers@@@Z 00000001800432c8 f   libucrt:cvt.obj
 0001:00042430       ?fp_format_g@@YAHQEBNQEAD_K12H_NIW4__acrt_rounding_mode@@QEAU__crt_locale_pointers@@@Z 0000000180043430 f   libucrt:cvt.obj
 0001:00042578       ?should_round_up@@YA_NQEBN_KFW4__acrt_rounding_mode@@@Z 0000000180043578 f   libucrt:cvt.obj
 0001:00042cc0       ??$common_lseek@J@@YAJHJH@Z 0000000180043cc0 f   libucrt:lseek.obj
 0001:00042dac       ??$common_lseek@_J@@YA_JH_JH@Z 0000000180043dac f   libucrt:lseek.obj
 0001:00042e9c       ??$common_lseek_nolock@J@@YAJHJH@Z 0000000180043e9c f   libucrt:lseek.obj
 0001:00042f90       ??$common_lseek_nolock@_J@@YA_JH_JH@Z 0000000180043f90 f   libucrt:lseek.obj
 0001:00043044       ??$translate_text_mode_nolock@_W@@YAHHQEA_W_K@Z 0000000180044044 f   libucrt:read.obj
 0001:0004328c       ?translate_ansi_or_utf8_nolock@@YAHHQEAD_KQEA_W1@Z 000000018004428c f   libucrt:read.obj
 0001:00043b94       ?find_or_allocate_unused_stream_nolock@@YA?AV__crt_stdio_stream@@XZ 0000000180044b94 f   libucrt:stream.obj
 0001:00043fe0       ??$?RV<lambda_751a882b2c74d4b022dec766aa51a29a>@@AEAV<lambda_628dfdc04ba53c8bfc02c9951375f3f5>@@V<lambda_f6c7be5f7998530c34de24c7437d6b54>@@@?$__crt_seh_guarded_call@H@@QEAAH$$QEAV<lambda_751a882b2c74d4b022dec766aa51a29a>@@AEAV<lambda_628dfdc04ba53c8bfc02c9951375f3f5>@@$$QEAV<lambda_f6c7be5f7998530c34de24c7437d6b54>@@@Z 0000000180044fe0 f   libucrt:close.obj
 0001:00044b24       ??$common_loctotime_t@_J@@YA_JHHHHHHH@Z 0000000180045b24 f   libucrt:loctotime.obj
 0001:00044d58       ?_mbstowcs_l_helper@@YA_KPEA_WPEBD_KPEAU__crt_locale_pointers@@@Z 0000000180045d58 f   libucrt:mbstowcs.obj
 0001:000450ac       ?_wcstombs_l_helper@@YA_KPEADPEB_W_KPEAU__crt_locale_pointers@@@Z 00000001800460ac f   libucrt:wcstombs.obj
 0001:000455f8       ?InternalGetLocaleInfoA@@YAHQEAU__crt_locale_pointers@@QEB_WKQEADH@Z 00000001800465f8 f   libucrt:getlocaleinfoa.obj
 0001:00046458       ?_isindst_nolock@@YAHQEAUtm@@@Z 0000000180047458 f   libucrt:tzset.obj
 0001:0004674c       ?cvtdate@@YAXW4transition_type@?A0x7639d0b4@@W4date_type@2@HHHHHHHHH@Z 000000018004774c f   libucrt:tzset.obj
 0001:00046944       ?tzset_env_copy_to_tzname@@YAXQEB_WQEA_WQEAD_K@Z 0000000180047944 f   libucrt:tzset.obj
 0001:00046a28       ?tzset_from_environment_nolock@@YAXPEA_W@Z 0000000180047a28 f   libucrt:tzset.obj
 0001:00046cbc       ?tzset_from_system_nolock@@YAXXZ 0000000180047cbc f   libucrt:tzset.obj
 0001:00046e44       ?tzset_nolock@@YAXXZ       0000000180047e44 f   libucrt:tzset.obj
 0001:00046f4c       ?tzset_os_copy_to_tzname@@YAXQEB_WQEA_WQEADI@Z 0000000180047f4c f   libucrt:tzset.obj
 0001:00047138       ?<lambda_invoker_cdecl>@<lambda_a1ce4c8ae42411fd470c77163914f50e>@@CAHPEBX0@Z 0000000180048138 f   libucrt:argv_wildcards.obj
 0001:000472d8       ??$common_expand_argv_wildcards@D@@YAHQEAPEADQEAPEAPEAD@Z 00000001800482d8 f   libucrt:argv_wildcards.obj
 0001:000474e4       ??$copy_and_add_argument_to_buffer@D@@YAHQEBD0_KAEAV?$argument_list@D@?A0x5f5c8891@@@Z 00000001800484e4 f   libucrt:argv_wildcards.obj
 0001:0004766c       ??$expand_argument_wildcards@D@@YAHQEAD0AEAV?$argument_list@D@?A0x5f5c8891@@@Z 000000018004866c f   libucrt:argv_wildcards.obj
 0001:00047984       ??$?RV<lambda_efdfa57d1f175319df784efa44bb7b81>@@AEAV<lambda_5f0a4c1567f8adc6734073e5d1e1b35c>@@V<lambda_2e8a7d3640ea6ccb4c2413664c2db6fd>@@@?$__crt_seh_guarded_call@X@@QEAAX$$QEAV<lambda_efdfa57d1f175319df784efa44bb7b81>@@AEAV<lambda_5f0a4c1567f8adc6734073e5d1e1b35c>@@$$QEAV<lambda_2e8a7d3640ea6ccb4c2413664c2db6fd>@@@Z 0000000180048984 f   libucrt:mbctype.obj
 0001:00047b40       ?getSystemCP@@YAHH@Z       0000000180048b40 f   libucrt:mbctype.obj
 0001:00047bc0       ?setSBCS@@YAXPEAU__crt_multibyte_data@@@Z 0000000180048bc0 f   libucrt:mbctype.obj
 0001:00047c50       ?setSBUpLow@@YAXPEAU__crt_multibyte_data@@@Z 0000000180048c50 f   libucrt:mbctype.obj
 0001:00047e34       ?setmbcp_internal@@YAHH_NQEAU__acrt_ptd@@QEAPEAU__crt_multibyte_data@@@Z 0000000180048e34 f   libucrt:mbctype.obj
 0001:00047ff4       ?update_thread_multibyte_data_internal@@YAPEAU__crt_multibyte_data@@QEAU__acrt_ptd@@QEAPEAU1@@Z 0000000180048ff4 f   libucrt:mbctype.obj
 0001:000483e4       ?x_ismbbtype_l@@YAHPEAU__crt_locale_pointers@@IHH@Z 00000001800493e4 f   libucrt:ismbbyte.obj
 0001:0004863c       ??$common_set_variable_in_environment_nolock@_W@@YAHQEA_WH@Z 000000018004963c f   libucrt:setenv.obj
 0001:00048960       ??$copy_environment@_W@@YAPEAPEA_WQEAPEA_W@Z 0000000180049960 f   libucrt:setenv.obj
 0001:0004911c       ??$?RV<lambda_a37b2b86f63e897a80ea819b0eb08c01>@@AEAV<lambda_38ce7e780aa69e748d6df282ebc68efe>@@V<lambda_99fb1378e971ab6e7edea83e3a7a83a2>@@@?$__crt_seh_guarded_call@H@@QEAAH$$QEAV<lambda_a37b2b86f63e897a80ea819b0eb08c01>@@AEAV<lambda_38ce7e780aa69e748d6df282ebc68efe>@@$$QEAV<lambda_99fb1378e971ab6e7edea83e3a7a83a2>@@@Z 000000018004a11c f   libucrt:commit.obj
 0001:0004923c       ?write_double_translated_ansi_nolock@@YA?AUwrite_result@?A0x17268360@@HQEBDI@Z 000000018004a23c f   libucrt:write.obj
 0001:00049728       ?write_text_ansi_nolock@@YA?AUwrite_result@?A0x17268360@@HQEBDI@Z 000000018004a728 f   libucrt:write.obj
 0001:0004982c       ?write_text_utf16le_nolock@@YA?AUwrite_result@?A0x17268360@@HQEBDI@Z 000000018004a82c f   libucrt:write.obj
 0001:00049948       ?write_text_utf8_nolock@@YA?AUwrite_result@?A0x17268360@@HQEBDI@Z 000000018004a948 f   libucrt:write.obj
 0001:0004a81c       ?free_crt_array_internal@@YAXQEAPEBX_K@Z 000000018004b81c f   libucrt:inittime.obj
 0001:0004a874       ?initialize_lc_time@@YA_NQEAU__crt_lc_time_data@@QEAU__crt_locale_data@@@Z 000000018004b874 f   libucrt:inittime.obj
 0001:0004ad98       GetLocaleNameFromDefault   000000018004bd98 f   libucrt:get_qualified_locale.obj
 0001:0004ae40       GetLocaleNameFromLangCountry 000000018004be40 f   libucrt:get_qualified_locale.obj
 0001:0004af10       GetLocaleNameFromLanguage  000000018004bf10 f   libucrt:get_qualified_locale.obj
 0001:0004afa8       LangCountryEnumProcEx      000000018004bfa8 f   libucrt:get_qualified_locale.obj
 0001:0004b294       LanguageEnumProcEx         000000018004c294 f   libucrt:get_qualified_locale.obj
 0001:0004b380       ProcessCodePage            000000018004c380 f   libucrt:get_qualified_locale.obj
 0001:0004b44c       TestDefaultCountry         000000018004c44c f   libucrt:get_qualified_locale.obj
 0001:0004b4b0       TranslateName              000000018004c4b0 f   libucrt:get_qualified_locale.obj
 0001:0004b7b0       CountryEnumProc            000000018004c7b0 f   libucrt:getqloc_downlevel.obj
 0001:0004b898       GetLcidFromLangCountry     000000018004c898 f   libucrt:getqloc_downlevel.obj
 0001:0004b968       GetLcidFromLanguage        000000018004c968 f   libucrt:getqloc_downlevel.obj
 0001:0004ba00       LangCountryEnumProc        000000018004ca00 f   libucrt:getqloc_downlevel.obj
 0001:0004bc4c       LanguageEnumProc           000000018004cc4c f   libucrt:getqloc_downlevel.obj
 0001:0004bd54       LcidFromHexString          000000018004cd54 f   libucrt:getqloc_downlevel.obj
 0001:0004bda4       ProcessCodePage            000000018004cda4 f   libucrt:getqloc_downlevel.obj
 0001:0004be54       TestDefaultLanguage        000000018004ce54 f   libucrt:getqloc_downlevel.obj
 0001:0004bf00       TranslateName              000000018004cf00 f   libucrt:getqloc_downlevel.obj
 0001:0004dcdc       ??$write_buffer_nolock@D@@YA_NDV__crt_stdio_stream@@@Z 000000018004ecdc f   libucrt:_flsbuf.obj
